ARM GAS  C:\Users\igreg\AppData\Local\Temp\ccnO9ZHN.s 			page 1


   1              		.cpu cortex-m0
   2              		.fpu softvfp
   3              		.eabi_attribute 20, 1
   4              		.eabi_attribute 21, 1
   5              		.eabi_attribute 23, 3
   6              		.eabi_attribute 24, 1
   7              		.eabi_attribute 25, 1
   8              		.eabi_attribute 26, 1
   9              		.eabi_attribute 30, 6
  10              		.eabi_attribute 34, 0
  11              		.eabi_attribute 18, 4
  12              		.code	16
  13              		.file	"CYBLE_eventHandler.c"
  14              		.text
  15              	.Ltext0:
  16              		.cfi_sections	.debug_frame
  17              		.comm	cyBle_connHandle,2,4
  18              		.comm	cyBle_eventHandlerFlag,1,1
  19              		.comm	cyBle_busyStatus,1,1
  20              		.comm	cyBle_advertisingIntervalType,1,1
  21              		.global	cyBle_authInfo
  22              		.data
  23              		.align	2
  24              		.type	cyBle_authInfo, %object
  25              		.size	cyBle_authInfo, 5
  26              	cyBle_authInfo:
  27 0000 10       		.byte	16
  28 0001 00       		.byte	0
  29 0002 10       		.byte	16
  30 0003 00       		.byte	0
  31 0004 00       		.byte	0
  32 0005 000000   		.section	.text.CyBle_WriteReqHandler,"ax",%progbits
  33              		.align	2
  34              		.code	16
  35              		.thumb_func
  36              		.type	CyBle_WriteReqHandler, %function
  37              	CyBle_WriteReqHandler:
  38              	.LFB2:
  39              		.file 1 ".\\Generated_Source\\PSoC4\\CYBLE_eventHandler.c"
   1:.\Generated_Source\PSoC4/CYBLE_eventHandler.c **** /***************************************************************************//**
   2:.\Generated_Source\PSoC4/CYBLE_eventHandler.c **** * \file CYBLE_eventHandler.c
   3:.\Generated_Source\PSoC4/CYBLE_eventHandler.c **** * \version 3.0
   4:.\Generated_Source\PSoC4/CYBLE_eventHandler.c **** * 
   5:.\Generated_Source\PSoC4/CYBLE_eventHandler.c **** * \brief
   6:.\Generated_Source\PSoC4/CYBLE_eventHandler.c **** *  This file contains the source code for the Event Handler State Machine
   7:.\Generated_Source\PSoC4/CYBLE_eventHandler.c **** *  of the BLE Component.
   8:.\Generated_Source\PSoC4/CYBLE_eventHandler.c **** * 
   9:.\Generated_Source\PSoC4/CYBLE_eventHandler.c **** ********************************************************************************
  10:.\Generated_Source\PSoC4/CYBLE_eventHandler.c **** * \copyright
  11:.\Generated_Source\PSoC4/CYBLE_eventHandler.c **** * Copyright 2014-2015, Cypress Semiconductor Corporation.  All rights reserved.
  12:.\Generated_Source\PSoC4/CYBLE_eventHandler.c **** * You may use this file only in accordance with the license, terms, conditions,
  13:.\Generated_Source\PSoC4/CYBLE_eventHandler.c **** * disclaimers, and limitations in the end user license agreement accompanying
  14:.\Generated_Source\PSoC4/CYBLE_eventHandler.c **** * the software package with which this file was provided.
  15:.\Generated_Source\PSoC4/CYBLE_eventHandler.c **** *******************************************************************************/
  16:.\Generated_Source\PSoC4/CYBLE_eventHandler.c **** 
  17:.\Generated_Source\PSoC4/CYBLE_eventHandler.c **** #include "CYBLE_eventHandler.h"
  18:.\Generated_Source\PSoC4/CYBLE_eventHandler.c **** 
ARM GAS  C:\Users\igreg\AppData\Local\Temp\ccnO9ZHN.s 			page 2


  19:.\Generated_Source\PSoC4/CYBLE_eventHandler.c **** 
  20:.\Generated_Source\PSoC4/CYBLE_eventHandler.c **** /***************************************
  21:.\Generated_Source\PSoC4/CYBLE_eventHandler.c **** * Private Function Prototypes
  22:.\Generated_Source\PSoC4/CYBLE_eventHandler.c **** ***************************************/
  23:.\Generated_Source\PSoC4/CYBLE_eventHandler.c **** 
  24:.\Generated_Source\PSoC4/CYBLE_eventHandler.c **** static void CyBle_GattDisconnectEventHandler(void);
  25:.\Generated_Source\PSoC4/CYBLE_eventHandler.c **** static void CyBle_TimeOutEventHandler(const CYBLE_TO_REASON_CODE_T *eventParam);
  26:.\Generated_Source\PSoC4/CYBLE_eventHandler.c **** static void CyBle_GattConnectReqHandler(void);
  27:.\Generated_Source\PSoC4/CYBLE_eventHandler.c **** static void CyBle_L2Cap_ConnParamUpdateRspEventHandler(uint16 response);
  28:.\Generated_Source\PSoC4/CYBLE_eventHandler.c **** static void CyBle_GapConnUpdateCompleteEventHandler(const CYBLE_GAP_CONN_PARAM_UPDATED_IN_CONTROLLE
  29:.\Generated_Source\PSoC4/CYBLE_eventHandler.c **** 
  30:.\Generated_Source\PSoC4/CYBLE_eventHandler.c **** 
  31:.\Generated_Source\PSoC4/CYBLE_eventHandler.c **** #if (CYBLE_GATT_ROLE_SERVER)
  32:.\Generated_Source\PSoC4/CYBLE_eventHandler.c **** 
  33:.\Generated_Source\PSoC4/CYBLE_eventHandler.c **** static void CyBle_WriteReqHandler(CYBLE_GATTS_WRITE_REQ_PARAM_T *eventParam);
  34:.\Generated_Source\PSoC4/CYBLE_eventHandler.c **** static void CyBle_ValueConfirmation(const CYBLE_CONN_HANDLE_T *eventParam);
  35:.\Generated_Source\PSoC4/CYBLE_eventHandler.c **** 
  36:.\Generated_Source\PSoC4/CYBLE_eventHandler.c **** #endif /* CYBLE_GATT_ROLE_SERVER */
  37:.\Generated_Source\PSoC4/CYBLE_eventHandler.c **** 
  38:.\Generated_Source\PSoC4/CYBLE_eventHandler.c **** #if (CYBLE_GATT_ROLE_CLIENT)
  39:.\Generated_Source\PSoC4/CYBLE_eventHandler.c **** 
  40:.\Generated_Source\PSoC4/CYBLE_eventHandler.c **** static void CyBle_GapcDiscoverCharacteristicsEventHandler(CYBLE_DISC_CHAR_INFO_T *discCharInfo);
  41:.\Generated_Source\PSoC4/CYBLE_eventHandler.c **** static CYBLE_GATT_ATTR_HANDLE_RANGE_T CyBle_GetCharRange(void);
  42:.\Generated_Source\PSoC4/CYBLE_eventHandler.c **** static void CyBle_GattcWriteResponseEventHandler(const CYBLE_CONN_HANDLE_T *eventParam);
  43:.\Generated_Source\PSoC4/CYBLE_eventHandler.c **** static void CyBle_NotificationEventHandler(CYBLE_GATTC_HANDLE_VALUE_NTF_PARAM_T *eventParam);
  44:.\Generated_Source\PSoC4/CYBLE_eventHandler.c **** static void CyBle_IndicationEventHandler(CYBLE_GATTC_HANDLE_VALUE_IND_PARAM_T *eventParam);
  45:.\Generated_Source\PSoC4/CYBLE_eventHandler.c **** static void CyBle_ReadResponseEventHandler(CYBLE_GATTC_READ_RSP_PARAM_T *eventParam);
  46:.\Generated_Source\PSoC4/CYBLE_eventHandler.c **** 
  47:.\Generated_Source\PSoC4/CYBLE_eventHandler.c **** #endif /* CYBLE_GATT_ROLE_CLIENT */
  48:.\Generated_Source\PSoC4/CYBLE_eventHandler.c **** 
  49:.\Generated_Source\PSoC4/CYBLE_eventHandler.c **** 
  50:.\Generated_Source\PSoC4/CYBLE_eventHandler.c **** /***************************************
  51:.\Generated_Source\PSoC4/CYBLE_eventHandler.c **** * Global Variables
  52:.\Generated_Source\PSoC4/CYBLE_eventHandler.c **** ***************************************/
  53:.\Generated_Source\PSoC4/CYBLE_eventHandler.c **** 
  54:.\Generated_Source\PSoC4/CYBLE_eventHandler.c **** /* This global variable is initialized after connection with peer device, 
  55:.\Generated_Source\PSoC4/CYBLE_eventHandler.c ****    after CYBLE_EVT_GATT_CONNECT_IND event, and could be used by application code
  56:.\Generated_Source\PSoC4/CYBLE_eventHandler.c ****    to send data to peer device. 
  57:.\Generated_Source\PSoC4/CYBLE_eventHandler.c **** */
  58:.\Generated_Source\PSoC4/CYBLE_eventHandler.c **** CYBLE_CONN_HANDLE_T cyBle_connHandle;
  59:.\Generated_Source\PSoC4/CYBLE_eventHandler.c **** 
  60:.\Generated_Source\PSoC4/CYBLE_eventHandler.c **** volatile uint8 cyBle_eventHandlerFlag;
  61:.\Generated_Source\PSoC4/CYBLE_eventHandler.c **** volatile uint8 cyBle_busyStatus;
  62:.\Generated_Source\PSoC4/CYBLE_eventHandler.c **** 
  63:.\Generated_Source\PSoC4/CYBLE_eventHandler.c **** #if(CYBLE_GAP_ROLE_PERIPHERAL || CYBLE_GAP_ROLE_BROADCASTER) 
  64:.\Generated_Source\PSoC4/CYBLE_eventHandler.c ****     uint8 cyBle_advertisingIntervalType;
  65:.\Generated_Source\PSoC4/CYBLE_eventHandler.c **** #endif /* CYBLE_GAP_ROLE_PERIPHERAL || CYBLE_GAP_ROLE_BROADCASTER) */
  66:.\Generated_Source\PSoC4/CYBLE_eventHandler.c **** 
  67:.\Generated_Source\PSoC4/CYBLE_eventHandler.c **** #if(CYBLE_GAP_ROLE_CENTRAL || CYBLE_GAP_ROLE_OBSERVER) 
  68:.\Generated_Source\PSoC4/CYBLE_eventHandler.c ****     uint8 cyBle_scanningIntervalType;
  69:.\Generated_Source\PSoC4/CYBLE_eventHandler.c **** #endif /* CYBLE_GAP_ROLE_CENTRAL || CYBLE_GAP_ROLE_OBSERVER */
  70:.\Generated_Source\PSoC4/CYBLE_eventHandler.c **** 
  71:.\Generated_Source\PSoC4/CYBLE_eventHandler.c **** #if(CYBLE_GATT_ROLE_SERVER)
  72:.\Generated_Source\PSoC4/CYBLE_eventHandler.c **** #if defined CYBLE_CTS_SERVER || defined CYBLE_ESS_SERVER
  73:.\Generated_Source\PSoC4/CYBLE_eventHandler.c **** CYBLE_GATT_ERR_CODE_T cyBle_gattError;
  74:.\Generated_Source\PSoC4/CYBLE_eventHandler.c **** #endif /* defined CYBLE_CTS_SERVER || defined CYBLE_ESS_SERVER */
  75:.\Generated_Source\PSoC4/CYBLE_eventHandler.c **** #endif /* CYBLE_GATT_ROLE_SERVER */
ARM GAS  C:\Users\igreg\AppData\Local\Temp\ccnO9ZHN.s 			page 3


  76:.\Generated_Source\PSoC4/CYBLE_eventHandler.c **** 
  77:.\Generated_Source\PSoC4/CYBLE_eventHandler.c **** #if(CYBLE_GATT_ROLE_CLIENT)
  78:.\Generated_Source\PSoC4/CYBLE_eventHandler.c **** uint8 cyBle_disCount; /* Counter for discovery procedures */
  79:.\Generated_Source\PSoC4/CYBLE_eventHandler.c **** static CYBLE_GATT_DB_ATTR_HANDLE_T cyBle_charEndHandle;
  80:.\Generated_Source\PSoC4/CYBLE_eventHandler.c **** /* Discovery included service information, used for 128-bit UUID read response handle 
  81:.\Generated_Source\PSoC4/CYBLE_eventHandler.c ****    and for continue discovery. 
  82:.\Generated_Source\PSoC4/CYBLE_eventHandler.c **** */
  83:.\Generated_Source\PSoC4/CYBLE_eventHandler.c **** static CYBLE_DISC_INCL_INFO_T cyBle_discInclInfo;
  84:.\Generated_Source\PSoC4/CYBLE_eventHandler.c **** #ifdef CYBLE_HIDS_CLIENT
  85:.\Generated_Source\PSoC4/CYBLE_eventHandler.c ****     static uint8 disServiceIndex;      /* To discovery descriptors for multiple HID service instanc
  86:.\Generated_Source\PSoC4/CYBLE_eventHandler.c **** #endif /* CYBLE_HIDS_CLIENT */
  87:.\Generated_Source\PSoC4/CYBLE_eventHandler.c **** 
  88:.\Generated_Source\PSoC4/CYBLE_eventHandler.c **** CYBLE_DISC_SRVC_INFO_T cyBle_serverInfo[CYBLE_SRVI_COUNT] = /*4*/
  89:.\Generated_Source\PSoC4/CYBLE_eventHandler.c **** {
  90:.\Generated_Source\PSoC4/CYBLE_eventHandler.c ****     {{CYBLE_GATT_INVALID_ATTR_HANDLE_VALUE, CYBLE_GATT_INVALID_ATTR_HANDLE_VALUE}, CYBLE_UUID_GAP_S
  91:.\Generated_Source\PSoC4/CYBLE_eventHandler.c ****     {{CYBLE_GATT_INVALID_ATTR_HANDLE_VALUE, CYBLE_GATT_INVALID_ATTR_HANDLE_VALUE}, CYBLE_UUID_GATT_
  92:.\Generated_Source\PSoC4/CYBLE_eventHandler.c **** #ifdef CYBLE_ANCS_CLIENT
  93:.\Generated_Source\PSoC4/CYBLE_eventHandler.c ****     {{CYBLE_GATT_INVALID_ATTR_HANDLE_VALUE, CYBLE_GATT_INVALID_ATTR_HANDLE_VALUE}, 0x0000u},
  94:.\Generated_Source\PSoC4/CYBLE_eventHandler.c **** #endif /* CYBLE_ANCS_CLIENT */
  95:.\Generated_Source\PSoC4/CYBLE_eventHandler.c **** #ifdef CYBLE_ANS_CLIENT
  96:.\Generated_Source\PSoC4/CYBLE_eventHandler.c ****     {{CYBLE_GATT_INVALID_ATTR_HANDLE_VALUE, CYBLE_GATT_INVALID_ATTR_HANDLE_VALUE}, 
  97:.\Generated_Source\PSoC4/CYBLE_eventHandler.c ****         CYBLE_UUID_ALERT_NOTIFICATION_SERVICE},
  98:.\Generated_Source\PSoC4/CYBLE_eventHandler.c **** #endif /* CYBLE_ANS_CLIENT */
  99:.\Generated_Source\PSoC4/CYBLE_eventHandler.c **** #ifdef CYBLE_BAS_CLIENT
 100:.\Generated_Source\PSoC4/CYBLE_eventHandler.c ****     {{CYBLE_GATT_INVALID_ATTR_HANDLE_VALUE, CYBLE_GATT_INVALID_ATTR_HANDLE_VALUE}, CYBLE_UUID_BAS_S
 101:.\Generated_Source\PSoC4/CYBLE_eventHandler.c ****     #if(CYBLE_BASC_SERVICE_COUNT > 1u) /* Generate it by GUI */
 102:.\Generated_Source\PSoC4/CYBLE_eventHandler.c ****         
 103:.\Generated_Source\PSoC4/CYBLE_eventHandler.c ****     #endif /* CYBLE_BASC_SERVICE_COUNT > 1u */
 104:.\Generated_Source\PSoC4/CYBLE_eventHandler.c **** #endif /* CYBLE_BAS_CLIENT */
 105:.\Generated_Source\PSoC4/CYBLE_eventHandler.c **** #ifdef CYBLE_BCS_CLIENT
 106:.\Generated_Source\PSoC4/CYBLE_eventHandler.c ****     {{CYBLE_GATT_INVALID_ATTR_HANDLE_VALUE, CYBLE_GATT_INVALID_ATTR_HANDLE_VALUE}, CYBLE_UUID_BODY_
 107:.\Generated_Source\PSoC4/CYBLE_eventHandler.c **** #endif /* CYBLE_BCS_CLIENT */
 108:.\Generated_Source\PSoC4/CYBLE_eventHandler.c **** #ifdef CYBLE_BLS_CLIENT
 109:.\Generated_Source\PSoC4/CYBLE_eventHandler.c ****     {{CYBLE_GATT_INVALID_ATTR_HANDLE_VALUE, CYBLE_GATT_INVALID_ATTR_HANDLE_VALUE}, CYBLE_UUID_BLOOD
 110:.\Generated_Source\PSoC4/CYBLE_eventHandler.c **** #endif /* CYBLE_BLS_CLIENT */
 111:.\Generated_Source\PSoC4/CYBLE_eventHandler.c **** #ifdef CYBLE_BMS_CLIENT
 112:.\Generated_Source\PSoC4/CYBLE_eventHandler.c ****     {{CYBLE_GATT_INVALID_ATTR_HANDLE_VALUE, CYBLE_GATT_INVALID_ATTR_HANDLE_VALUE}, CYBLE_UUID_BOND_
 113:.\Generated_Source\PSoC4/CYBLE_eventHandler.c **** #endif /* CYBLE_BMS_CLIENT */
 114:.\Generated_Source\PSoC4/CYBLE_eventHandler.c **** #ifdef CYBLE_CGMS_CLIENT
 115:.\Generated_Source\PSoC4/CYBLE_eventHandler.c ****     {{CYBLE_GATT_INVALID_ATTR_HANDLE_VALUE, CYBLE_GATT_INVALID_ATTR_HANDLE_VALUE}, CYBLE_UUID_CGM_S
 116:.\Generated_Source\PSoC4/CYBLE_eventHandler.c **** #endif /* CYBLE_CGMS_CLIENT */
 117:.\Generated_Source\PSoC4/CYBLE_eventHandler.c **** #ifdef CYBLE_CPS_CLIENT
 118:.\Generated_Source\PSoC4/CYBLE_eventHandler.c ****     {{CYBLE_GATT_INVALID_ATTR_HANDLE_VALUE, CYBLE_GATT_INVALID_ATTR_HANDLE_VALUE}, CYBLE_UUID_CPS_S
 119:.\Generated_Source\PSoC4/CYBLE_eventHandler.c **** #endif /* CYBLE_CPS_CLIENT */
 120:.\Generated_Source\PSoC4/CYBLE_eventHandler.c **** #ifdef CYBLE_CSCS_CLIENT
 121:.\Generated_Source\PSoC4/CYBLE_eventHandler.c ****     {{CYBLE_GATT_INVALID_ATTR_HANDLE_VALUE, CYBLE_GATT_INVALID_ATTR_HANDLE_VALUE}, 
 122:.\Generated_Source\PSoC4/CYBLE_eventHandler.c ****         CYBLE_UUID_CYCLING_SPEED_AND_CADENCE_SERVICE},
 123:.\Generated_Source\PSoC4/CYBLE_eventHandler.c **** #endif /* CYBLE_CSCS_CLIENT */
 124:.\Generated_Source\PSoC4/CYBLE_eventHandler.c **** #ifdef CYBLE_CTS_CLIENT
 125:.\Generated_Source\PSoC4/CYBLE_eventHandler.c ****     {{CYBLE_GATT_INVALID_ATTR_HANDLE_VALUE, CYBLE_GATT_INVALID_ATTR_HANDLE_VALUE}, CYBLE_UUID_CURRE
 126:.\Generated_Source\PSoC4/CYBLE_eventHandler.c **** #endif /* CYBLE_CTS_CLIENT */
 127:.\Generated_Source\PSoC4/CYBLE_eventHandler.c **** #ifdef CYBLE_CUSTOM_CLIENT
 128:.\Generated_Source\PSoC4/CYBLE_eventHandler.c ****     
 129:.\Generated_Source\PSoC4/CYBLE_eventHandler.c **** #endif /* CYBLE_CUSTOM_CLIENT */
 130:.\Generated_Source\PSoC4/CYBLE_eventHandler.c **** #ifdef CYBLE_DIS_CLIENT
 131:.\Generated_Source\PSoC4/CYBLE_eventHandler.c ****     {{CYBLE_GATT_INVALID_ATTR_HANDLE_VALUE, CYBLE_GATT_INVALID_ATTR_HANDLE_VALUE}, CYBLE_UUID_DEVIC
 132:.\Generated_Source\PSoC4/CYBLE_eventHandler.c **** #endif /* CYBLE_DIS_CLIENT */
ARM GAS  C:\Users\igreg\AppData\Local\Temp\ccnO9ZHN.s 			page 4


 133:.\Generated_Source\PSoC4/CYBLE_eventHandler.c **** #ifdef CYBLE_ESS_CLIENT
 134:.\Generated_Source\PSoC4/CYBLE_eventHandler.c ****     {{CYBLE_GATT_INVALID_ATTR_HANDLE_VALUE, CYBLE_GATT_INVALID_ATTR_HANDLE_VALUE}, 
 135:.\Generated_Source\PSoC4/CYBLE_eventHandler.c ****         CYBLE_UUID_ENVIRONMENTAL_SENSING_SERVICE},
 136:.\Generated_Source\PSoC4/CYBLE_eventHandler.c **** #endif /* CYBLE_ESS_CLIENT */
 137:.\Generated_Source\PSoC4/CYBLE_eventHandler.c **** #ifdef CYBLE_GLS_CLIENT
 138:.\Generated_Source\PSoC4/CYBLE_eventHandler.c ****     {{CYBLE_GATT_INVALID_ATTR_HANDLE_VALUE, CYBLE_GATT_INVALID_ATTR_HANDLE_VALUE}, CYBLE_UUID_GLUCO
 139:.\Generated_Source\PSoC4/CYBLE_eventHandler.c **** #endif /* CYBLE_GLS_CLIENT */
 140:.\Generated_Source\PSoC4/CYBLE_eventHandler.c **** #ifdef CYBLE_HIDS_CLIENT
 141:.\Generated_Source\PSoC4/CYBLE_eventHandler.c ****     {{CYBLE_GATT_INVALID_ATTR_HANDLE_VALUE, CYBLE_GATT_INVALID_ATTR_HANDLE_VALUE}, CYBLE_UUID_HIDS_
 142:.\Generated_Source\PSoC4/CYBLE_eventHandler.c ****     #if(CYBLE_HIDSC_SERVICE_COUNT > 1u) /* Generate it by GUI */
 143:.\Generated_Source\PSoC4/CYBLE_eventHandler.c ****         
 144:.\Generated_Source\PSoC4/CYBLE_eventHandler.c ****     #endif /* CYBLE_HIDSC_SERVICE_COUNT > 1u */
 145:.\Generated_Source\PSoC4/CYBLE_eventHandler.c **** #endif /* CYBLE_HIDS_CLIENT */
 146:.\Generated_Source\PSoC4/CYBLE_eventHandler.c **** #ifdef CYBLE_HPS_CLIENT
 147:.\Generated_Source\PSoC4/CYBLE_eventHandler.c ****     {{CYBLE_GATT_INVALID_ATTR_HANDLE_VALUE, CYBLE_GATT_INVALID_ATTR_HANDLE_VALUE}, CYBLE_UUID_HTTP_
 148:.\Generated_Source\PSoC4/CYBLE_eventHandler.c **** #endif /* CYBLE_HPS_CLIENT */
 149:.\Generated_Source\PSoC4/CYBLE_eventHandler.c **** #ifdef CYBLE_HRS_CLIENT
 150:.\Generated_Source\PSoC4/CYBLE_eventHandler.c ****     {{CYBLE_GATT_INVALID_ATTR_HANDLE_VALUE, CYBLE_GATT_INVALID_ATTR_HANDLE_VALUE}, CYBLE_UUID_HEART
 151:.\Generated_Source\PSoC4/CYBLE_eventHandler.c **** #endif /* CYBLE_HRS_CLIENT */
 152:.\Generated_Source\PSoC4/CYBLE_eventHandler.c **** #ifdef CYBLE_HTS_CLIENT
 153:.\Generated_Source\PSoC4/CYBLE_eventHandler.c ****     {{CYBLE_GATT_INVALID_ATTR_HANDLE_VALUE, CYBLE_GATT_INVALID_ATTR_HANDLE_VALUE}, CYBLE_UUID_HEALT
 154:.\Generated_Source\PSoC4/CYBLE_eventHandler.c **** #endif /* CYBLE_HTS_CLIENT */
 155:.\Generated_Source\PSoC4/CYBLE_eventHandler.c **** #ifdef CYBLE_IAS_CLIENT
 156:.\Generated_Source\PSoC4/CYBLE_eventHandler.c ****     {{CYBLE_GATT_INVALID_ATTR_HANDLE_VALUE, CYBLE_GATT_INVALID_ATTR_HANDLE_VALUE}, CYBLE_UUID_IMMED
 157:.\Generated_Source\PSoC4/CYBLE_eventHandler.c **** #endif /* CYBLE_IAS_CLIENT */
 158:.\Generated_Source\PSoC4/CYBLE_eventHandler.c **** #ifdef CYBLE_LLS_CLIENT
 159:.\Generated_Source\PSoC4/CYBLE_eventHandler.c ****     {{CYBLE_GATT_INVALID_ATTR_HANDLE_VALUE, CYBLE_GATT_INVALID_ATTR_HANDLE_VALUE}, CYBLE_UUID_LINK_
 160:.\Generated_Source\PSoC4/CYBLE_eventHandler.c **** #endif /* CYBLE_LLS_CLIENT */
 161:.\Generated_Source\PSoC4/CYBLE_eventHandler.c **** #ifdef CYBLE_LNS_CLIENT
 162:.\Generated_Source\PSoC4/CYBLE_eventHandler.c ****     {{CYBLE_GATT_INVALID_ATTR_HANDLE_VALUE, CYBLE_GATT_INVALID_ATTR_HANDLE_VALUE}, CYBLE_UUID_LOCAT
 163:.\Generated_Source\PSoC4/CYBLE_eventHandler.c **** #endif /* CYBLE_LNS_CLIENT */
 164:.\Generated_Source\PSoC4/CYBLE_eventHandler.c **** #ifdef CYBLE_NDCS_CLIENT
 165:.\Generated_Source\PSoC4/CYBLE_eventHandler.c ****     {{CYBLE_GATT_INVALID_ATTR_HANDLE_VALUE, CYBLE_GATT_INVALID_ATTR_HANDLE_VALUE}, CYBLE_UUID_NEXT_
 166:.\Generated_Source\PSoC4/CYBLE_eventHandler.c **** #endif /* CYBLE_NDCS_CLIENT */
 167:.\Generated_Source\PSoC4/CYBLE_eventHandler.c **** #ifdef CYBLE_IPSS_CLIENT
 168:.\Generated_Source\PSoC4/CYBLE_eventHandler.c ****     {{CYBLE_GATT_INVALID_ATTR_HANDLE_VALUE, CYBLE_GATT_INVALID_ATTR_HANDLE_VALUE}, CYBLE_UUID_INTER
 169:.\Generated_Source\PSoC4/CYBLE_eventHandler.c **** #endif /* CYBLE_IPSS_CLIENT */
 170:.\Generated_Source\PSoC4/CYBLE_eventHandler.c **** #ifdef CYBLE_PASS_CLIENT
 171:.\Generated_Source\PSoC4/CYBLE_eventHandler.c ****     {{CYBLE_GATT_INVALID_ATTR_HANDLE_VALUE, CYBLE_GATT_INVALID_ATTR_HANDLE_VALUE}, CYBLE_UUID_PHONE
 172:.\Generated_Source\PSoC4/CYBLE_eventHandler.c **** #endif /* CYBLE_PASS_CLIENT */
 173:.\Generated_Source\PSoC4/CYBLE_eventHandler.c **** #ifdef CYBLE_RSCS_CLIENT
 174:.\Generated_Source\PSoC4/CYBLE_eventHandler.c ****     {{CYBLE_GATT_INVALID_ATTR_HANDLE_VALUE, CYBLE_GATT_INVALID_ATTR_HANDLE_VALUE}, CYBLE_UUID_RUNNI
 175:.\Generated_Source\PSoC4/CYBLE_eventHandler.c **** #endif /* CYBLE_RSCS_CLIENT */
 176:.\Generated_Source\PSoC4/CYBLE_eventHandler.c **** #ifdef CYBLE_RTUS_CLIENT
 177:.\Generated_Source\PSoC4/CYBLE_eventHandler.c ****     {{CYBLE_GATT_INVALID_ATTR_HANDLE_VALUE, CYBLE_GATT_INVALID_ATTR_HANDLE_VALUE}, CYBLE_UUID_REF_T
 178:.\Generated_Source\PSoC4/CYBLE_eventHandler.c **** #endif /* CYBLE_RTUS_CLIENT */
 179:.\Generated_Source\PSoC4/CYBLE_eventHandler.c **** #ifdef CYBLE_SCPS_CLIENT
 180:.\Generated_Source\PSoC4/CYBLE_eventHandler.c ****     {{CYBLE_GATT_INVALID_ATTR_HANDLE_VALUE, CYBLE_GATT_INVALID_ATTR_HANDLE_VALUE}, CYBLE_UUID_SCAN_
 181:.\Generated_Source\PSoC4/CYBLE_eventHandler.c **** #endif /* CYBLE_SCPS_CLIENT */
 182:.\Generated_Source\PSoC4/CYBLE_eventHandler.c **** #ifdef CYBLE_TPS_CLIENT
 183:.\Generated_Source\PSoC4/CYBLE_eventHandler.c ****     {{CYBLE_GATT_INVALID_ATTR_HANDLE_VALUE, CYBLE_GATT_INVALID_ATTR_HANDLE_VALUE}, CYBLE_UUID_TX_PO
 184:.\Generated_Source\PSoC4/CYBLE_eventHandler.c **** #endif /* CYBLE_TPS_CLIENT */
 185:.\Generated_Source\PSoC4/CYBLE_eventHandler.c **** #ifdef CYBLE_UDS_CLIENT
 186:.\Generated_Source\PSoC4/CYBLE_eventHandler.c ****     {{CYBLE_GATT_INVALID_ATTR_HANDLE_VALUE, CYBLE_GATT_INVALID_ATTR_HANDLE_VALUE}, CYBLE_UUID_USER_
 187:.\Generated_Source\PSoC4/CYBLE_eventHandler.c **** #endif /* CYBLE_UDS_CLIENT */
 188:.\Generated_Source\PSoC4/CYBLE_eventHandler.c **** #ifdef CYBLE_WSS_CLIENT
 189:.\Generated_Source\PSoC4/CYBLE_eventHandler.c ****     {{CYBLE_GATT_INVALID_ATTR_HANDLE_VALUE, CYBLE_GATT_INVALID_ATTR_HANDLE_VALUE}, CYBLE_UUID_WEIGH
ARM GAS  C:\Users\igreg\AppData\Local\Temp\ccnO9ZHN.s 			page 5


 190:.\Generated_Source\PSoC4/CYBLE_eventHandler.c **** #endif /* CYBLE_WSS_CLIENT */
 191:.\Generated_Source\PSoC4/CYBLE_eventHandler.c **** #ifdef CYBLE_WPTS_CLIENT
 192:.\Generated_Source\PSoC4/CYBLE_eventHandler.c ****     {{CYBLE_GATT_INVALID_ATTR_HANDLE_VALUE, CYBLE_GATT_INVALID_ATTR_HANDLE_VALUE}, CYBLE_UUID_WIREL
 193:.\Generated_Source\PSoC4/CYBLE_eventHandler.c **** #endif /* CYBLE_WPTS_CLIENT */
 194:.\Generated_Source\PSoC4/CYBLE_eventHandler.c **** };
 195:.\Generated_Source\PSoC4/CYBLE_eventHandler.c **** 
 196:.\Generated_Source\PSoC4/CYBLE_eventHandler.c **** CYBLE_GAPC_T cyBle_gapc;
 197:.\Generated_Source\PSoC4/CYBLE_eventHandler.c **** 
 198:.\Generated_Source\PSoC4/CYBLE_eventHandler.c **** #endif /* CYBLE_GATT_ROLE_CLIENT */
 199:.\Generated_Source\PSoC4/CYBLE_eventHandler.c **** 
 200:.\Generated_Source\PSoC4/CYBLE_eventHandler.c **** /* Default device security */
 201:.\Generated_Source\PSoC4/CYBLE_eventHandler.c **** CYBLE_GAP_AUTH_INFO_T cyBle_authInfo =
 202:.\Generated_Source\PSoC4/CYBLE_eventHandler.c **** {
 203:.\Generated_Source\PSoC4/CYBLE_eventHandler.c ****     (CYBLE_GAP_SEC_MODE_1 | CYBLE_GAP_SEC_LEVEL_1 ), /* uint8 security */
 204:.\Generated_Source\PSoC4/CYBLE_eventHandler.c ****     CYBLE_GAP_BONDING_NONE, /* uint8 bonding */
 205:.\Generated_Source\PSoC4/CYBLE_eventHandler.c ****     0x10u,      /* uint8 ekeySize */
 206:.\Generated_Source\PSoC4/CYBLE_eventHandler.c ****     CYBLE_GAP_AUTH_ERROR_NONE, /* CYBLE_AUTH_FAILED_REASON_T authErr */
 207:.\Generated_Source\PSoC4/CYBLE_eventHandler.c ****     0x00u,      /* uint8 pairingProperties */
 208:.\Generated_Source\PSoC4/CYBLE_eventHandler.c **** };
 209:.\Generated_Source\PSoC4/CYBLE_eventHandler.c **** 
 210:.\Generated_Source\PSoC4/CYBLE_eventHandler.c **** #if(CYBLE_GATT_ROLE_SERVER)
 211:.\Generated_Source\PSoC4/CYBLE_eventHandler.c **** 
 212:.\Generated_Source\PSoC4/CYBLE_eventHandler.c **** 
 213:.\Generated_Source\PSoC4/CYBLE_eventHandler.c **** /******************************************************************************    
 214:.\Generated_Source\PSoC4/CYBLE_eventHandler.c **** * Function Name: CyBle_WriteReqHandler
 215:.\Generated_Source\PSoC4/CYBLE_eventHandler.c **** ***************************************************************************//**
 216:.\Generated_Source\PSoC4/CYBLE_eventHandler.c **** * 
 217:.\Generated_Source\PSoC4/CYBLE_eventHandler.c **** *  Handles the Write Request event from BLE stack.
 218:.\Generated_Source\PSoC4/CYBLE_eventHandler.c **** * 
 219:.\Generated_Source\PSoC4/CYBLE_eventHandler.c **** *  CYBLE_GATTS_WRITE_REQ_PARAM_T * eventParam - event parameter
 220:.\Generated_Source\PSoC4/CYBLE_eventHandler.c **** * 
 221:.\Generated_Source\PSoC4/CYBLE_eventHandler.c **** * \return
 222:.\Generated_Source\PSoC4/CYBLE_eventHandler.c **** *  None
 223:.\Generated_Source\PSoC4/CYBLE_eventHandler.c **** * 
 224:.\Generated_Source\PSoC4/CYBLE_eventHandler.c **** ******************************************************************************/
 225:.\Generated_Source\PSoC4/CYBLE_eventHandler.c **** static void CyBle_WriteReqHandler(CYBLE_GATTS_WRITE_REQ_PARAM_T *eventParam)
 226:.\Generated_Source\PSoC4/CYBLE_eventHandler.c **** {
  40              		.loc 1 226 0
  41              		.cfi_startproc
  42 0000 90B5     		push	{r4, r7, lr}
  43              		.cfi_def_cfa_offset 12
  44              		.cfi_offset 4, -12
  45              		.cfi_offset 7, -8
  46              		.cfi_offset 14, -4
  47 0002 85B0     		sub	sp, sp, #20
  48              		.cfi_def_cfa_offset 32
  49 0004 00AF     		add	r7, sp, #0
  50              		.cfi_def_cfa_register 7
  51 0006 7860     		str	r0, [r7, #4]
 227:.\Generated_Source\PSoC4/CYBLE_eventHandler.c ****     CYBLE_GATT_ERR_CODE_T gattErr;
 228:.\Generated_Source\PSoC4/CYBLE_eventHandler.c **** #if defined CYBLE_CTS_SERVER || defined CYBLE_ESS_SERVER
 229:.\Generated_Source\PSoC4/CYBLE_eventHandler.c ****     cyBle_gattError = CYBLE_GATT_ERR_NONE;
 230:.\Generated_Source\PSoC4/CYBLE_eventHandler.c **** #endif /* defined CYBLE_CTS_SERVER || defined CYBLE_ESS_SERVER */
 231:.\Generated_Source\PSoC4/CYBLE_eventHandler.c ****     
 232:.\Generated_Source\PSoC4/CYBLE_eventHandler.c ****     gattErr = CyBle_GattsWriteEventHandler(eventParam);
  52              		.loc 1 232 0
  53 0008 0F23     		mov	r3, #15
ARM GAS  C:\Users\igreg\AppData\Local\Temp\ccnO9ZHN.s 			page 6


  54 000a FC18     		add	r4, r7, r3
  55 000c 7B68     		ldr	r3, [r7, #4]
  56 000e 181C     		mov	r0, r3
  57 0010 FFF7FEFF 		bl	CyBle_GattsWriteEventHandler
  58 0014 031C     		mov	r3, r0
  59 0016 2370     		strb	r3, [r4]
 233:.\Generated_Source\PSoC4/CYBLE_eventHandler.c **** #ifdef CYBLE_ANCS_SERVER
 234:.\Generated_Source\PSoC4/CYBLE_eventHandler.c ****     if(((cyBle_eventHandlerFlag & CYBLE_CALLBACK) != 0u) && (gattErr == CYBLE_GATT_ERR_NONE))
 235:.\Generated_Source\PSoC4/CYBLE_eventHandler.c ****     {
 236:.\Generated_Source\PSoC4/CYBLE_eventHandler.c ****         gattErr = CyBle_AncssWriteEventHandler(eventParam);
 237:.\Generated_Source\PSoC4/CYBLE_eventHandler.c ****     }
 238:.\Generated_Source\PSoC4/CYBLE_eventHandler.c **** #endif /* CYBLE_ANCS_SERVER */
 239:.\Generated_Source\PSoC4/CYBLE_eventHandler.c **** #ifdef CYBLE_ANS_SERVER
 240:.\Generated_Source\PSoC4/CYBLE_eventHandler.c ****     if(((cyBle_eventHandlerFlag & CYBLE_CALLBACK) != 0u) && (gattErr == CYBLE_GATT_ERR_NONE))
 241:.\Generated_Source\PSoC4/CYBLE_eventHandler.c ****     {
 242:.\Generated_Source\PSoC4/CYBLE_eventHandler.c ****         gattErr = CyBle_AnssWriteEventHandler(eventParam);
 243:.\Generated_Source\PSoC4/CYBLE_eventHandler.c ****     }
 244:.\Generated_Source\PSoC4/CYBLE_eventHandler.c **** #endif /* CYBLE_ANS_SERVER */
 245:.\Generated_Source\PSoC4/CYBLE_eventHandler.c **** #ifdef CYBLE_BAS_SERVER
 246:.\Generated_Source\PSoC4/CYBLE_eventHandler.c ****     if(((cyBle_eventHandlerFlag & CYBLE_CALLBACK) != 0u) && (gattErr == CYBLE_GATT_ERR_NONE))
 247:.\Generated_Source\PSoC4/CYBLE_eventHandler.c ****     {
 248:.\Generated_Source\PSoC4/CYBLE_eventHandler.c ****         gattErr = CyBle_BassWriteEventHandler(eventParam);
 249:.\Generated_Source\PSoC4/CYBLE_eventHandler.c ****     }
 250:.\Generated_Source\PSoC4/CYBLE_eventHandler.c **** #endif /* CYBLE_BAS_SERVER */
 251:.\Generated_Source\PSoC4/CYBLE_eventHandler.c **** #ifdef CYBLE_BCS_SERVER
 252:.\Generated_Source\PSoC4/CYBLE_eventHandler.c ****     if(((cyBle_eventHandlerFlag & CYBLE_CALLBACK) != 0u) && (gattErr == CYBLE_GATT_ERR_NONE))
 253:.\Generated_Source\PSoC4/CYBLE_eventHandler.c ****     {
 254:.\Generated_Source\PSoC4/CYBLE_eventHandler.c ****         gattErr = CyBle_BcssWriteEventHandler(eventParam);
 255:.\Generated_Source\PSoC4/CYBLE_eventHandler.c ****     }
 256:.\Generated_Source\PSoC4/CYBLE_eventHandler.c **** #endif /* CYBLE_BCS_SERVER */
 257:.\Generated_Source\PSoC4/CYBLE_eventHandler.c **** #ifdef CYBLE_BLS_SERVER
 258:.\Generated_Source\PSoC4/CYBLE_eventHandler.c ****     if(((cyBle_eventHandlerFlag & CYBLE_CALLBACK) != 0u) && (gattErr == CYBLE_GATT_ERR_NONE))
 259:.\Generated_Source\PSoC4/CYBLE_eventHandler.c ****     {
 260:.\Generated_Source\PSoC4/CYBLE_eventHandler.c ****         gattErr = CyBle_BlssWriteEventHandler(eventParam);
 261:.\Generated_Source\PSoC4/CYBLE_eventHandler.c ****     }
 262:.\Generated_Source\PSoC4/CYBLE_eventHandler.c **** #endif /* CYBLE_BLS_SERVER */
 263:.\Generated_Source\PSoC4/CYBLE_eventHandler.c **** #ifdef CYBLE_BMS_SERVER
 264:.\Generated_Source\PSoC4/CYBLE_eventHandler.c ****     if(((cyBle_eventHandlerFlag & CYBLE_CALLBACK) != 0u) && (gattErr == CYBLE_GATT_ERR_NONE))
 265:.\Generated_Source\PSoC4/CYBLE_eventHandler.c ****     {
 266:.\Generated_Source\PSoC4/CYBLE_eventHandler.c ****         gattErr = CyBle_BmssWriteEventHandler(eventParam);
 267:.\Generated_Source\PSoC4/CYBLE_eventHandler.c ****     }
 268:.\Generated_Source\PSoC4/CYBLE_eventHandler.c **** #endif /* CYBLE_BMS_SERVER */
 269:.\Generated_Source\PSoC4/CYBLE_eventHandler.c **** #ifdef CYBLE_BTS_SERVER
 270:.\Generated_Source\PSoC4/CYBLE_eventHandler.c ****     if((cyBle_eventHandlerFlag & CYBLE_CALLBACK) != 0u)
 271:.\Generated_Source\PSoC4/CYBLE_eventHandler.c ****     {
 272:.\Generated_Source\PSoC4/CYBLE_eventHandler.c ****         gattErr = CyBle_BtsWriteEventHandler(eventParam);
 273:.\Generated_Source\PSoC4/CYBLE_eventHandler.c ****     }
 274:.\Generated_Source\PSoC4/CYBLE_eventHandler.c **** #endif /* CYBLE_BTS_SERVER */
 275:.\Generated_Source\PSoC4/CYBLE_eventHandler.c **** #ifdef CYBLE_CGMS_SERVER
 276:.\Generated_Source\PSoC4/CYBLE_eventHandler.c ****     if(((cyBle_eventHandlerFlag & CYBLE_CALLBACK) != 0u) && (gattErr == CYBLE_GATT_ERR_NONE))
 277:.\Generated_Source\PSoC4/CYBLE_eventHandler.c ****     {
 278:.\Generated_Source\PSoC4/CYBLE_eventHandler.c ****         gattErr = CyBle_CgmssWriteEventHandler(eventParam);
 279:.\Generated_Source\PSoC4/CYBLE_eventHandler.c ****     }
 280:.\Generated_Source\PSoC4/CYBLE_eventHandler.c **** #endif /* CYBLE_CGMS_SERVER */
 281:.\Generated_Source\PSoC4/CYBLE_eventHandler.c **** #ifdef CYBLE_CPS_SERVER
 282:.\Generated_Source\PSoC4/CYBLE_eventHandler.c ****     if(((cyBle_eventHandlerFlag & CYBLE_CALLBACK) != 0u) && (gattErr == CYBLE_GATT_ERR_NONE))
 283:.\Generated_Source\PSoC4/CYBLE_eventHandler.c ****     {
ARM GAS  C:\Users\igreg\AppData\Local\Temp\ccnO9ZHN.s 			page 7


 284:.\Generated_Source\PSoC4/CYBLE_eventHandler.c ****         gattErr = CyBle_CpssWriteEventHandler(eventParam);
 285:.\Generated_Source\PSoC4/CYBLE_eventHandler.c ****     }
 286:.\Generated_Source\PSoC4/CYBLE_eventHandler.c **** #endif /* CYBLE_CPS_SERVER */
 287:.\Generated_Source\PSoC4/CYBLE_eventHandler.c **** #ifdef CYBLE_CSCS_SERVER
 288:.\Generated_Source\PSoC4/CYBLE_eventHandler.c ****     if(((cyBle_eventHandlerFlag & CYBLE_CALLBACK) != 0u) && (gattErr == CYBLE_GATT_ERR_NONE))
 289:.\Generated_Source\PSoC4/CYBLE_eventHandler.c ****     {
 290:.\Generated_Source\PSoC4/CYBLE_eventHandler.c ****         gattErr = CyBle_CscssWriteEventHandler(eventParam);
 291:.\Generated_Source\PSoC4/CYBLE_eventHandler.c ****     }
 292:.\Generated_Source\PSoC4/CYBLE_eventHandler.c **** #endif /* CYBLE_CSCS_SERVER */
 293:.\Generated_Source\PSoC4/CYBLE_eventHandler.c **** #ifdef CYBLE_CTS_SERVER
 294:.\Generated_Source\PSoC4/CYBLE_eventHandler.c ****     if(((cyBle_eventHandlerFlag & CYBLE_CALLBACK) != 0u) && (gattErr == CYBLE_GATT_ERR_NONE))
 295:.\Generated_Source\PSoC4/CYBLE_eventHandler.c ****     {
 296:.\Generated_Source\PSoC4/CYBLE_eventHandler.c ****         gattErr = CyBle_CtssWriteEventHandler(eventParam);
 297:.\Generated_Source\PSoC4/CYBLE_eventHandler.c ****     }
 298:.\Generated_Source\PSoC4/CYBLE_eventHandler.c **** #endif /* CYBLE_CTS_SERVER */
 299:.\Generated_Source\PSoC4/CYBLE_eventHandler.c **** #ifdef CYBLE_ESS_SERVER
 300:.\Generated_Source\PSoC4/CYBLE_eventHandler.c ****     if(((cyBle_eventHandlerFlag & CYBLE_CALLBACK) != 0u) && (gattErr == CYBLE_GATT_ERR_NONE))
 301:.\Generated_Source\PSoC4/CYBLE_eventHandler.c ****     {
 302:.\Generated_Source\PSoC4/CYBLE_eventHandler.c ****         gattErr = CyBle_EsssWriteEventHandler(eventParam);
 303:.\Generated_Source\PSoC4/CYBLE_eventHandler.c ****     }
 304:.\Generated_Source\PSoC4/CYBLE_eventHandler.c **** #endif /* CYBLE_ESS_SERVER */
 305:.\Generated_Source\PSoC4/CYBLE_eventHandler.c **** #ifdef CYBLE_GLS_SERVER
 306:.\Generated_Source\PSoC4/CYBLE_eventHandler.c ****     if(((cyBle_eventHandlerFlag & CYBLE_CALLBACK) != 0u) && (gattErr == CYBLE_GATT_ERR_NONE))
 307:.\Generated_Source\PSoC4/CYBLE_eventHandler.c ****     {
 308:.\Generated_Source\PSoC4/CYBLE_eventHandler.c ****         gattErr = CyBle_GlssWriteEventHandler(eventParam);
 309:.\Generated_Source\PSoC4/CYBLE_eventHandler.c ****     }
 310:.\Generated_Source\PSoC4/CYBLE_eventHandler.c **** #endif /* CYBLE_GLS_SERVER */
 311:.\Generated_Source\PSoC4/CYBLE_eventHandler.c **** #ifdef CYBLE_HIDS_SERVER
 312:.\Generated_Source\PSoC4/CYBLE_eventHandler.c ****     if(((cyBle_eventHandlerFlag & CYBLE_CALLBACK) != 0u) && (gattErr == CYBLE_GATT_ERR_NONE))
 313:.\Generated_Source\PSoC4/CYBLE_eventHandler.c ****     {
 314:.\Generated_Source\PSoC4/CYBLE_eventHandler.c ****         gattErr = CyBle_HidssWriteEventHandler(eventParam);
 315:.\Generated_Source\PSoC4/CYBLE_eventHandler.c ****     }
 316:.\Generated_Source\PSoC4/CYBLE_eventHandler.c **** #endif /* CYBLE_HIDS_SERVER */
 317:.\Generated_Source\PSoC4/CYBLE_eventHandler.c **** #ifdef CYBLE_HPS_SERVER
 318:.\Generated_Source\PSoC4/CYBLE_eventHandler.c ****     if(((cyBle_eventHandlerFlag & CYBLE_CALLBACK) != 0u) && (gattErr == CYBLE_GATT_ERR_NONE))
 319:.\Generated_Source\PSoC4/CYBLE_eventHandler.c ****     {
 320:.\Generated_Source\PSoC4/CYBLE_eventHandler.c ****         gattErr = CyBle_HpssWriteEventHandler(eventParam);
 321:.\Generated_Source\PSoC4/CYBLE_eventHandler.c ****     }
 322:.\Generated_Source\PSoC4/CYBLE_eventHandler.c **** #endif /* CYBLE_HPS_SERVER */
 323:.\Generated_Source\PSoC4/CYBLE_eventHandler.c **** #ifdef CYBLE_HRS_SERVER
 324:.\Generated_Source\PSoC4/CYBLE_eventHandler.c ****     if(((cyBle_eventHandlerFlag & CYBLE_CALLBACK) != 0u) && (gattErr == CYBLE_GATT_ERR_NONE))
  60              		.loc 1 324 0
  61 0018 1E4B     		ldr	r3, .L5
  62 001a 1B78     		ldrb	r3, [r3]
  63 001c DBB2     		uxtb	r3, r3
  64 001e 1A1C     		mov	r2, r3
  65 0020 0123     		mov	r3, #1
  66 0022 1340     		and	r3, r2
  67 0024 0CD0     		beq	.L2
  68              		.loc 1 324 0 is_stmt 0 discriminator 1
  69 0026 0F23     		mov	r3, #15
  70 0028 FB18     		add	r3, r7, r3
  71 002a 1B78     		ldrb	r3, [r3]
  72 002c 002B     		cmp	r3, #0
  73 002e 07D1     		bne	.L2
 325:.\Generated_Source\PSoC4/CYBLE_eventHandler.c ****     {
 326:.\Generated_Source\PSoC4/CYBLE_eventHandler.c ****         gattErr = CyBle_HrssWriteEventHandler(eventParam);
ARM GAS  C:\Users\igreg\AppData\Local\Temp\ccnO9ZHN.s 			page 8


  74              		.loc 1 326 0 is_stmt 1
  75 0030 0F23     		mov	r3, #15
  76 0032 FC18     		add	r4, r7, r3
  77 0034 7B68     		ldr	r3, [r7, #4]
  78 0036 181C     		mov	r0, r3
  79 0038 FFF7FEFF 		bl	CyBle_HrssWriteEventHandler
  80 003c 031C     		mov	r3, r0
  81 003e 2370     		strb	r3, [r4]
  82              	.L2:
 327:.\Generated_Source\PSoC4/CYBLE_eventHandler.c ****     }
 328:.\Generated_Source\PSoC4/CYBLE_eventHandler.c **** #endif /* CYBLE_HRS_SERVER */
 329:.\Generated_Source\PSoC4/CYBLE_eventHandler.c **** #ifdef CYBLE_HTS_SERVER
 330:.\Generated_Source\PSoC4/CYBLE_eventHandler.c ****     if(((cyBle_eventHandlerFlag & CYBLE_CALLBACK) != 0u) && (gattErr == CYBLE_GATT_ERR_NONE))
 331:.\Generated_Source\PSoC4/CYBLE_eventHandler.c ****     {
 332:.\Generated_Source\PSoC4/CYBLE_eventHandler.c ****         gattErr = CyBle_HtssWriteEventHandler(eventParam);
 333:.\Generated_Source\PSoC4/CYBLE_eventHandler.c ****     }
 334:.\Generated_Source\PSoC4/CYBLE_eventHandler.c **** #endif /* CYBLE_HTS_SERVER */
 335:.\Generated_Source\PSoC4/CYBLE_eventHandler.c **** #ifdef CYBLE_LLS_SERVER
 336:.\Generated_Source\PSoC4/CYBLE_eventHandler.c ****     if(((cyBle_eventHandlerFlag & CYBLE_CALLBACK) != 0u) && (gattErr == CYBLE_GATT_ERR_NONE))
 337:.\Generated_Source\PSoC4/CYBLE_eventHandler.c ****     {
 338:.\Generated_Source\PSoC4/CYBLE_eventHandler.c ****         gattErr = CyBle_LlssWriteEventHandler(eventParam);
 339:.\Generated_Source\PSoC4/CYBLE_eventHandler.c ****     }
 340:.\Generated_Source\PSoC4/CYBLE_eventHandler.c **** #endif /* CYBLE_LLS_SERVER */
 341:.\Generated_Source\PSoC4/CYBLE_eventHandler.c **** #ifdef CYBLE_LNS_SERVER
 342:.\Generated_Source\PSoC4/CYBLE_eventHandler.c ****     if(((cyBle_eventHandlerFlag & CYBLE_CALLBACK) != 0u) && (gattErr == CYBLE_GATT_ERR_NONE))
 343:.\Generated_Source\PSoC4/CYBLE_eventHandler.c ****     {
 344:.\Generated_Source\PSoC4/CYBLE_eventHandler.c ****         gattErr = CyBle_LnssWriteEventHandler(eventParam);
 345:.\Generated_Source\PSoC4/CYBLE_eventHandler.c ****     }
 346:.\Generated_Source\PSoC4/CYBLE_eventHandler.c **** #endif /* CYBLE_LNS_SERVER */
 347:.\Generated_Source\PSoC4/CYBLE_eventHandler.c **** #ifdef CYBLE_PASS_SERVER
 348:.\Generated_Source\PSoC4/CYBLE_eventHandler.c ****     if(((cyBle_eventHandlerFlag & CYBLE_CALLBACK) != 0u) && (gattErr == CYBLE_GATT_ERR_NONE))
 349:.\Generated_Source\PSoC4/CYBLE_eventHandler.c ****     {
 350:.\Generated_Source\PSoC4/CYBLE_eventHandler.c ****         gattErr = CyBle_PasssWriteEventHandler(eventParam);
 351:.\Generated_Source\PSoC4/CYBLE_eventHandler.c ****     }
 352:.\Generated_Source\PSoC4/CYBLE_eventHandler.c **** #endif /* CYBLE_PASS_SERVER */
 353:.\Generated_Source\PSoC4/CYBLE_eventHandler.c **** #ifdef CYBLE_RSCS_SERVER
 354:.\Generated_Source\PSoC4/CYBLE_eventHandler.c ****     if(((cyBle_eventHandlerFlag & CYBLE_CALLBACK) != 0u) && (gattErr == CYBLE_GATT_ERR_NONE))
 355:.\Generated_Source\PSoC4/CYBLE_eventHandler.c ****     {
 356:.\Generated_Source\PSoC4/CYBLE_eventHandler.c ****         gattErr = CyBle_RscssWriteEventHandler(eventParam);
 357:.\Generated_Source\PSoC4/CYBLE_eventHandler.c ****     }
 358:.\Generated_Source\PSoC4/CYBLE_eventHandler.c **** #endif /* CYBLE_RSCS_SERVER */
 359:.\Generated_Source\PSoC4/CYBLE_eventHandler.c **** #ifdef CYBLE_SCPS_SERVER
 360:.\Generated_Source\PSoC4/CYBLE_eventHandler.c ****     if(((cyBle_eventHandlerFlag & CYBLE_CALLBACK) != 0u) && (gattErr == CYBLE_GATT_ERR_NONE))
 361:.\Generated_Source\PSoC4/CYBLE_eventHandler.c ****     {
 362:.\Generated_Source\PSoC4/CYBLE_eventHandler.c ****         gattErr = CyBle_ScpssWriteEventHandler(eventParam);
 363:.\Generated_Source\PSoC4/CYBLE_eventHandler.c ****     }
 364:.\Generated_Source\PSoC4/CYBLE_eventHandler.c **** #endif /* CYBLE_SCPS_SERVER */
 365:.\Generated_Source\PSoC4/CYBLE_eventHandler.c **** #ifdef CYBLE_TPS_SERVER
 366:.\Generated_Source\PSoC4/CYBLE_eventHandler.c ****     if(((cyBle_eventHandlerFlag & CYBLE_CALLBACK) != 0u) && (gattErr == CYBLE_GATT_ERR_NONE))
 367:.\Generated_Source\PSoC4/CYBLE_eventHandler.c ****     {
 368:.\Generated_Source\PSoC4/CYBLE_eventHandler.c ****         gattErr = CyBle_TpssWriteEventHandler(eventParam);
 369:.\Generated_Source\PSoC4/CYBLE_eventHandler.c ****     }
 370:.\Generated_Source\PSoC4/CYBLE_eventHandler.c **** #endif /* CYBLE_TPS_SERVER */
 371:.\Generated_Source\PSoC4/CYBLE_eventHandler.c **** #ifdef CYBLE_UDS_SERVER
 372:.\Generated_Source\PSoC4/CYBLE_eventHandler.c ****     if(((cyBle_eventHandlerFlag & CYBLE_CALLBACK) != 0u) && (gattErr == CYBLE_GATT_ERR_NONE))
 373:.\Generated_Source\PSoC4/CYBLE_eventHandler.c ****     {
 374:.\Generated_Source\PSoC4/CYBLE_eventHandler.c ****         gattErr = CyBle_UdssWriteEventHandler(eventParam);
ARM GAS  C:\Users\igreg\AppData\Local\Temp\ccnO9ZHN.s 			page 9


 375:.\Generated_Source\PSoC4/CYBLE_eventHandler.c ****     }
 376:.\Generated_Source\PSoC4/CYBLE_eventHandler.c **** #endif /* CYBLE_UDS_SERVER */
 377:.\Generated_Source\PSoC4/CYBLE_eventHandler.c **** #ifdef CYBLE_WPTS_SERVER
 378:.\Generated_Source\PSoC4/CYBLE_eventHandler.c ****     if(((cyBle_eventHandlerFlag & CYBLE_CALLBACK) != 0u) && (gattErr == CYBLE_GATT_ERR_NONE))
 379:.\Generated_Source\PSoC4/CYBLE_eventHandler.c ****     {
 380:.\Generated_Source\PSoC4/CYBLE_eventHandler.c ****         gattErr = CyBle_WptssWriteEventHandler(eventParam);
 381:.\Generated_Source\PSoC4/CYBLE_eventHandler.c ****     }
 382:.\Generated_Source\PSoC4/CYBLE_eventHandler.c **** #endif /* CYBLE_WPTS_SERVER */
 383:.\Generated_Source\PSoC4/CYBLE_eventHandler.c **** #ifdef CYBLE_WSS_SERVER
 384:.\Generated_Source\PSoC4/CYBLE_eventHandler.c ****     if(((cyBle_eventHandlerFlag & CYBLE_CALLBACK) != 0u) && (gattErr == CYBLE_GATT_ERR_NONE))
 385:.\Generated_Source\PSoC4/CYBLE_eventHandler.c ****     {
 386:.\Generated_Source\PSoC4/CYBLE_eventHandler.c ****         gattErr = CyBle_WsssWriteEventHandler(eventParam);
 387:.\Generated_Source\PSoC4/CYBLE_eventHandler.c ****     }
 388:.\Generated_Source\PSoC4/CYBLE_eventHandler.c **** #endif /* CYBLE_WSS_SERVER */
 389:.\Generated_Source\PSoC4/CYBLE_eventHandler.c **** 
 390:.\Generated_Source\PSoC4/CYBLE_eventHandler.c ****     /* Send response when event was handled by service */
 391:.\Generated_Source\PSoC4/CYBLE_eventHandler.c ****     if((cyBle_eventHandlerFlag & CYBLE_CALLBACK) == 0u)
  83              		.loc 1 391 0
  84 0040 144B     		ldr	r3, .L5
  85 0042 1B78     		ldrb	r3, [r3]
  86 0044 DBB2     		uxtb	r3, r3
  87 0046 1A1C     		mov	r2, r3
  88 0048 0123     		mov	r3, #1
  89 004a 1340     		and	r3, r2
  90 004c 1FD1     		bne	.L1
 392:.\Generated_Source\PSoC4/CYBLE_eventHandler.c ****     {
 393:.\Generated_Source\PSoC4/CYBLE_eventHandler.c ****         if(gattErr != CYBLE_GATT_ERR_NONE)
  91              		.loc 1 393 0
  92 004e 0F23     		mov	r3, #15
  93 0050 FB18     		add	r3, r7, r3
  94 0052 1B78     		ldrb	r3, [r3]
  95 0054 002B     		cmp	r3, #0
  96 0056 16D0     		beq	.L4
  97              	.LBB2:
 394:.\Generated_Source\PSoC4/CYBLE_eventHandler.c ****         {
 395:.\Generated_Source\PSoC4/CYBLE_eventHandler.c ****             CYBLE_GATTS_ERR_PARAM_T err_param;
 396:.\Generated_Source\PSoC4/CYBLE_eventHandler.c ****             
 397:.\Generated_Source\PSoC4/CYBLE_eventHandler.c ****             err_param.opcode = (uint8) CYBLE_GATT_WRITE_REQ;
  98              		.loc 1 397 0
  99 0058 0823     		mov	r3, #8
 100 005a FB18     		add	r3, r7, r3
 101 005c 1222     		mov	r2, #18
 102 005e 9A70     		strb	r2, [r3, #2]
 398:.\Generated_Source\PSoC4/CYBLE_eventHandler.c ****             err_param.attrHandle = eventParam->handleValPair.attrHandle;
 103              		.loc 1 398 0
 104 0060 7B68     		ldr	r3, [r7, #4]
 105 0062 9A89     		ldrh	r2, [r3, #12]
 106 0064 0823     		mov	r3, #8
 107 0066 FB18     		add	r3, r7, r3
 108 0068 1A80     		strh	r2, [r3]
 399:.\Generated_Source\PSoC4/CYBLE_eventHandler.c ****             err_param.errorCode = gattErr;
 109              		.loc 1 399 0
 110 006a 0823     		mov	r3, #8
 111 006c FB18     		add	r3, r7, r3
 112 006e 0F22     		mov	r2, #15
 113 0070 BA18     		add	r2, r7, r2
 114 0072 1278     		ldrb	r2, [r2]
ARM GAS  C:\Users\igreg\AppData\Local\Temp\ccnO9ZHN.s 			page 10


 115 0074 DA70     		strb	r2, [r3, #3]
 400:.\Generated_Source\PSoC4/CYBLE_eventHandler.c **** 
 401:.\Generated_Source\PSoC4/CYBLE_eventHandler.c ****             /* Send Error Response */
 402:.\Generated_Source\PSoC4/CYBLE_eventHandler.c ****             (void)CyBle_GattsErrorRsp(eventParam->connHandle, &err_param);
 116              		.loc 1 402 0
 117 0076 7B68     		ldr	r3, [r7, #4]
 118 0078 0822     		mov	r2, #8
 119 007a BA18     		add	r2, r7, r2
 120 007c 1868     		ldr	r0, [r3]
 121 007e 111C     		mov	r1, r2
 122 0080 FFF7FEFF 		bl	CyBle_GattsErrorRsp
 123              	.LBE2:
 124 0084 03E0     		b	.L1
 125              	.L4:
 403:.\Generated_Source\PSoC4/CYBLE_eventHandler.c ****         }
 404:.\Generated_Source\PSoC4/CYBLE_eventHandler.c ****         else
 405:.\Generated_Source\PSoC4/CYBLE_eventHandler.c ****         {
 406:.\Generated_Source\PSoC4/CYBLE_eventHandler.c ****             (void)CyBle_GattsWriteRsp(eventParam->connHandle);
 126              		.loc 1 406 0
 127 0086 7B68     		ldr	r3, [r7, #4]
 128 0088 1868     		ldr	r0, [r3]
 129 008a FFF7FEFF 		bl	CyBle_GattsWriteRsp
 130              	.L1:
 407:.\Generated_Source\PSoC4/CYBLE_eventHandler.c ****         }
 408:.\Generated_Source\PSoC4/CYBLE_eventHandler.c ****     }
 409:.\Generated_Source\PSoC4/CYBLE_eventHandler.c **** }
 131              		.loc 1 409 0
 132 008e BD46     		mov	sp, r7
 133 0090 05B0     		add	sp, sp, #20
 134              		@ sp needed
 135 0092 90BD     		pop	{r4, r7, pc}
 136              	.L6:
 137              		.align	2
 138              	.L5:
 139 0094 00000000 		.word	cyBle_eventHandlerFlag
 140              		.cfi_endproc
 141              	.LFE2:
 142              		.size	CyBle_WriteReqHandler, .-CyBle_WriteReqHandler
 143              		.section	.text.CyBle_ValueConfirmation,"ax",%progbits
 144              		.align	2
 145              		.code	16
 146              		.thumb_func
 147              		.type	CyBle_ValueConfirmation, %function
 148              	CyBle_ValueConfirmation:
 149              	.LFB3:
 410:.\Generated_Source\PSoC4/CYBLE_eventHandler.c **** 
 411:.\Generated_Source\PSoC4/CYBLE_eventHandler.c **** 
 412:.\Generated_Source\PSoC4/CYBLE_eventHandler.c **** /****************************************************************************** 
 413:.\Generated_Source\PSoC4/CYBLE_eventHandler.c **** * Function Name: CyBle_ValueConfirmation
 414:.\Generated_Source\PSoC4/CYBLE_eventHandler.c **** ***************************************************************************//**
 415:.\Generated_Source\PSoC4/CYBLE_eventHandler.c **** * 
 416:.\Generated_Source\PSoC4/CYBLE_eventHandler.c **** *  Handles the Value Confirmation request event from the BLE stack.
 417:.\Generated_Source\PSoC4/CYBLE_eventHandler.c **** * 
 418:.\Generated_Source\PSoC4/CYBLE_eventHandler.c **** *  \param eventParam: Pointer to a structure of type 'CYBLE_CONN_HANDLE_T'
 419:.\Generated_Source\PSoC4/CYBLE_eventHandler.c **** * 
 420:.\Generated_Source\PSoC4/CYBLE_eventHandler.c **** * \return
 421:.\Generated_Source\PSoC4/CYBLE_eventHandler.c **** *  None
ARM GAS  C:\Users\igreg\AppData\Local\Temp\ccnO9ZHN.s 			page 11


 422:.\Generated_Source\PSoC4/CYBLE_eventHandler.c **** * 
 423:.\Generated_Source\PSoC4/CYBLE_eventHandler.c **** ******************************************************************************/
 424:.\Generated_Source\PSoC4/CYBLE_eventHandler.c **** static void CyBle_ValueConfirmation(const CYBLE_CONN_HANDLE_T *eventParam)
 425:.\Generated_Source\PSoC4/CYBLE_eventHandler.c **** {
 150              		.loc 1 425 0
 151              		.cfi_startproc
 152 0000 80B5     		push	{r7, lr}
 153              		.cfi_def_cfa_offset 8
 154              		.cfi_offset 7, -8
 155              		.cfi_offset 14, -4
 156 0002 82B0     		sub	sp, sp, #8
 157              		.cfi_def_cfa_offset 16
 158 0004 00AF     		add	r7, sp, #0
 159              		.cfi_def_cfa_register 7
 160 0006 7860     		str	r0, [r7, #4]
 426:.\Generated_Source\PSoC4/CYBLE_eventHandler.c ****     if(eventParam != NULL)
 427:.\Generated_Source\PSoC4/CYBLE_eventHandler.c ****     {
 428:.\Generated_Source\PSoC4/CYBLE_eventHandler.c ****     #ifdef CYBLE_BCS_SERVER
 429:.\Generated_Source\PSoC4/CYBLE_eventHandler.c ****         CyBle_BcssConfirmationEventHandler(eventParam);
 430:.\Generated_Source\PSoC4/CYBLE_eventHandler.c ****     #endif /* CYBLE_BCS_SERVER */
 431:.\Generated_Source\PSoC4/CYBLE_eventHandler.c ****     #ifdef CYBLE_BLS_SERVER
 432:.\Generated_Source\PSoC4/CYBLE_eventHandler.c ****         if((cyBle_eventHandlerFlag & CYBLE_CALLBACK) != 0u)
 433:.\Generated_Source\PSoC4/CYBLE_eventHandler.c ****         {
 434:.\Generated_Source\PSoC4/CYBLE_eventHandler.c ****             CyBle_BlssConfirmationEventHandler(eventParam);
 435:.\Generated_Source\PSoC4/CYBLE_eventHandler.c ****         }
 436:.\Generated_Source\PSoC4/CYBLE_eventHandler.c ****     #endif /* CYBLE_BLS_SERVER */
 437:.\Generated_Source\PSoC4/CYBLE_eventHandler.c ****     
 438:.\Generated_Source\PSoC4/CYBLE_eventHandler.c ****     #ifdef CYBLE_CGMS_SERVER
 439:.\Generated_Source\PSoC4/CYBLE_eventHandler.c ****         if((cyBle_eventHandlerFlag & CYBLE_CALLBACK) != 0u)
 440:.\Generated_Source\PSoC4/CYBLE_eventHandler.c ****         {
 441:.\Generated_Source\PSoC4/CYBLE_eventHandler.c ****             CyBle_CgmssConfirmationEventHandler(eventParam);
 442:.\Generated_Source\PSoC4/CYBLE_eventHandler.c ****         }
 443:.\Generated_Source\PSoC4/CYBLE_eventHandler.c ****     #endif /* CYBLE_CGMS_SERVER */
 444:.\Generated_Source\PSoC4/CYBLE_eventHandler.c ****     
 445:.\Generated_Source\PSoC4/CYBLE_eventHandler.c ****     #ifdef CYBLE_CPS_SERVER
 446:.\Generated_Source\PSoC4/CYBLE_eventHandler.c ****         if((cyBle_eventHandlerFlag & CYBLE_CALLBACK) != 0u)
 447:.\Generated_Source\PSoC4/CYBLE_eventHandler.c ****         {
 448:.\Generated_Source\PSoC4/CYBLE_eventHandler.c ****             CyBle_CpssConfirmationEventHandler(eventParam);
 449:.\Generated_Source\PSoC4/CYBLE_eventHandler.c ****         }
 450:.\Generated_Source\PSoC4/CYBLE_eventHandler.c ****     #endif /* CYBLE_CPS_SERVER */
 451:.\Generated_Source\PSoC4/CYBLE_eventHandler.c ****     
 452:.\Generated_Source\PSoC4/CYBLE_eventHandler.c ****     #ifdef CYBLE_CSCS_SERVER
 453:.\Generated_Source\PSoC4/CYBLE_eventHandler.c ****         if((cyBle_eventHandlerFlag & CYBLE_CALLBACK) != 0u)
 454:.\Generated_Source\PSoC4/CYBLE_eventHandler.c ****         {
 455:.\Generated_Source\PSoC4/CYBLE_eventHandler.c ****             CyBle_CscssConfirmationEventHandler(eventParam);
 456:.\Generated_Source\PSoC4/CYBLE_eventHandler.c ****         }
 457:.\Generated_Source\PSoC4/CYBLE_eventHandler.c ****     #endif /* CYBLE_CSCS_SERVER */
 458:.\Generated_Source\PSoC4/CYBLE_eventHandler.c ****     
 459:.\Generated_Source\PSoC4/CYBLE_eventHandler.c ****     #ifdef CYBLE_ESS_SERVER
 460:.\Generated_Source\PSoC4/CYBLE_eventHandler.c ****         if((cyBle_eventHandlerFlag & CYBLE_CALLBACK) != 0u)
 461:.\Generated_Source\PSoC4/CYBLE_eventHandler.c ****         {
 462:.\Generated_Source\PSoC4/CYBLE_eventHandler.c ****             CyBle_EsssConfirmationEventHandler(eventParam);
 463:.\Generated_Source\PSoC4/CYBLE_eventHandler.c ****         }
 464:.\Generated_Source\PSoC4/CYBLE_eventHandler.c ****     #endif /* CYBLE_ESS_SERVER */
 465:.\Generated_Source\PSoC4/CYBLE_eventHandler.c ****     
 466:.\Generated_Source\PSoC4/CYBLE_eventHandler.c ****     #ifdef CYBLE_GLS_SERVER
 467:.\Generated_Source\PSoC4/CYBLE_eventHandler.c ****         if((cyBle_eventHandlerFlag & CYBLE_CALLBACK) != 0u)
ARM GAS  C:\Users\igreg\AppData\Local\Temp\ccnO9ZHN.s 			page 12


 468:.\Generated_Source\PSoC4/CYBLE_eventHandler.c ****         {
 469:.\Generated_Source\PSoC4/CYBLE_eventHandler.c ****             CyBle_GlssConfirmationEventHandler(eventParam);
 470:.\Generated_Source\PSoC4/CYBLE_eventHandler.c ****         }
 471:.\Generated_Source\PSoC4/CYBLE_eventHandler.c ****     #endif /* CYBLE_GLS_SERVER */
 472:.\Generated_Source\PSoC4/CYBLE_eventHandler.c ****     
 473:.\Generated_Source\PSoC4/CYBLE_eventHandler.c ****     #ifdef CYBLE_HTS_SERVER
 474:.\Generated_Source\PSoC4/CYBLE_eventHandler.c ****         if((cyBle_eventHandlerFlag & CYBLE_CALLBACK) != 0u)
 475:.\Generated_Source\PSoC4/CYBLE_eventHandler.c ****         {
 476:.\Generated_Source\PSoC4/CYBLE_eventHandler.c ****             CyBle_HtssConfirmationEventHandler(eventParam);
 477:.\Generated_Source\PSoC4/CYBLE_eventHandler.c ****         }
 478:.\Generated_Source\PSoC4/CYBLE_eventHandler.c ****     #endif /* CYBLE_HTS_SERVER */
 479:.\Generated_Source\PSoC4/CYBLE_eventHandler.c **** 
 480:.\Generated_Source\PSoC4/CYBLE_eventHandler.c ****     #ifdef CYBLE_LNS_SERVER
 481:.\Generated_Source\PSoC4/CYBLE_eventHandler.c ****         if((cyBle_eventHandlerFlag & CYBLE_CALLBACK) != 0u)
 482:.\Generated_Source\PSoC4/CYBLE_eventHandler.c ****         {
 483:.\Generated_Source\PSoC4/CYBLE_eventHandler.c ****             CyBle_LnssConfirmationEventHandler(eventParam);
 484:.\Generated_Source\PSoC4/CYBLE_eventHandler.c ****         }
 485:.\Generated_Source\PSoC4/CYBLE_eventHandler.c ****     #endif /* CYBLE_LNS_SERVER */
 486:.\Generated_Source\PSoC4/CYBLE_eventHandler.c ****     
 487:.\Generated_Source\PSoC4/CYBLE_eventHandler.c ****     #ifdef CYBLE_RSCS_SERVER
 488:.\Generated_Source\PSoC4/CYBLE_eventHandler.c ****         if((cyBle_eventHandlerFlag & CYBLE_CALLBACK) != 0u)
 489:.\Generated_Source\PSoC4/CYBLE_eventHandler.c ****         {
 490:.\Generated_Source\PSoC4/CYBLE_eventHandler.c ****             CyBle_RscssConfirmationEventHandler(eventParam);
 491:.\Generated_Source\PSoC4/CYBLE_eventHandler.c ****         }
 492:.\Generated_Source\PSoC4/CYBLE_eventHandler.c ****     #endif /* CYBLE_RSCS_SERVER */
 493:.\Generated_Source\PSoC4/CYBLE_eventHandler.c ****     
 494:.\Generated_Source\PSoC4/CYBLE_eventHandler.c ****     #ifdef CYBLE_UDS_SERVER
 495:.\Generated_Source\PSoC4/CYBLE_eventHandler.c ****         if((cyBle_eventHandlerFlag & CYBLE_CALLBACK) != 0u)
 496:.\Generated_Source\PSoC4/CYBLE_eventHandler.c ****         {
 497:.\Generated_Source\PSoC4/CYBLE_eventHandler.c ****             CyBle_UdssConfirmationEventHandler(eventParam);
 498:.\Generated_Source\PSoC4/CYBLE_eventHandler.c ****         }
 499:.\Generated_Source\PSoC4/CYBLE_eventHandler.c ****     #endif /* CYBLE_UDS_SERVER */
 500:.\Generated_Source\PSoC4/CYBLE_eventHandler.c ****     
 501:.\Generated_Source\PSoC4/CYBLE_eventHandler.c ****     #ifdef CYBLE_WPTS_SERVER
 502:.\Generated_Source\PSoC4/CYBLE_eventHandler.c ****         if((cyBle_eventHandlerFlag & CYBLE_CALLBACK) != 0u)
 503:.\Generated_Source\PSoC4/CYBLE_eventHandler.c ****         {
 504:.\Generated_Source\PSoC4/CYBLE_eventHandler.c ****             CyBle_WptssConfirmationEventHandler(eventParam);
 505:.\Generated_Source\PSoC4/CYBLE_eventHandler.c ****         }
 506:.\Generated_Source\PSoC4/CYBLE_eventHandler.c ****     #endif /* CYBLE_WPTS_SERVER */
 507:.\Generated_Source\PSoC4/CYBLE_eventHandler.c ****     
 508:.\Generated_Source\PSoC4/CYBLE_eventHandler.c ****     #ifdef CYBLE_WSS_SERVER
 509:.\Generated_Source\PSoC4/CYBLE_eventHandler.c ****         if((cyBle_eventHandlerFlag & CYBLE_CALLBACK) != 0u)
 510:.\Generated_Source\PSoC4/CYBLE_eventHandler.c ****         {
 511:.\Generated_Source\PSoC4/CYBLE_eventHandler.c ****             CyBle_WsssConfirmationEventHandler(eventParam);
 512:.\Generated_Source\PSoC4/CYBLE_eventHandler.c ****         }
 513:.\Generated_Source\PSoC4/CYBLE_eventHandler.c ****     #endif /* CYBLE_WSS_SERVER */
 514:.\Generated_Source\PSoC4/CYBLE_eventHandler.c ****     }
 515:.\Generated_Source\PSoC4/CYBLE_eventHandler.c **** }
 161              		.loc 1 515 0
 162 0008 BD46     		mov	sp, r7
 163 000a 02B0     		add	sp, sp, #8
 164              		@ sp needed
 165 000c 80BD     		pop	{r7, pc}
 166              		.cfi_endproc
 167              	.LFE3:
 168              		.size	CyBle_ValueConfirmation, .-CyBle_ValueConfirmation
 169              		.section	.text.CyBle_GattDisconnectEventHandler,"ax",%progbits
ARM GAS  C:\Users\igreg\AppData\Local\Temp\ccnO9ZHN.s 			page 13


 170              		.align	2
 171              		.code	16
 172              		.thumb_func
 173              		.type	CyBle_GattDisconnectEventHandler, %function
 174              	CyBle_GattDisconnectEventHandler:
 175              	.LFB4:
 516:.\Generated_Source\PSoC4/CYBLE_eventHandler.c **** 
 517:.\Generated_Source\PSoC4/CYBLE_eventHandler.c **** #endif /* CYBLE_GATT_ROLE_SERVER */
 518:.\Generated_Source\PSoC4/CYBLE_eventHandler.c **** 
 519:.\Generated_Source\PSoC4/CYBLE_eventHandler.c **** 
 520:.\Generated_Source\PSoC4/CYBLE_eventHandler.c **** #if (CYBLE_GATT_ROLE_CLIENT)
 521:.\Generated_Source\PSoC4/CYBLE_eventHandler.c **** 
 522:.\Generated_Source\PSoC4/CYBLE_eventHandler.c **** /****************************************************************************** 
 523:.\Generated_Source\PSoC4/CYBLE_eventHandler.c **** * Function Name: CyBle_GattcWriteResponseEventHandler
 524:.\Generated_Source\PSoC4/CYBLE_eventHandler.c **** ***************************************************************************//**
 525:.\Generated_Source\PSoC4/CYBLE_eventHandler.c **** * 
 526:.\Generated_Source\PSoC4/CYBLE_eventHandler.c **** *  Handles the Write response event from the BLE stack.
 527:.\Generated_Source\PSoC4/CYBLE_eventHandler.c **** * 
 528:.\Generated_Source\PSoC4/CYBLE_eventHandler.c **** *  \param eventParam: Pointer to a structure of type 'CYBLE_CONN_HANDLE_T'
 529:.\Generated_Source\PSoC4/CYBLE_eventHandler.c **** * 
 530:.\Generated_Source\PSoC4/CYBLE_eventHandler.c **** * \return
 531:.\Generated_Source\PSoC4/CYBLE_eventHandler.c **** *  None
 532:.\Generated_Source\PSoC4/CYBLE_eventHandler.c **** * 
 533:.\Generated_Source\PSoC4/CYBLE_eventHandler.c **** ******************************************************************************/
 534:.\Generated_Source\PSoC4/CYBLE_eventHandler.c **** static void CyBle_GattcWriteResponseEventHandler(const CYBLE_CONN_HANDLE_T *eventParam)
 535:.\Generated_Source\PSoC4/CYBLE_eventHandler.c **** {
 536:.\Generated_Source\PSoC4/CYBLE_eventHandler.c **** #ifdef CYBLE_ANCS_CLIENT
 537:.\Generated_Source\PSoC4/CYBLE_eventHandler.c ****     CyBle_AncscWriteResponseEventHandler(eventParam);
 538:.\Generated_Source\PSoC4/CYBLE_eventHandler.c **** #endif /* CYBLE_ANCS_CLIENT */
 539:.\Generated_Source\PSoC4/CYBLE_eventHandler.c **** 
 540:.\Generated_Source\PSoC4/CYBLE_eventHandler.c **** #ifdef CYBLE_ANS_CLIENT
 541:.\Generated_Source\PSoC4/CYBLE_eventHandler.c ****     if((cyBle_eventHandlerFlag & CYBLE_CALLBACK) != 0u)
 542:.\Generated_Source\PSoC4/CYBLE_eventHandler.c ****     {
 543:.\Generated_Source\PSoC4/CYBLE_eventHandler.c ****         CyBle_AnscWriteResponseEventHandler(eventParam);
 544:.\Generated_Source\PSoC4/CYBLE_eventHandler.c ****     }
 545:.\Generated_Source\PSoC4/CYBLE_eventHandler.c **** #endif /* CYBLE_ANS_CLIENT */
 546:.\Generated_Source\PSoC4/CYBLE_eventHandler.c **** 
 547:.\Generated_Source\PSoC4/CYBLE_eventHandler.c **** #ifdef CYBLE_BAS_CLIENT
 548:.\Generated_Source\PSoC4/CYBLE_eventHandler.c ****     if((cyBle_eventHandlerFlag & CYBLE_CALLBACK) != 0u)
 549:.\Generated_Source\PSoC4/CYBLE_eventHandler.c ****     {
 550:.\Generated_Source\PSoC4/CYBLE_eventHandler.c ****         CyBle_BascWriteResponseEventHandler(eventParam);
 551:.\Generated_Source\PSoC4/CYBLE_eventHandler.c ****     }
 552:.\Generated_Source\PSoC4/CYBLE_eventHandler.c **** #endif /* CYBLE_BAS_CLIENT */
 553:.\Generated_Source\PSoC4/CYBLE_eventHandler.c **** 
 554:.\Generated_Source\PSoC4/CYBLE_eventHandler.c **** #ifdef CYBLE_BCS_CLIENT
 555:.\Generated_Source\PSoC4/CYBLE_eventHandler.c ****     if((cyBle_eventHandlerFlag & CYBLE_CALLBACK) != 0u)
 556:.\Generated_Source\PSoC4/CYBLE_eventHandler.c ****     {
 557:.\Generated_Source\PSoC4/CYBLE_eventHandler.c ****         CyBle_BcscWriteResponseEventHandler(eventParam);
 558:.\Generated_Source\PSoC4/CYBLE_eventHandler.c ****     }
 559:.\Generated_Source\PSoC4/CYBLE_eventHandler.c **** #endif /* CYBLE_BCS_CLIENT */
 560:.\Generated_Source\PSoC4/CYBLE_eventHandler.c **** 
 561:.\Generated_Source\PSoC4/CYBLE_eventHandler.c **** #ifdef CYBLE_BLS_CLIENT
 562:.\Generated_Source\PSoC4/CYBLE_eventHandler.c ****     if((cyBle_eventHandlerFlag & CYBLE_CALLBACK) != 0u)
 563:.\Generated_Source\PSoC4/CYBLE_eventHandler.c ****     {
 564:.\Generated_Source\PSoC4/CYBLE_eventHandler.c ****         CyBle_BlscWriteResponseEventHandler(eventParam);
 565:.\Generated_Source\PSoC4/CYBLE_eventHandler.c ****     }
 566:.\Generated_Source\PSoC4/CYBLE_eventHandler.c **** #endif /* CYBLE_BLS_CLIENT */
ARM GAS  C:\Users\igreg\AppData\Local\Temp\ccnO9ZHN.s 			page 14


 567:.\Generated_Source\PSoC4/CYBLE_eventHandler.c **** 
 568:.\Generated_Source\PSoC4/CYBLE_eventHandler.c **** #ifdef CYBLE_BMS_CLIENT
 569:.\Generated_Source\PSoC4/CYBLE_eventHandler.c ****     if((cyBle_eventHandlerFlag & CYBLE_CALLBACK) != 0u)
 570:.\Generated_Source\PSoC4/CYBLE_eventHandler.c ****     {
 571:.\Generated_Source\PSoC4/CYBLE_eventHandler.c ****         CyBle_BmscWriteResponseEventHandler(eventParam);
 572:.\Generated_Source\PSoC4/CYBLE_eventHandler.c ****     }
 573:.\Generated_Source\PSoC4/CYBLE_eventHandler.c **** #endif /* CYBLE_BMS_CLIENT */
 574:.\Generated_Source\PSoC4/CYBLE_eventHandler.c **** 
 575:.\Generated_Source\PSoC4/CYBLE_eventHandler.c **** #ifdef CYBLE_CGMS_CLIENT
 576:.\Generated_Source\PSoC4/CYBLE_eventHandler.c ****     if((cyBle_eventHandlerFlag & CYBLE_CALLBACK) != 0u)
 577:.\Generated_Source\PSoC4/CYBLE_eventHandler.c ****     {
 578:.\Generated_Source\PSoC4/CYBLE_eventHandler.c ****         CyBle_CgmscWriteResponseEventHandler(eventParam);
 579:.\Generated_Source\PSoC4/CYBLE_eventHandler.c ****     }
 580:.\Generated_Source\PSoC4/CYBLE_eventHandler.c **** #endif /* CYBLE_CGMS_CLIENT */
 581:.\Generated_Source\PSoC4/CYBLE_eventHandler.c **** 
 582:.\Generated_Source\PSoC4/CYBLE_eventHandler.c **** #ifdef CYBLE_CPS_CLIENT
 583:.\Generated_Source\PSoC4/CYBLE_eventHandler.c ****     if((cyBle_eventHandlerFlag & CYBLE_CALLBACK) != 0u)
 584:.\Generated_Source\PSoC4/CYBLE_eventHandler.c ****     {
 585:.\Generated_Source\PSoC4/CYBLE_eventHandler.c ****         CyBle_CpscWriteResponseEventHandler(eventParam);
 586:.\Generated_Source\PSoC4/CYBLE_eventHandler.c ****     }
 587:.\Generated_Source\PSoC4/CYBLE_eventHandler.c **** #endif /* CYBLE_CPS_CLIENT */
 588:.\Generated_Source\PSoC4/CYBLE_eventHandler.c **** 
 589:.\Generated_Source\PSoC4/CYBLE_eventHandler.c **** #ifdef CYBLE_CSCS_CLIENT
 590:.\Generated_Source\PSoC4/CYBLE_eventHandler.c ****     if((cyBle_eventHandlerFlag & CYBLE_CALLBACK) != 0u)
 591:.\Generated_Source\PSoC4/CYBLE_eventHandler.c ****     {
 592:.\Generated_Source\PSoC4/CYBLE_eventHandler.c ****         CyBle_CscscWriteResponseEventHandler(eventParam);
 593:.\Generated_Source\PSoC4/CYBLE_eventHandler.c ****     }
 594:.\Generated_Source\PSoC4/CYBLE_eventHandler.c **** #endif /* CYBLE_CSCS_CLIENT */
 595:.\Generated_Source\PSoC4/CYBLE_eventHandler.c **** 
 596:.\Generated_Source\PSoC4/CYBLE_eventHandler.c **** #ifdef CYBLE_CTS_CLIENT
 597:.\Generated_Source\PSoC4/CYBLE_eventHandler.c ****     if((cyBle_eventHandlerFlag & CYBLE_CALLBACK) != 0u)
 598:.\Generated_Source\PSoC4/CYBLE_eventHandler.c ****     {
 599:.\Generated_Source\PSoC4/CYBLE_eventHandler.c ****         CyBle_CtscWriteResponseEventHandler(eventParam);
 600:.\Generated_Source\PSoC4/CYBLE_eventHandler.c ****     }
 601:.\Generated_Source\PSoC4/CYBLE_eventHandler.c **** #endif /* CYBLE_CTS_CLIENT */
 602:.\Generated_Source\PSoC4/CYBLE_eventHandler.c **** 
 603:.\Generated_Source\PSoC4/CYBLE_eventHandler.c **** #ifdef CYBLE_ESS_CLIENT
 604:.\Generated_Source\PSoC4/CYBLE_eventHandler.c ****     if((cyBle_eventHandlerFlag & CYBLE_CALLBACK) != 0u)
 605:.\Generated_Source\PSoC4/CYBLE_eventHandler.c ****     {
 606:.\Generated_Source\PSoC4/CYBLE_eventHandler.c ****         CyBle_EsscWriteResponseEventHandler(eventParam);
 607:.\Generated_Source\PSoC4/CYBLE_eventHandler.c ****     }
 608:.\Generated_Source\PSoC4/CYBLE_eventHandler.c **** #endif /* CYBLE_ESS_CLIENT */
 609:.\Generated_Source\PSoC4/CYBLE_eventHandler.c **** 
 610:.\Generated_Source\PSoC4/CYBLE_eventHandler.c **** #ifdef CYBLE_GLS_CLIENT
 611:.\Generated_Source\PSoC4/CYBLE_eventHandler.c ****     if((cyBle_eventHandlerFlag & CYBLE_CALLBACK) != 0u)
 612:.\Generated_Source\PSoC4/CYBLE_eventHandler.c ****     {
 613:.\Generated_Source\PSoC4/CYBLE_eventHandler.c ****         CyBle_GlscWriteResponseEventHandler(eventParam);
 614:.\Generated_Source\PSoC4/CYBLE_eventHandler.c ****     }
 615:.\Generated_Source\PSoC4/CYBLE_eventHandler.c **** #endif /* CYBLE_GLS_CLIENT */
 616:.\Generated_Source\PSoC4/CYBLE_eventHandler.c **** 
 617:.\Generated_Source\PSoC4/CYBLE_eventHandler.c **** #ifdef CYBLE_HIDS_CLIENT
 618:.\Generated_Source\PSoC4/CYBLE_eventHandler.c ****     if((cyBle_eventHandlerFlag & CYBLE_CALLBACK) != 0u)
 619:.\Generated_Source\PSoC4/CYBLE_eventHandler.c ****     {
 620:.\Generated_Source\PSoC4/CYBLE_eventHandler.c ****         CyBle_HidscWriteResponseEventHandler(eventParam);
 621:.\Generated_Source\PSoC4/CYBLE_eventHandler.c ****     }
 622:.\Generated_Source\PSoC4/CYBLE_eventHandler.c **** #endif /* CYBLE_HIDS_CLIENT */
 623:.\Generated_Source\PSoC4/CYBLE_eventHandler.c **** 
ARM GAS  C:\Users\igreg\AppData\Local\Temp\ccnO9ZHN.s 			page 15


 624:.\Generated_Source\PSoC4/CYBLE_eventHandler.c **** #ifdef CYBLE_HPS_CLIENT
 625:.\Generated_Source\PSoC4/CYBLE_eventHandler.c ****     if((cyBle_eventHandlerFlag & CYBLE_CALLBACK) != 0u)
 626:.\Generated_Source\PSoC4/CYBLE_eventHandler.c ****     {
 627:.\Generated_Source\PSoC4/CYBLE_eventHandler.c ****         CyBle_HpscWriteResponseEventHandler(eventParam);
 628:.\Generated_Source\PSoC4/CYBLE_eventHandler.c ****     }
 629:.\Generated_Source\PSoC4/CYBLE_eventHandler.c **** #endif /* CYBLE_HPS_CLIENT */
 630:.\Generated_Source\PSoC4/CYBLE_eventHandler.c **** 
 631:.\Generated_Source\PSoC4/CYBLE_eventHandler.c **** #ifdef CYBLE_HRS_CLIENT
 632:.\Generated_Source\PSoC4/CYBLE_eventHandler.c ****     if((cyBle_eventHandlerFlag & CYBLE_CALLBACK) != 0u)
 633:.\Generated_Source\PSoC4/CYBLE_eventHandler.c ****     {
 634:.\Generated_Source\PSoC4/CYBLE_eventHandler.c ****         CyBle_HrscWriteResponseEventHandler(eventParam);
 635:.\Generated_Source\PSoC4/CYBLE_eventHandler.c ****     }
 636:.\Generated_Source\PSoC4/CYBLE_eventHandler.c **** #endif /* CYBLE_HRS_CLIENT */
 637:.\Generated_Source\PSoC4/CYBLE_eventHandler.c **** 
 638:.\Generated_Source\PSoC4/CYBLE_eventHandler.c **** #ifdef CYBLE_HTS_CLIENT
 639:.\Generated_Source\PSoC4/CYBLE_eventHandler.c ****     if((cyBle_eventHandlerFlag & CYBLE_CALLBACK) != 0u)
 640:.\Generated_Source\PSoC4/CYBLE_eventHandler.c ****     {
 641:.\Generated_Source\PSoC4/CYBLE_eventHandler.c ****         CyBle_HtscWriteResponseEventHandler(eventParam);
 642:.\Generated_Source\PSoC4/CYBLE_eventHandler.c ****     }
 643:.\Generated_Source\PSoC4/CYBLE_eventHandler.c **** #endif /* CYBLE_HTS_CLIENT */
 644:.\Generated_Source\PSoC4/CYBLE_eventHandler.c **** 
 645:.\Generated_Source\PSoC4/CYBLE_eventHandler.c **** #ifdef CYBLE_LLS_CLIENT
 646:.\Generated_Source\PSoC4/CYBLE_eventHandler.c ****     if((cyBle_eventHandlerFlag & CYBLE_CALLBACK) != 0u)
 647:.\Generated_Source\PSoC4/CYBLE_eventHandler.c ****     {
 648:.\Generated_Source\PSoC4/CYBLE_eventHandler.c ****         CyBle_LlscWriteResponseEventHandler(eventParam);
 649:.\Generated_Source\PSoC4/CYBLE_eventHandler.c ****     }
 650:.\Generated_Source\PSoC4/CYBLE_eventHandler.c **** #endif /* CYBLE_LLS_CLIENT */
 651:.\Generated_Source\PSoC4/CYBLE_eventHandler.c **** 
 652:.\Generated_Source\PSoC4/CYBLE_eventHandler.c **** #ifdef CYBLE_LNS_CLIENT
 653:.\Generated_Source\PSoC4/CYBLE_eventHandler.c ****     if((cyBle_eventHandlerFlag & CYBLE_CALLBACK) != 0u)
 654:.\Generated_Source\PSoC4/CYBLE_eventHandler.c ****     {
 655:.\Generated_Source\PSoC4/CYBLE_eventHandler.c ****         CyBle_LnscWriteResponseEventHandler(eventParam);
 656:.\Generated_Source\PSoC4/CYBLE_eventHandler.c ****     }
 657:.\Generated_Source\PSoC4/CYBLE_eventHandler.c **** #endif /* CYBLE_LNS_CLIENT */
 658:.\Generated_Source\PSoC4/CYBLE_eventHandler.c **** 
 659:.\Generated_Source\PSoC4/CYBLE_eventHandler.c **** #ifdef CYBLE_PASS_CLIENT
 660:.\Generated_Source\PSoC4/CYBLE_eventHandler.c ****     if((cyBle_eventHandlerFlag & CYBLE_CALLBACK) != 0u)
 661:.\Generated_Source\PSoC4/CYBLE_eventHandler.c ****     {
 662:.\Generated_Source\PSoC4/CYBLE_eventHandler.c ****         CyBle_PasscWriteResponseEventHandler(eventParam);
 663:.\Generated_Source\PSoC4/CYBLE_eventHandler.c ****     }
 664:.\Generated_Source\PSoC4/CYBLE_eventHandler.c **** #endif /* CYBLE_PASS_CLIENT */
 665:.\Generated_Source\PSoC4/CYBLE_eventHandler.c **** 
 666:.\Generated_Source\PSoC4/CYBLE_eventHandler.c **** #ifdef CYBLE_RSCS_CLIENT
 667:.\Generated_Source\PSoC4/CYBLE_eventHandler.c ****     if((cyBle_eventHandlerFlag & CYBLE_CALLBACK) != 0u)
 668:.\Generated_Source\PSoC4/CYBLE_eventHandler.c ****     {
 669:.\Generated_Source\PSoC4/CYBLE_eventHandler.c ****         CyBle_RscscWriteResponseEventHandler(eventParam);
 670:.\Generated_Source\PSoC4/CYBLE_eventHandler.c ****     }
 671:.\Generated_Source\PSoC4/CYBLE_eventHandler.c **** #endif /* CYBLE_RSCS_CLIENT */
 672:.\Generated_Source\PSoC4/CYBLE_eventHandler.c **** 
 673:.\Generated_Source\PSoC4/CYBLE_eventHandler.c **** #ifdef CYBLE_SCPS_CLIENT
 674:.\Generated_Source\PSoC4/CYBLE_eventHandler.c ****     if((cyBle_eventHandlerFlag & CYBLE_CALLBACK) != 0u)
 675:.\Generated_Source\PSoC4/CYBLE_eventHandler.c ****     {
 676:.\Generated_Source\PSoC4/CYBLE_eventHandler.c ****         CyBle_ScpscWriteResponseEventHandler(eventParam);
 677:.\Generated_Source\PSoC4/CYBLE_eventHandler.c ****     }
 678:.\Generated_Source\PSoC4/CYBLE_eventHandler.c **** #endif /* CYBLE_SCPS_CLIENT */
 679:.\Generated_Source\PSoC4/CYBLE_eventHandler.c **** 
 680:.\Generated_Source\PSoC4/CYBLE_eventHandler.c **** #ifdef CYBLE_TPS_CLIENT
ARM GAS  C:\Users\igreg\AppData\Local\Temp\ccnO9ZHN.s 			page 16


 681:.\Generated_Source\PSoC4/CYBLE_eventHandler.c ****     if((cyBle_eventHandlerFlag & CYBLE_CALLBACK) != 0u)
 682:.\Generated_Source\PSoC4/CYBLE_eventHandler.c ****     {
 683:.\Generated_Source\PSoC4/CYBLE_eventHandler.c ****         CyBle_TpscWriteResponseEventHandler(eventParam);
 684:.\Generated_Source\PSoC4/CYBLE_eventHandler.c ****     }
 685:.\Generated_Source\PSoC4/CYBLE_eventHandler.c **** #endif /* CYBLE_TPS_CLIENT */
 686:.\Generated_Source\PSoC4/CYBLE_eventHandler.c **** 
 687:.\Generated_Source\PSoC4/CYBLE_eventHandler.c **** #ifdef CYBLE_UDS_CLIENT
 688:.\Generated_Source\PSoC4/CYBLE_eventHandler.c ****     if((cyBle_eventHandlerFlag & CYBLE_CALLBACK) != 0u)
 689:.\Generated_Source\PSoC4/CYBLE_eventHandler.c ****     {
 690:.\Generated_Source\PSoC4/CYBLE_eventHandler.c ****         CyBle_UdscWriteResponseEventHandler(eventParam);
 691:.\Generated_Source\PSoC4/CYBLE_eventHandler.c ****     }
 692:.\Generated_Source\PSoC4/CYBLE_eventHandler.c **** #endif /* CYBLE_UDS_CLIENT */
 693:.\Generated_Source\PSoC4/CYBLE_eventHandler.c **** #ifdef CYBLE_WPTS_CLIENT
 694:.\Generated_Source\PSoC4/CYBLE_eventHandler.c ****     if((cyBle_eventHandlerFlag & CYBLE_CALLBACK) != 0u)
 695:.\Generated_Source\PSoC4/CYBLE_eventHandler.c ****     {
 696:.\Generated_Source\PSoC4/CYBLE_eventHandler.c ****         CyBle_WptscWriteResponseEventHandler(eventParam);
 697:.\Generated_Source\PSoC4/CYBLE_eventHandler.c ****     }
 698:.\Generated_Source\PSoC4/CYBLE_eventHandler.c **** #endif /* CYBLE_WPTS_CLIENT */
 699:.\Generated_Source\PSoC4/CYBLE_eventHandler.c **** #ifdef CYBLE_WSS_CLIENT
 700:.\Generated_Source\PSoC4/CYBLE_eventHandler.c ****     if((cyBle_eventHandlerFlag & CYBLE_CALLBACK) != 0u)
 701:.\Generated_Source\PSoC4/CYBLE_eventHandler.c ****     {
 702:.\Generated_Source\PSoC4/CYBLE_eventHandler.c ****         CyBle_WsscWriteResponseEventHandler(eventParam);
 703:.\Generated_Source\PSoC4/CYBLE_eventHandler.c ****     }
 704:.\Generated_Source\PSoC4/CYBLE_eventHandler.c **** #endif /* CYBLE_WSS_CLIENT */
 705:.\Generated_Source\PSoC4/CYBLE_eventHandler.c **** }
 706:.\Generated_Source\PSoC4/CYBLE_eventHandler.c **** 
 707:.\Generated_Source\PSoC4/CYBLE_eventHandler.c **** 
 708:.\Generated_Source\PSoC4/CYBLE_eventHandler.c **** /******************************************************************************    
 709:.\Generated_Source\PSoC4/CYBLE_eventHandler.c **** * Function Name: CyBle_NotificationEventHandler
 710:.\Generated_Source\PSoC4/CYBLE_eventHandler.c **** ***************************************************************************//**
 711:.\Generated_Source\PSoC4/CYBLE_eventHandler.c **** * 
 712:.\Generated_Source\PSoC4/CYBLE_eventHandler.c **** *  Handles the Notification event from BLE stack.
 713:.\Generated_Source\PSoC4/CYBLE_eventHandler.c **** * 
 714:.\Generated_Source\PSoC4/CYBLE_eventHandler.c **** *  \param eventParam: event parameter
 715:.\Generated_Source\PSoC4/CYBLE_eventHandler.c **** * 
 716:.\Generated_Source\PSoC4/CYBLE_eventHandler.c **** * \return
 717:.\Generated_Source\PSoC4/CYBLE_eventHandler.c **** *  None
 718:.\Generated_Source\PSoC4/CYBLE_eventHandler.c **** * 
 719:.\Generated_Source\PSoC4/CYBLE_eventHandler.c **** ******************************************************************************/
 720:.\Generated_Source\PSoC4/CYBLE_eventHandler.c **** static void CyBle_NotificationEventHandler(CYBLE_GATTC_HANDLE_VALUE_NTF_PARAM_T *eventParam)
 721:.\Generated_Source\PSoC4/CYBLE_eventHandler.c **** {
 722:.\Generated_Source\PSoC4/CYBLE_eventHandler.c **** #ifdef CYBLE_ANCS_CLIENT
 723:.\Generated_Source\PSoC4/CYBLE_eventHandler.c ****     CyBle_AncscNotificationEventHandler(eventParam);
 724:.\Generated_Source\PSoC4/CYBLE_eventHandler.c **** #endif /* CYBLE_ANCS_CLIENT */
 725:.\Generated_Source\PSoC4/CYBLE_eventHandler.c **** #ifdef CYBLE_ANS_CLIENT
 726:.\Generated_Source\PSoC4/CYBLE_eventHandler.c ****     if((cyBle_eventHandlerFlag & CYBLE_CALLBACK) != 0u)
 727:.\Generated_Source\PSoC4/CYBLE_eventHandler.c ****     {
 728:.\Generated_Source\PSoC4/CYBLE_eventHandler.c ****         CyBle_AnscNotificationEventHandler(eventParam);
 729:.\Generated_Source\PSoC4/CYBLE_eventHandler.c ****     }
 730:.\Generated_Source\PSoC4/CYBLE_eventHandler.c **** #endif /* CYBLE_ANS_CLIENT */
 731:.\Generated_Source\PSoC4/CYBLE_eventHandler.c **** #ifdef CYBLE_BAS_CLIENT
 732:.\Generated_Source\PSoC4/CYBLE_eventHandler.c ****     if((cyBle_eventHandlerFlag & CYBLE_CALLBACK) != 0u)
 733:.\Generated_Source\PSoC4/CYBLE_eventHandler.c ****     {
 734:.\Generated_Source\PSoC4/CYBLE_eventHandler.c ****         CyBle_BascNotificationEventHandler(eventParam);
 735:.\Generated_Source\PSoC4/CYBLE_eventHandler.c ****     }
 736:.\Generated_Source\PSoC4/CYBLE_eventHandler.c **** #endif /* CYBLE_BAS_CLIENT */
 737:.\Generated_Source\PSoC4/CYBLE_eventHandler.c **** #ifdef CYBLE_BLS_CLIENT
ARM GAS  C:\Users\igreg\AppData\Local\Temp\ccnO9ZHN.s 			page 17


 738:.\Generated_Source\PSoC4/CYBLE_eventHandler.c ****     if((cyBle_eventHandlerFlag & CYBLE_CALLBACK) != 0u)
 739:.\Generated_Source\PSoC4/CYBLE_eventHandler.c ****     {
 740:.\Generated_Source\PSoC4/CYBLE_eventHandler.c ****         CyBle_BlscNotificationEventHandler(eventParam);
 741:.\Generated_Source\PSoC4/CYBLE_eventHandler.c ****     }
 742:.\Generated_Source\PSoC4/CYBLE_eventHandler.c **** #endif /* CYBLE_BLS_CLIENT */
 743:.\Generated_Source\PSoC4/CYBLE_eventHandler.c **** #ifdef CYBLE_CGMS_CLIENT
 744:.\Generated_Source\PSoC4/CYBLE_eventHandler.c ****     if((cyBle_eventHandlerFlag & CYBLE_CALLBACK) != 0u)
 745:.\Generated_Source\PSoC4/CYBLE_eventHandler.c ****     {
 746:.\Generated_Source\PSoC4/CYBLE_eventHandler.c ****         CyBle_CgmscNotificationEventHandler(eventParam);
 747:.\Generated_Source\PSoC4/CYBLE_eventHandler.c ****     }
 748:.\Generated_Source\PSoC4/CYBLE_eventHandler.c **** #endif /* CYBLE_CGMS_CLIENT */
 749:.\Generated_Source\PSoC4/CYBLE_eventHandler.c **** #ifdef CYBLE_CPS_CLIENT
 750:.\Generated_Source\PSoC4/CYBLE_eventHandler.c ****     if((cyBle_eventHandlerFlag & CYBLE_CALLBACK) != 0u)
 751:.\Generated_Source\PSoC4/CYBLE_eventHandler.c ****     {
 752:.\Generated_Source\PSoC4/CYBLE_eventHandler.c ****         CyBle_CpscNotificationEventHandler(eventParam);
 753:.\Generated_Source\PSoC4/CYBLE_eventHandler.c ****     }
 754:.\Generated_Source\PSoC4/CYBLE_eventHandler.c **** #endif /* CYBLE_CPS_CLIENT */
 755:.\Generated_Source\PSoC4/CYBLE_eventHandler.c **** #ifdef CYBLE_CSCS_CLIENT
 756:.\Generated_Source\PSoC4/CYBLE_eventHandler.c ****     if((cyBle_eventHandlerFlag & CYBLE_CALLBACK) != 0u)
 757:.\Generated_Source\PSoC4/CYBLE_eventHandler.c ****     {
 758:.\Generated_Source\PSoC4/CYBLE_eventHandler.c ****         CyBle_CscscNotificationEventHandler(eventParam);
 759:.\Generated_Source\PSoC4/CYBLE_eventHandler.c ****     }
 760:.\Generated_Source\PSoC4/CYBLE_eventHandler.c **** #endif /* CYBLE_CSCS_CLIENT */
 761:.\Generated_Source\PSoC4/CYBLE_eventHandler.c **** #ifdef CYBLE_CTS_CLIENT
 762:.\Generated_Source\PSoC4/CYBLE_eventHandler.c ****     if((cyBle_eventHandlerFlag & CYBLE_CALLBACK) != 0u)
 763:.\Generated_Source\PSoC4/CYBLE_eventHandler.c ****     {
 764:.\Generated_Source\PSoC4/CYBLE_eventHandler.c ****         CyBle_CtscNotificationEventHandler(eventParam);
 765:.\Generated_Source\PSoC4/CYBLE_eventHandler.c ****     }
 766:.\Generated_Source\PSoC4/CYBLE_eventHandler.c **** #endif /* CYBLE_CTS_CLIENT */
 767:.\Generated_Source\PSoC4/CYBLE_eventHandler.c **** #ifdef CYBLE_ESS_CLIENT
 768:.\Generated_Source\PSoC4/CYBLE_eventHandler.c ****     if((cyBle_eventHandlerFlag & CYBLE_CALLBACK) != 0u)
 769:.\Generated_Source\PSoC4/CYBLE_eventHandler.c ****     {
 770:.\Generated_Source\PSoC4/CYBLE_eventHandler.c ****         CyBle_EsscNotificationEventHandler(eventParam);
 771:.\Generated_Source\PSoC4/CYBLE_eventHandler.c ****     }
 772:.\Generated_Source\PSoC4/CYBLE_eventHandler.c **** #endif /* CYBLE_ESS_CLIENT */
 773:.\Generated_Source\PSoC4/CYBLE_eventHandler.c **** #ifdef CYBLE_GLS_CLIENT
 774:.\Generated_Source\PSoC4/CYBLE_eventHandler.c ****     if((cyBle_eventHandlerFlag & CYBLE_CALLBACK) != 0u)
 775:.\Generated_Source\PSoC4/CYBLE_eventHandler.c ****     {
 776:.\Generated_Source\PSoC4/CYBLE_eventHandler.c ****         CyBle_GlscNotificationEventHandler(eventParam);
 777:.\Generated_Source\PSoC4/CYBLE_eventHandler.c ****     }
 778:.\Generated_Source\PSoC4/CYBLE_eventHandler.c **** #endif /* CYBLE_GLS_CLIENT */
 779:.\Generated_Source\PSoC4/CYBLE_eventHandler.c **** #ifdef CYBLE_HIDS_CLIENT
 780:.\Generated_Source\PSoC4/CYBLE_eventHandler.c ****     if((cyBle_eventHandlerFlag & CYBLE_CALLBACK) != 0u)
 781:.\Generated_Source\PSoC4/CYBLE_eventHandler.c ****     {
 782:.\Generated_Source\PSoC4/CYBLE_eventHandler.c ****         CyBle_HidscNotificationEventHandler(eventParam);
 783:.\Generated_Source\PSoC4/CYBLE_eventHandler.c ****     }
 784:.\Generated_Source\PSoC4/CYBLE_eventHandler.c **** #endif /* CYBLE_HIDS_CLIENT */
 785:.\Generated_Source\PSoC4/CYBLE_eventHandler.c **** #ifdef CYBLE_HPS_CLIENT
 786:.\Generated_Source\PSoC4/CYBLE_eventHandler.c ****     if((cyBle_eventHandlerFlag & CYBLE_CALLBACK) != 0u)
 787:.\Generated_Source\PSoC4/CYBLE_eventHandler.c ****     {
 788:.\Generated_Source\PSoC4/CYBLE_eventHandler.c ****         CyBle_HpscNotificationEventHandler(eventParam);
 789:.\Generated_Source\PSoC4/CYBLE_eventHandler.c ****     }
 790:.\Generated_Source\PSoC4/CYBLE_eventHandler.c **** #endif /* CYBLE_HPS_CLIENT */
 791:.\Generated_Source\PSoC4/CYBLE_eventHandler.c **** #ifdef CYBLE_HRS_CLIENT
 792:.\Generated_Source\PSoC4/CYBLE_eventHandler.c ****     if((cyBle_eventHandlerFlag & CYBLE_CALLBACK) != 0u)
 793:.\Generated_Source\PSoC4/CYBLE_eventHandler.c ****     {
 794:.\Generated_Source\PSoC4/CYBLE_eventHandler.c ****         CyBle_HrscNotificationEventHandler(eventParam);
ARM GAS  C:\Users\igreg\AppData\Local\Temp\ccnO9ZHN.s 			page 18


 795:.\Generated_Source\PSoC4/CYBLE_eventHandler.c ****     }
 796:.\Generated_Source\PSoC4/CYBLE_eventHandler.c **** #endif /* CYBLE_HRS_CLIENT */
 797:.\Generated_Source\PSoC4/CYBLE_eventHandler.c **** #ifdef CYBLE_HTS_CLIENT
 798:.\Generated_Source\PSoC4/CYBLE_eventHandler.c ****     if((cyBle_eventHandlerFlag & CYBLE_CALLBACK) != 0u)
 799:.\Generated_Source\PSoC4/CYBLE_eventHandler.c ****     {
 800:.\Generated_Source\PSoC4/CYBLE_eventHandler.c ****         CyBle_HtscNotificationEventHandler(eventParam);
 801:.\Generated_Source\PSoC4/CYBLE_eventHandler.c ****     }
 802:.\Generated_Source\PSoC4/CYBLE_eventHandler.c **** #endif /* CYBLE_HTS_CLIENT */
 803:.\Generated_Source\PSoC4/CYBLE_eventHandler.c **** #ifdef CYBLE_LNS_CLIENT
 804:.\Generated_Source\PSoC4/CYBLE_eventHandler.c ****     if((cyBle_eventHandlerFlag & CYBLE_CALLBACK) != 0u)
 805:.\Generated_Source\PSoC4/CYBLE_eventHandler.c ****     {
 806:.\Generated_Source\PSoC4/CYBLE_eventHandler.c ****         CyBle_LnscNotificationEventHandler(eventParam);
 807:.\Generated_Source\PSoC4/CYBLE_eventHandler.c ****     }
 808:.\Generated_Source\PSoC4/CYBLE_eventHandler.c **** #endif /* CYBLE_LNS_CLIENT */
 809:.\Generated_Source\PSoC4/CYBLE_eventHandler.c **** #ifdef CYBLE_PASS_CLIENT
 810:.\Generated_Source\PSoC4/CYBLE_eventHandler.c ****     if((cyBle_eventHandlerFlag & CYBLE_CALLBACK) != 0u)
 811:.\Generated_Source\PSoC4/CYBLE_eventHandler.c ****     {
 812:.\Generated_Source\PSoC4/CYBLE_eventHandler.c ****         CyBle_PasscNotificationEventHandler(eventParam);
 813:.\Generated_Source\PSoC4/CYBLE_eventHandler.c ****     }
 814:.\Generated_Source\PSoC4/CYBLE_eventHandler.c **** #endif /* CYBLE_PASS_CLIENT */
 815:.\Generated_Source\PSoC4/CYBLE_eventHandler.c **** #ifdef CYBLE_RSCS_CLIENT
 816:.\Generated_Source\PSoC4/CYBLE_eventHandler.c ****     if((cyBle_eventHandlerFlag & CYBLE_CALLBACK) != 0u)
 817:.\Generated_Source\PSoC4/CYBLE_eventHandler.c ****     {
 818:.\Generated_Source\PSoC4/CYBLE_eventHandler.c ****         CyBle_RscscNotificationEventHandler(eventParam);
 819:.\Generated_Source\PSoC4/CYBLE_eventHandler.c ****     }
 820:.\Generated_Source\PSoC4/CYBLE_eventHandler.c **** #endif /* CYBLE_RSCS_CLIENT */
 821:.\Generated_Source\PSoC4/CYBLE_eventHandler.c **** #ifdef CYBLE_SCPS_CLIENT
 822:.\Generated_Source\PSoC4/CYBLE_eventHandler.c ****     if((cyBle_eventHandlerFlag & CYBLE_CALLBACK) != 0u)
 823:.\Generated_Source\PSoC4/CYBLE_eventHandler.c ****     {
 824:.\Generated_Source\PSoC4/CYBLE_eventHandler.c ****         CyBle_ScpscNotificationEventHandler(eventParam);
 825:.\Generated_Source\PSoC4/CYBLE_eventHandler.c ****     }
 826:.\Generated_Source\PSoC4/CYBLE_eventHandler.c **** #endif /* CYBLE_SCPS_CLIENT */
 827:.\Generated_Source\PSoC4/CYBLE_eventHandler.c **** #ifdef CYBLE_TPS_CLIENT
 828:.\Generated_Source\PSoC4/CYBLE_eventHandler.c ****     if((cyBle_eventHandlerFlag & CYBLE_CALLBACK) != 0u)
 829:.\Generated_Source\PSoC4/CYBLE_eventHandler.c ****     {
 830:.\Generated_Source\PSoC4/CYBLE_eventHandler.c ****         CyBle_TpscNotificationEventHandler(eventParam);
 831:.\Generated_Source\PSoC4/CYBLE_eventHandler.c ****     }
 832:.\Generated_Source\PSoC4/CYBLE_eventHandler.c **** #endif /* CYBLE_TPS_CLIENT */
 833:.\Generated_Source\PSoC4/CYBLE_eventHandler.c **** #ifdef CYBLE_UDS_CLIENT
 834:.\Generated_Source\PSoC4/CYBLE_eventHandler.c ****     if((cyBle_eventHandlerFlag & CYBLE_CALLBACK) != 0u)
 835:.\Generated_Source\PSoC4/CYBLE_eventHandler.c ****     {
 836:.\Generated_Source\PSoC4/CYBLE_eventHandler.c ****         CyBle_UdscNotificationEventHandler(eventParam);
 837:.\Generated_Source\PSoC4/CYBLE_eventHandler.c ****     }
 838:.\Generated_Source\PSoC4/CYBLE_eventHandler.c **** #endif /* CYBLE_UDS_CLIENT */
 839:.\Generated_Source\PSoC4/CYBLE_eventHandler.c **** #ifdef CYBLE_WPTS_CLIENT
 840:.\Generated_Source\PSoC4/CYBLE_eventHandler.c ****     if((cyBle_eventHandlerFlag & CYBLE_CALLBACK) != 0u)
 841:.\Generated_Source\PSoC4/CYBLE_eventHandler.c ****     {
 842:.\Generated_Source\PSoC4/CYBLE_eventHandler.c ****         CyBle_WptscNotificationEventHandler(eventParam);
 843:.\Generated_Source\PSoC4/CYBLE_eventHandler.c ****     }
 844:.\Generated_Source\PSoC4/CYBLE_eventHandler.c **** #endif /* CYBLE_WPTS_CLIENT */
 845:.\Generated_Source\PSoC4/CYBLE_eventHandler.c **** }
 846:.\Generated_Source\PSoC4/CYBLE_eventHandler.c **** 
 847:.\Generated_Source\PSoC4/CYBLE_eventHandler.c **** 
 848:.\Generated_Source\PSoC4/CYBLE_eventHandler.c **** /******************************************************************************    
 849:.\Generated_Source\PSoC4/CYBLE_eventHandler.c **** * Function Name: CyBle_IndicationEventHandler
 850:.\Generated_Source\PSoC4/CYBLE_eventHandler.c **** ***************************************************************************//**
 851:.\Generated_Source\PSoC4/CYBLE_eventHandler.c **** * 
ARM GAS  C:\Users\igreg\AppData\Local\Temp\ccnO9ZHN.s 			page 19


 852:.\Generated_Source\PSoC4/CYBLE_eventHandler.c **** *  Handles the Indication event from BLE stack.
 853:.\Generated_Source\PSoC4/CYBLE_eventHandler.c **** * 
 854:.\Generated_Source\PSoC4/CYBLE_eventHandler.c **** *  \param eventParam: event parameter
 855:.\Generated_Source\PSoC4/CYBLE_eventHandler.c **** * 
 856:.\Generated_Source\PSoC4/CYBLE_eventHandler.c **** * \return
 857:.\Generated_Source\PSoC4/CYBLE_eventHandler.c **** *  None
 858:.\Generated_Source\PSoC4/CYBLE_eventHandler.c **** * 
 859:.\Generated_Source\PSoC4/CYBLE_eventHandler.c **** ******************************************************************************/
 860:.\Generated_Source\PSoC4/CYBLE_eventHandler.c **** static void CyBle_IndicationEventHandler(CYBLE_GATTC_HANDLE_VALUE_IND_PARAM_T *eventParam)
 861:.\Generated_Source\PSoC4/CYBLE_eventHandler.c **** {
 862:.\Generated_Source\PSoC4/CYBLE_eventHandler.c **** #ifdef CYBLE_BCS_CLIENT
 863:.\Generated_Source\PSoC4/CYBLE_eventHandler.c ****     if((cyBle_eventHandlerFlag & CYBLE_CALLBACK) != 0u)
 864:.\Generated_Source\PSoC4/CYBLE_eventHandler.c ****     {
 865:.\Generated_Source\PSoC4/CYBLE_eventHandler.c ****         CyBle_BcscIndicationEventHandler(eventParam);
 866:.\Generated_Source\PSoC4/CYBLE_eventHandler.c ****     }
 867:.\Generated_Source\PSoC4/CYBLE_eventHandler.c **** #endif /* CYBLE_BCS_CLIENT */
 868:.\Generated_Source\PSoC4/CYBLE_eventHandler.c **** #ifdef CYBLE_BLS_CLIENT
 869:.\Generated_Source\PSoC4/CYBLE_eventHandler.c ****     if((cyBle_eventHandlerFlag & CYBLE_CALLBACK) != 0u)
 870:.\Generated_Source\PSoC4/CYBLE_eventHandler.c ****     {
 871:.\Generated_Source\PSoC4/CYBLE_eventHandler.c ****         CyBle_BlscIndicationEventHandler(eventParam);
 872:.\Generated_Source\PSoC4/CYBLE_eventHandler.c ****     }
 873:.\Generated_Source\PSoC4/CYBLE_eventHandler.c **** #endif /* CYBLE_BLS_CLIENT */
 874:.\Generated_Source\PSoC4/CYBLE_eventHandler.c **** #ifdef CYBLE_CGMS_CLIENT
 875:.\Generated_Source\PSoC4/CYBLE_eventHandler.c ****     if((cyBle_eventHandlerFlag & CYBLE_CALLBACK) != 0u)
 876:.\Generated_Source\PSoC4/CYBLE_eventHandler.c ****     {
 877:.\Generated_Source\PSoC4/CYBLE_eventHandler.c ****         CyBle_CgmscIndicationEventHandler(eventParam);
 878:.\Generated_Source\PSoC4/CYBLE_eventHandler.c ****     }
 879:.\Generated_Source\PSoC4/CYBLE_eventHandler.c **** #endif /* CYBLE_CGMS_CLIENT */
 880:.\Generated_Source\PSoC4/CYBLE_eventHandler.c **** #ifdef CYBLE_CPS_CLIENT
 881:.\Generated_Source\PSoC4/CYBLE_eventHandler.c ****     if((cyBle_eventHandlerFlag & CYBLE_CALLBACK) != 0u)
 882:.\Generated_Source\PSoC4/CYBLE_eventHandler.c ****     {
 883:.\Generated_Source\PSoC4/CYBLE_eventHandler.c ****         CyBle_CpscIndicationEventHandler(eventParam);
 884:.\Generated_Source\PSoC4/CYBLE_eventHandler.c ****     }
 885:.\Generated_Source\PSoC4/CYBLE_eventHandler.c **** #endif /* CYBLE_CPS_CLIENT */
 886:.\Generated_Source\PSoC4/CYBLE_eventHandler.c **** #ifdef CYBLE_CSCS_CLIENT
 887:.\Generated_Source\PSoC4/CYBLE_eventHandler.c ****     if((cyBle_eventHandlerFlag & CYBLE_CALLBACK) != 0u)
 888:.\Generated_Source\PSoC4/CYBLE_eventHandler.c ****     {
 889:.\Generated_Source\PSoC4/CYBLE_eventHandler.c ****         CyBle_CscscIndicationEventHandler(eventParam);
 890:.\Generated_Source\PSoC4/CYBLE_eventHandler.c ****     }
 891:.\Generated_Source\PSoC4/CYBLE_eventHandler.c **** #endif /* CYBLE_CSCS_CLIENT */
 892:.\Generated_Source\PSoC4/CYBLE_eventHandler.c **** #ifdef CYBLE_ESS_CLIENT
 893:.\Generated_Source\PSoC4/CYBLE_eventHandler.c ****     if((cyBle_eventHandlerFlag & CYBLE_CALLBACK) != 0u)
 894:.\Generated_Source\PSoC4/CYBLE_eventHandler.c ****     {
 895:.\Generated_Source\PSoC4/CYBLE_eventHandler.c ****         CyBle_EsscIndicationEventHandler(eventParam);
 896:.\Generated_Source\PSoC4/CYBLE_eventHandler.c ****     }
 897:.\Generated_Source\PSoC4/CYBLE_eventHandler.c **** #endif /* CYBLE_ESS_CLIENT */
 898:.\Generated_Source\PSoC4/CYBLE_eventHandler.c **** #ifdef CYBLE_GLS_CLIENT
 899:.\Generated_Source\PSoC4/CYBLE_eventHandler.c ****     if((cyBle_eventHandlerFlag & CYBLE_CALLBACK) != 0u)
 900:.\Generated_Source\PSoC4/CYBLE_eventHandler.c ****     {
 901:.\Generated_Source\PSoC4/CYBLE_eventHandler.c ****         CyBle_GlscIndicationEventHandler(eventParam);
 902:.\Generated_Source\PSoC4/CYBLE_eventHandler.c ****     }
 903:.\Generated_Source\PSoC4/CYBLE_eventHandler.c **** #endif /* CYBLE_GLS_CLIENT */
 904:.\Generated_Source\PSoC4/CYBLE_eventHandler.c **** #ifdef CYBLE_HTS_CLIENT
 905:.\Generated_Source\PSoC4/CYBLE_eventHandler.c ****     if((cyBle_eventHandlerFlag & CYBLE_CALLBACK) != 0u)
 906:.\Generated_Source\PSoC4/CYBLE_eventHandler.c ****     {
 907:.\Generated_Source\PSoC4/CYBLE_eventHandler.c ****         CyBle_HtscIndicationEventHandler(eventParam);
 908:.\Generated_Source\PSoC4/CYBLE_eventHandler.c ****     }
ARM GAS  C:\Users\igreg\AppData\Local\Temp\ccnO9ZHN.s 			page 20


 909:.\Generated_Source\PSoC4/CYBLE_eventHandler.c **** #endif /* CYBLE_HTS_CLIENT */
 910:.\Generated_Source\PSoC4/CYBLE_eventHandler.c **** #ifdef CYBLE_LNS_CLIENT
 911:.\Generated_Source\PSoC4/CYBLE_eventHandler.c ****     if((cyBle_eventHandlerFlag & CYBLE_CALLBACK) != 0u)
 912:.\Generated_Source\PSoC4/CYBLE_eventHandler.c ****     {
 913:.\Generated_Source\PSoC4/CYBLE_eventHandler.c ****         CyBle_LnscIndicationEventHandler(eventParam);
 914:.\Generated_Source\PSoC4/CYBLE_eventHandler.c ****     }
 915:.\Generated_Source\PSoC4/CYBLE_eventHandler.c **** #endif /* CYBLE_LNS_CLIENT */
 916:.\Generated_Source\PSoC4/CYBLE_eventHandler.c **** #ifdef CYBLE_RSCS_CLIENT
 917:.\Generated_Source\PSoC4/CYBLE_eventHandler.c ****     if((cyBle_eventHandlerFlag & CYBLE_CALLBACK) != 0u)
 918:.\Generated_Source\PSoC4/CYBLE_eventHandler.c ****     {
 919:.\Generated_Source\PSoC4/CYBLE_eventHandler.c ****         CyBle_RscscIndicationEventHandler(eventParam);
 920:.\Generated_Source\PSoC4/CYBLE_eventHandler.c ****     }
 921:.\Generated_Source\PSoC4/CYBLE_eventHandler.c **** #endif /* CYBLE_RSCS_CLIENT */
 922:.\Generated_Source\PSoC4/CYBLE_eventHandler.c **** #ifdef CYBLE_UDS_CLIENT
 923:.\Generated_Source\PSoC4/CYBLE_eventHandler.c ****     if((cyBle_eventHandlerFlag & CYBLE_CALLBACK) != 0u)
 924:.\Generated_Source\PSoC4/CYBLE_eventHandler.c ****     {
 925:.\Generated_Source\PSoC4/CYBLE_eventHandler.c ****         CyBle_UdscIndicationEventHandler(eventParam);
 926:.\Generated_Source\PSoC4/CYBLE_eventHandler.c ****     }
 927:.\Generated_Source\PSoC4/CYBLE_eventHandler.c **** #endif /* CYBLE_UDS_CLIENT */
 928:.\Generated_Source\PSoC4/CYBLE_eventHandler.c **** #ifdef CYBLE_WPTS_CLIENT
 929:.\Generated_Source\PSoC4/CYBLE_eventHandler.c ****     if((cyBle_eventHandlerFlag & CYBLE_CALLBACK) != 0u)
 930:.\Generated_Source\PSoC4/CYBLE_eventHandler.c ****     {
 931:.\Generated_Source\PSoC4/CYBLE_eventHandler.c ****         CyBle_WptscIndicationEventHandler(eventParam);
 932:.\Generated_Source\PSoC4/CYBLE_eventHandler.c ****     }
 933:.\Generated_Source\PSoC4/CYBLE_eventHandler.c **** #endif /* CYBLE_WPTS_CLIENT */
 934:.\Generated_Source\PSoC4/CYBLE_eventHandler.c **** #ifdef CYBLE_WSS_CLIENT
 935:.\Generated_Source\PSoC4/CYBLE_eventHandler.c ****     if((cyBle_eventHandlerFlag & CYBLE_CALLBACK) != 0u)
 936:.\Generated_Source\PSoC4/CYBLE_eventHandler.c ****     {
 937:.\Generated_Source\PSoC4/CYBLE_eventHandler.c ****         CyBle_WsscIndicationEventHandler(eventParam);
 938:.\Generated_Source\PSoC4/CYBLE_eventHandler.c ****     }
 939:.\Generated_Source\PSoC4/CYBLE_eventHandler.c **** #endif /* CYBLE_WSS_CLIENT */
 940:.\Generated_Source\PSoC4/CYBLE_eventHandler.c **** }
 941:.\Generated_Source\PSoC4/CYBLE_eventHandler.c **** 
 942:.\Generated_Source\PSoC4/CYBLE_eventHandler.c **** 
 943:.\Generated_Source\PSoC4/CYBLE_eventHandler.c **** 
 944:.\Generated_Source\PSoC4/CYBLE_eventHandler.c **** /******************************************************************************    
 945:.\Generated_Source\PSoC4/CYBLE_eventHandler.c **** * Function Name: CyBle_ReadResponseEventHandler
 946:.\Generated_Source\PSoC4/CYBLE_eventHandler.c **** ***************************************************************************//**
 947:.\Generated_Source\PSoC4/CYBLE_eventHandler.c **** * 
 948:.\Generated_Source\PSoC4/CYBLE_eventHandler.c **** *  Handles the Read Response event from BLE stack.
 949:.\Generated_Source\PSoC4/CYBLE_eventHandler.c **** * 
 950:.\Generated_Source\PSoC4/CYBLE_eventHandler.c **** *  \param eventParam: event parameter
 951:.\Generated_Source\PSoC4/CYBLE_eventHandler.c **** * 
 952:.\Generated_Source\PSoC4/CYBLE_eventHandler.c **** * \return
 953:.\Generated_Source\PSoC4/CYBLE_eventHandler.c **** *  None
 954:.\Generated_Source\PSoC4/CYBLE_eventHandler.c **** * 
 955:.\Generated_Source\PSoC4/CYBLE_eventHandler.c **** ******************************************************************************/
 956:.\Generated_Source\PSoC4/CYBLE_eventHandler.c **** static void CyBle_ReadResponseEventHandler(CYBLE_GATTC_READ_RSP_PARAM_T *eventParam)
 957:.\Generated_Source\PSoC4/CYBLE_eventHandler.c **** {
 958:.\Generated_Source\PSoC4/CYBLE_eventHandler.c **** #ifdef CYBLE_CUSTOM_CLIENT
 959:.\Generated_Source\PSoC4/CYBLE_eventHandler.c ****     /* Read response with 128-bit included service uuid */
 960:.\Generated_Source\PSoC4/CYBLE_eventHandler.c ****     if((CYBLE_CLIENT_STATE_INCL_DISCOVERING == CyBle_GetClientState()) &&
 961:.\Generated_Source\PSoC4/CYBLE_eventHandler.c ****        (cyBle_discInclInfo.inclDefHandle != 0u))
 962:.\Generated_Source\PSoC4/CYBLE_eventHandler.c ****     {
 963:.\Generated_Source\PSoC4/CYBLE_eventHandler.c ****         CYBLE_DISC_SRVC128_INFO_T discServInfo;
 964:.\Generated_Source\PSoC4/CYBLE_eventHandler.c **** 
 965:.\Generated_Source\PSoC4/CYBLE_eventHandler.c ****         /* Store service range */
ARM GAS  C:\Users\igreg\AppData\Local\Temp\ccnO9ZHN.s 			page 21


 966:.\Generated_Source\PSoC4/CYBLE_eventHandler.c ****         discServInfo.range = cyBle_discInclInfo.inclHandleRange;
 967:.\Generated_Source\PSoC4/CYBLE_eventHandler.c ****         (void)memcpy((void *) discServInfo.uuid.uuid128.value, (void *)eventParam->value.val, event
 968:.\Generated_Source\PSoC4/CYBLE_eventHandler.c ****         CyBle_CustomcDiscoverServiceEventHandler(&discServInfo);
 969:.\Generated_Source\PSoC4/CYBLE_eventHandler.c ****         
 970:.\Generated_Source\PSoC4/CYBLE_eventHandler.c ****         /* Re-initiate CyBle_GattcFindIncludedServices function, setting the start
 971:.\Generated_Source\PSoC4/CYBLE_eventHandler.c ****            handle to the attribute handle which is placed next to the one used in
 972:.\Generated_Source\PSoC4/CYBLE_eventHandler.c ****            the above step.
 973:.\Generated_Source\PSoC4/CYBLE_eventHandler.c ****         */
 974:.\Generated_Source\PSoC4/CYBLE_eventHandler.c ****         discServInfo.range.startHandle = cyBle_discInclInfo.inclDefHandle + 1;
 975:.\Generated_Source\PSoC4/CYBLE_eventHandler.c ****         discServInfo.range.endHandle = cyBle_serverInfo[cyBle_disCount].range.endHandle;
 976:.\Generated_Source\PSoC4/CYBLE_eventHandler.c ****         if(discServInfo.range.startHandle <= discServInfo.range.endHandle)
 977:.\Generated_Source\PSoC4/CYBLE_eventHandler.c ****         {
 978:.\Generated_Source\PSoC4/CYBLE_eventHandler.c ****             if(CYBLE_ERROR_OK != CyBle_GattcFindIncludedServices(cyBle_connHandle, &discServInfo.ra
 979:.\Generated_Source\PSoC4/CYBLE_eventHandler.c ****             {
 980:.\Generated_Source\PSoC4/CYBLE_eventHandler.c ****                 CyBle_ApplCallback(CYBLE_EVT_GATTC_INCL_DISCOVERY_FAILED, NULL);
 981:.\Generated_Source\PSoC4/CYBLE_eventHandler.c ****                 cyBle_eventHandlerFlag &= (uint8)~CYBLE_AUTO_DISCOVERY;
 982:.\Generated_Source\PSoC4/CYBLE_eventHandler.c ****             }
 983:.\Generated_Source\PSoC4/CYBLE_eventHandler.c ****         }
 984:.\Generated_Source\PSoC4/CYBLE_eventHandler.c ****         else /* Continue discovery of the following service */
 985:.\Generated_Source\PSoC4/CYBLE_eventHandler.c ****         {
 986:.\Generated_Source\PSoC4/CYBLE_eventHandler.c ****             CyBle_NextInclDiscovery(CYBLE_DISCOVERY_CONTINUE);
 987:.\Generated_Source\PSoC4/CYBLE_eventHandler.c ****         }
 988:.\Generated_Source\PSoC4/CYBLE_eventHandler.c ****         
 989:.\Generated_Source\PSoC4/CYBLE_eventHandler.c ****         cyBle_eventHandlerFlag &= (uint8)~CYBLE_CALLBACK;
 990:.\Generated_Source\PSoC4/CYBLE_eventHandler.c ****         cyBle_discInclInfo.inclDefHandle = 0u;
 991:.\Generated_Source\PSoC4/CYBLE_eventHandler.c ****         
 992:.\Generated_Source\PSoC4/CYBLE_eventHandler.c ****     }
 993:.\Generated_Source\PSoC4/CYBLE_eventHandler.c **** #endif /* CYBLE_CUSTOM_CLIENT */
 994:.\Generated_Source\PSoC4/CYBLE_eventHandler.c **** #ifdef CYBLE_ANCS_CLIENT
 995:.\Generated_Source\PSoC4/CYBLE_eventHandler.c ****     if((cyBle_eventHandlerFlag & CYBLE_CALLBACK) != 0u)
 996:.\Generated_Source\PSoC4/CYBLE_eventHandler.c ****     {
 997:.\Generated_Source\PSoC4/CYBLE_eventHandler.c ****         CyBle_AncscReadResponseEventHandler(eventParam);
 998:.\Generated_Source\PSoC4/CYBLE_eventHandler.c ****     }
 999:.\Generated_Source\PSoC4/CYBLE_eventHandler.c **** #endif /* CYBLE_ANCS_CLIENT */
1000:.\Generated_Source\PSoC4/CYBLE_eventHandler.c **** #ifdef CYBLE_ANS_CLIENT
1001:.\Generated_Source\PSoC4/CYBLE_eventHandler.c ****     if((cyBle_eventHandlerFlag & CYBLE_CALLBACK) != 0u)
1002:.\Generated_Source\PSoC4/CYBLE_eventHandler.c ****     {
1003:.\Generated_Source\PSoC4/CYBLE_eventHandler.c ****         CyBle_AnscReadResponseEventHandler(eventParam);
1004:.\Generated_Source\PSoC4/CYBLE_eventHandler.c ****     }
1005:.\Generated_Source\PSoC4/CYBLE_eventHandler.c **** #endif /* CYBLE_ANS_CLIENT */
1006:.\Generated_Source\PSoC4/CYBLE_eventHandler.c **** #ifdef CYBLE_BAS_CLIENT
1007:.\Generated_Source\PSoC4/CYBLE_eventHandler.c ****     if((cyBle_eventHandlerFlag & CYBLE_CALLBACK) != 0u)
1008:.\Generated_Source\PSoC4/CYBLE_eventHandler.c ****     {
1009:.\Generated_Source\PSoC4/CYBLE_eventHandler.c ****         CyBle_BascReadResponseEventHandler(eventParam);
1010:.\Generated_Source\PSoC4/CYBLE_eventHandler.c ****     }
1011:.\Generated_Source\PSoC4/CYBLE_eventHandler.c **** #endif /* CYBLE_BAS_CLIENT */
1012:.\Generated_Source\PSoC4/CYBLE_eventHandler.c **** #ifdef CYBLE_BLS_CLIENT
1013:.\Generated_Source\PSoC4/CYBLE_eventHandler.c ****     if((cyBle_eventHandlerFlag & CYBLE_CALLBACK) != 0u)
1014:.\Generated_Source\PSoC4/CYBLE_eventHandler.c ****     {
1015:.\Generated_Source\PSoC4/CYBLE_eventHandler.c ****         CyBle_BlscReadResponseEventHandler(eventParam);
1016:.\Generated_Source\PSoC4/CYBLE_eventHandler.c ****     }
1017:.\Generated_Source\PSoC4/CYBLE_eventHandler.c **** #endif /* CYBLE_BLS_CLIENT */
1018:.\Generated_Source\PSoC4/CYBLE_eventHandler.c **** #ifdef CYBLE_BCS_CLIENT
1019:.\Generated_Source\PSoC4/CYBLE_eventHandler.c ****     if((cyBle_eventHandlerFlag & CYBLE_CALLBACK) != 0u)
1020:.\Generated_Source\PSoC4/CYBLE_eventHandler.c ****     {
1021:.\Generated_Source\PSoC4/CYBLE_eventHandler.c ****         CyBle_BcscReadResponseEventHandler(eventParam);
1022:.\Generated_Source\PSoC4/CYBLE_eventHandler.c ****     }
ARM GAS  C:\Users\igreg\AppData\Local\Temp\ccnO9ZHN.s 			page 22


1023:.\Generated_Source\PSoC4/CYBLE_eventHandler.c **** #endif /* CYBLE_BCS_CLIENT */
1024:.\Generated_Source\PSoC4/CYBLE_eventHandler.c **** #ifdef CYBLE_BMS_CLIENT
1025:.\Generated_Source\PSoC4/CYBLE_eventHandler.c ****     if((cyBle_eventHandlerFlag & CYBLE_CALLBACK) != 0u)
1026:.\Generated_Source\PSoC4/CYBLE_eventHandler.c ****     {
1027:.\Generated_Source\PSoC4/CYBLE_eventHandler.c ****         CyBle_BmscReadResponseEventHandler(eventParam);
1028:.\Generated_Source\PSoC4/CYBLE_eventHandler.c ****     }
1029:.\Generated_Source\PSoC4/CYBLE_eventHandler.c **** #endif /* CYBLE_BMS_CLIENT */
1030:.\Generated_Source\PSoC4/CYBLE_eventHandler.c **** #ifdef CYBLE_CGMS_CLIENT
1031:.\Generated_Source\PSoC4/CYBLE_eventHandler.c ****     if((cyBle_eventHandlerFlag & CYBLE_CALLBACK) != 0u)
1032:.\Generated_Source\PSoC4/CYBLE_eventHandler.c ****     {
1033:.\Generated_Source\PSoC4/CYBLE_eventHandler.c ****         CyBle_CgmscReadResponseEventHandler(eventParam);
1034:.\Generated_Source\PSoC4/CYBLE_eventHandler.c ****     }
1035:.\Generated_Source\PSoC4/CYBLE_eventHandler.c **** #endif /* CYBLE_CGMS_CLIENT */
1036:.\Generated_Source\PSoC4/CYBLE_eventHandler.c **** #ifdef CYBLE_CPS_CLIENT
1037:.\Generated_Source\PSoC4/CYBLE_eventHandler.c ****     if((cyBle_eventHandlerFlag & CYBLE_CALLBACK) != 0u)
1038:.\Generated_Source\PSoC4/CYBLE_eventHandler.c ****     {
1039:.\Generated_Source\PSoC4/CYBLE_eventHandler.c ****         CyBle_CpscReadResponseEventHandler(eventParam);
1040:.\Generated_Source\PSoC4/CYBLE_eventHandler.c ****     }
1041:.\Generated_Source\PSoC4/CYBLE_eventHandler.c **** #endif /* CYBLE_CPS_CLIENT */
1042:.\Generated_Source\PSoC4/CYBLE_eventHandler.c **** #ifdef CYBLE_CSCS_CLIENT
1043:.\Generated_Source\PSoC4/CYBLE_eventHandler.c ****     if((cyBle_eventHandlerFlag & CYBLE_CALLBACK) != 0u)
1044:.\Generated_Source\PSoC4/CYBLE_eventHandler.c ****     {
1045:.\Generated_Source\PSoC4/CYBLE_eventHandler.c ****         CyBle_CscscReadResponseEventHandler(eventParam);
1046:.\Generated_Source\PSoC4/CYBLE_eventHandler.c ****     }
1047:.\Generated_Source\PSoC4/CYBLE_eventHandler.c **** #endif /* CYBLE_CSCS_CLIENT */
1048:.\Generated_Source\PSoC4/CYBLE_eventHandler.c **** #ifdef CYBLE_CTS_CLIENT
1049:.\Generated_Source\PSoC4/CYBLE_eventHandler.c ****     if((cyBle_eventHandlerFlag & CYBLE_CALLBACK) != 0u)
1050:.\Generated_Source\PSoC4/CYBLE_eventHandler.c ****     {
1051:.\Generated_Source\PSoC4/CYBLE_eventHandler.c ****         CyBle_CtscReadResponseEventHandler(eventParam);
1052:.\Generated_Source\PSoC4/CYBLE_eventHandler.c ****     }
1053:.\Generated_Source\PSoC4/CYBLE_eventHandler.c **** #endif /* CYBLE_BAS_CLIENT */
1054:.\Generated_Source\PSoC4/CYBLE_eventHandler.c **** #ifdef CYBLE_DIS_CLIENT
1055:.\Generated_Source\PSoC4/CYBLE_eventHandler.c ****     if((cyBle_eventHandlerFlag & CYBLE_CALLBACK) != 0u)
1056:.\Generated_Source\PSoC4/CYBLE_eventHandler.c ****     {
1057:.\Generated_Source\PSoC4/CYBLE_eventHandler.c ****         CyBle_DiscReadResponseEventHandler(eventParam);
1058:.\Generated_Source\PSoC4/CYBLE_eventHandler.c ****     }
1059:.\Generated_Source\PSoC4/CYBLE_eventHandler.c **** #endif /* CYBLE_DIS_CLIENT */
1060:.\Generated_Source\PSoC4/CYBLE_eventHandler.c **** #ifdef CYBLE_ESS_CLIENT
1061:.\Generated_Source\PSoC4/CYBLE_eventHandler.c ****     if((cyBle_eventHandlerFlag & CYBLE_CALLBACK) != 0u)
1062:.\Generated_Source\PSoC4/CYBLE_eventHandler.c ****     {
1063:.\Generated_Source\PSoC4/CYBLE_eventHandler.c ****         CyBle_EsscReadResponseEventHandler(eventParam);
1064:.\Generated_Source\PSoC4/CYBLE_eventHandler.c ****     }
1065:.\Generated_Source\PSoC4/CYBLE_eventHandler.c **** #endif /* CYBLE_ESS_CLIENT */
1066:.\Generated_Source\PSoC4/CYBLE_eventHandler.c **** #ifdef CYBLE_GLS_CLIENT
1067:.\Generated_Source\PSoC4/CYBLE_eventHandler.c ****     if((cyBle_eventHandlerFlag & CYBLE_CALLBACK) != 0u)
1068:.\Generated_Source\PSoC4/CYBLE_eventHandler.c ****     {
1069:.\Generated_Source\PSoC4/CYBLE_eventHandler.c ****         CyBle_GlscReadResponseEventHandler(eventParam);
1070:.\Generated_Source\PSoC4/CYBLE_eventHandler.c ****     }
1071:.\Generated_Source\PSoC4/CYBLE_eventHandler.c **** #endif /* CYBLE_GLS_CLIENT */
1072:.\Generated_Source\PSoC4/CYBLE_eventHandler.c **** #ifdef CYBLE_HIDS_CLIENT
1073:.\Generated_Source\PSoC4/CYBLE_eventHandler.c ****     if((cyBle_eventHandlerFlag & CYBLE_CALLBACK) != 0u)
1074:.\Generated_Source\PSoC4/CYBLE_eventHandler.c ****     {
1075:.\Generated_Source\PSoC4/CYBLE_eventHandler.c ****         CyBle_HidscReadResponseEventHandler(eventParam);
1076:.\Generated_Source\PSoC4/CYBLE_eventHandler.c ****     }
1077:.\Generated_Source\PSoC4/CYBLE_eventHandler.c **** #endif /* CYBLE_HIDS_CLIENT */
1078:.\Generated_Source\PSoC4/CYBLE_eventHandler.c **** #ifdef CYBLE_HPS_CLIENT
1079:.\Generated_Source\PSoC4/CYBLE_eventHandler.c ****     if((cyBle_eventHandlerFlag & CYBLE_CALLBACK) != 0u)
ARM GAS  C:\Users\igreg\AppData\Local\Temp\ccnO9ZHN.s 			page 23


1080:.\Generated_Source\PSoC4/CYBLE_eventHandler.c ****     {
1081:.\Generated_Source\PSoC4/CYBLE_eventHandler.c ****         CyBle_HpscReadResponseEventHandler(eventParam);
1082:.\Generated_Source\PSoC4/CYBLE_eventHandler.c ****     }
1083:.\Generated_Source\PSoC4/CYBLE_eventHandler.c **** #endif /* CYBLE_HPS_CLIENT */
1084:.\Generated_Source\PSoC4/CYBLE_eventHandler.c **** #ifdef CYBLE_HRS_CLIENT
1085:.\Generated_Source\PSoC4/CYBLE_eventHandler.c ****     if((cyBle_eventHandlerFlag & CYBLE_CALLBACK) != 0u)
1086:.\Generated_Source\PSoC4/CYBLE_eventHandler.c ****     {
1087:.\Generated_Source\PSoC4/CYBLE_eventHandler.c ****         CyBle_HrscReadResponseEventHandler(eventParam);
1088:.\Generated_Source\PSoC4/CYBLE_eventHandler.c ****     }
1089:.\Generated_Source\PSoC4/CYBLE_eventHandler.c **** #endif /* CYBLE_HRS_CLIENT */
1090:.\Generated_Source\PSoC4/CYBLE_eventHandler.c **** #ifdef CYBLE_HTS_CLIENT
1091:.\Generated_Source\PSoC4/CYBLE_eventHandler.c ****     if((cyBle_eventHandlerFlag & CYBLE_CALLBACK) != 0u)
1092:.\Generated_Source\PSoC4/CYBLE_eventHandler.c ****     {
1093:.\Generated_Source\PSoC4/CYBLE_eventHandler.c ****         CyBle_HtscReadResponseEventHandler(eventParam);
1094:.\Generated_Source\PSoC4/CYBLE_eventHandler.c ****     }
1095:.\Generated_Source\PSoC4/CYBLE_eventHandler.c **** #endif /* CYBLE_HTS_CLIENT */
1096:.\Generated_Source\PSoC4/CYBLE_eventHandler.c **** #ifdef CYBLE_LLS_CLIENT
1097:.\Generated_Source\PSoC4/CYBLE_eventHandler.c ****     if((cyBle_eventHandlerFlag & CYBLE_CALLBACK) != 0u)
1098:.\Generated_Source\PSoC4/CYBLE_eventHandler.c ****     {
1099:.\Generated_Source\PSoC4/CYBLE_eventHandler.c ****         CyBle_LlscReadResponseEventHandler(eventParam);
1100:.\Generated_Source\PSoC4/CYBLE_eventHandler.c ****     }
1101:.\Generated_Source\PSoC4/CYBLE_eventHandler.c **** #endif /* CYBLE_LLS_CLIENT */
1102:.\Generated_Source\PSoC4/CYBLE_eventHandler.c **** #ifdef CYBLE_LNS_CLIENT
1103:.\Generated_Source\PSoC4/CYBLE_eventHandler.c ****     if((cyBle_eventHandlerFlag & CYBLE_CALLBACK) != 0u)
1104:.\Generated_Source\PSoC4/CYBLE_eventHandler.c ****     {
1105:.\Generated_Source\PSoC4/CYBLE_eventHandler.c ****         CyBle_LnscReadResponseEventHandler(eventParam);
1106:.\Generated_Source\PSoC4/CYBLE_eventHandler.c ****     }
1107:.\Generated_Source\PSoC4/CYBLE_eventHandler.c **** #endif /* CYBLE_LNS_CLIENT */
1108:.\Generated_Source\PSoC4/CYBLE_eventHandler.c **** #ifdef CYBLE_NDCS_CLIENT
1109:.\Generated_Source\PSoC4/CYBLE_eventHandler.c ****     if((cyBle_eventHandlerFlag & CYBLE_CALLBACK) != 0u)
1110:.\Generated_Source\PSoC4/CYBLE_eventHandler.c ****     {
1111:.\Generated_Source\PSoC4/CYBLE_eventHandler.c ****         CyBle_NdcscReadResponseEventHandler(eventParam);
1112:.\Generated_Source\PSoC4/CYBLE_eventHandler.c ****     }
1113:.\Generated_Source\PSoC4/CYBLE_eventHandler.c **** #endif /* CYBLE_NDCS_CLIENT */
1114:.\Generated_Source\PSoC4/CYBLE_eventHandler.c **** #ifdef CYBLE_PASS_CLIENT
1115:.\Generated_Source\PSoC4/CYBLE_eventHandler.c ****     if((cyBle_eventHandlerFlag & CYBLE_CALLBACK) != 0u)
1116:.\Generated_Source\PSoC4/CYBLE_eventHandler.c ****     {
1117:.\Generated_Source\PSoC4/CYBLE_eventHandler.c ****         CyBle_PasscReadResponseEventHandler(eventParam);
1118:.\Generated_Source\PSoC4/CYBLE_eventHandler.c ****     }
1119:.\Generated_Source\PSoC4/CYBLE_eventHandler.c **** #endif /* CYBLE_PASS_CLIENT */
1120:.\Generated_Source\PSoC4/CYBLE_eventHandler.c **** #ifdef CYBLE_RSCS_CLIENT
1121:.\Generated_Source\PSoC4/CYBLE_eventHandler.c ****     if((cyBle_eventHandlerFlag & CYBLE_CALLBACK) != 0u)
1122:.\Generated_Source\PSoC4/CYBLE_eventHandler.c ****     {
1123:.\Generated_Source\PSoC4/CYBLE_eventHandler.c ****         CyBle_RscscReadResponseEventHandler(eventParam);
1124:.\Generated_Source\PSoC4/CYBLE_eventHandler.c ****     }
1125:.\Generated_Source\PSoC4/CYBLE_eventHandler.c **** #endif /* CYBLE_RSCS_CLIENT */
1126:.\Generated_Source\PSoC4/CYBLE_eventHandler.c **** #ifdef CYBLE_RTUS_CLIENT
1127:.\Generated_Source\PSoC4/CYBLE_eventHandler.c ****     if((cyBle_eventHandlerFlag & CYBLE_CALLBACK) != 0u)
1128:.\Generated_Source\PSoC4/CYBLE_eventHandler.c ****     {
1129:.\Generated_Source\PSoC4/CYBLE_eventHandler.c ****         CyBle_RtuscReadResponseEventHandler(eventParam);
1130:.\Generated_Source\PSoC4/CYBLE_eventHandler.c ****     }
1131:.\Generated_Source\PSoC4/CYBLE_eventHandler.c **** #endif /* CYBLE_RTUS_CLIENT */
1132:.\Generated_Source\PSoC4/CYBLE_eventHandler.c **** #ifdef CYBLE_SCPS_CLIENT
1133:.\Generated_Source\PSoC4/CYBLE_eventHandler.c ****     if((cyBle_eventHandlerFlag & CYBLE_CALLBACK) != 0u)
1134:.\Generated_Source\PSoC4/CYBLE_eventHandler.c ****     {
1135:.\Generated_Source\PSoC4/CYBLE_eventHandler.c ****         CyBle_ScpscReadResponseEventHandler(eventParam);
1136:.\Generated_Source\PSoC4/CYBLE_eventHandler.c ****     }
ARM GAS  C:\Users\igreg\AppData\Local\Temp\ccnO9ZHN.s 			page 24


1137:.\Generated_Source\PSoC4/CYBLE_eventHandler.c **** #endif /* CYBLE_SCPS_CLIENT */
1138:.\Generated_Source\PSoC4/CYBLE_eventHandler.c **** #ifdef CYBLE_TPS_CLIENT
1139:.\Generated_Source\PSoC4/CYBLE_eventHandler.c ****     if((cyBle_eventHandlerFlag & CYBLE_CALLBACK) != 0u)
1140:.\Generated_Source\PSoC4/CYBLE_eventHandler.c ****     {
1141:.\Generated_Source\PSoC4/CYBLE_eventHandler.c ****         CyBle_TpscReadResponseEventHandler(eventParam);
1142:.\Generated_Source\PSoC4/CYBLE_eventHandler.c ****     }
1143:.\Generated_Source\PSoC4/CYBLE_eventHandler.c **** #endif /* CYBLE_TPS_CLIENT */
1144:.\Generated_Source\PSoC4/CYBLE_eventHandler.c **** #ifdef CYBLE_UDS_CLIENT
1145:.\Generated_Source\PSoC4/CYBLE_eventHandler.c ****     if((cyBle_eventHandlerFlag & CYBLE_CALLBACK) != 0u)
1146:.\Generated_Source\PSoC4/CYBLE_eventHandler.c ****     {
1147:.\Generated_Source\PSoC4/CYBLE_eventHandler.c ****         CyBle_UdscReadResponseEventHandler(eventParam);
1148:.\Generated_Source\PSoC4/CYBLE_eventHandler.c ****     }
1149:.\Generated_Source\PSoC4/CYBLE_eventHandler.c **** #endif /* CYBLE_UDS_CLIENT */
1150:.\Generated_Source\PSoC4/CYBLE_eventHandler.c **** #ifdef CYBLE_WPTS_CLIENT
1151:.\Generated_Source\PSoC4/CYBLE_eventHandler.c ****     if((cyBle_eventHandlerFlag & CYBLE_CALLBACK) != 0u)
1152:.\Generated_Source\PSoC4/CYBLE_eventHandler.c ****     {
1153:.\Generated_Source\PSoC4/CYBLE_eventHandler.c ****         CyBle_WptscReadResponseEventHandler(eventParam);
1154:.\Generated_Source\PSoC4/CYBLE_eventHandler.c ****     }
1155:.\Generated_Source\PSoC4/CYBLE_eventHandler.c **** #endif /* CYBLE_WPTS_CLIENT */
1156:.\Generated_Source\PSoC4/CYBLE_eventHandler.c **** #ifdef CYBLE_WSS_CLIENT
1157:.\Generated_Source\PSoC4/CYBLE_eventHandler.c ****     if((cyBle_eventHandlerFlag & CYBLE_CALLBACK) != 0u)
1158:.\Generated_Source\PSoC4/CYBLE_eventHandler.c ****     {
1159:.\Generated_Source\PSoC4/CYBLE_eventHandler.c ****         CyBle_WsscReadResponseEventHandler(eventParam);
1160:.\Generated_Source\PSoC4/CYBLE_eventHandler.c ****     }
1161:.\Generated_Source\PSoC4/CYBLE_eventHandler.c **** #endif /* CYBLE_WSS_CLIENT */
1162:.\Generated_Source\PSoC4/CYBLE_eventHandler.c **** }
1163:.\Generated_Source\PSoC4/CYBLE_eventHandler.c **** #endif /* CYBLE_GATT_ROLE_CLIENT */
1164:.\Generated_Source\PSoC4/CYBLE_eventHandler.c **** 
1165:.\Generated_Source\PSoC4/CYBLE_eventHandler.c **** 
1166:.\Generated_Source\PSoC4/CYBLE_eventHandler.c **** /****************************************************************************** 
1167:.\Generated_Source\PSoC4/CYBLE_eventHandler.c **** * Function Name: CyBle_DisconnectEventHandler
1168:.\Generated_Source\PSoC4/CYBLE_eventHandler.c **** ***************************************************************************//**
1169:.\Generated_Source\PSoC4/CYBLE_eventHandler.c **** * 
1170:.\Generated_Source\PSoC4/CYBLE_eventHandler.c **** *  Handles the GATT Disconnection event from the BLE stack.
1171:.\Generated_Source\PSoC4/CYBLE_eventHandler.c **** * 
1172:.\Generated_Source\PSoC4/CYBLE_eventHandler.c **** * \return
1173:.\Generated_Source\PSoC4/CYBLE_eventHandler.c **** *  None
1174:.\Generated_Source\PSoC4/CYBLE_eventHandler.c **** * 
1175:.\Generated_Source\PSoC4/CYBLE_eventHandler.c **** ******************************************************************************/
1176:.\Generated_Source\PSoC4/CYBLE_eventHandler.c **** static void CyBle_GattDisconnectEventHandler(void)
1177:.\Generated_Source\PSoC4/CYBLE_eventHandler.c **** {
 176              		.loc 1 1177 0
 177              		.cfi_startproc
 178 0000 80B5     		push	{r7, lr}
 179              		.cfi_def_cfa_offset 8
 180              		.cfi_offset 7, -8
 181              		.cfi_offset 14, -4
 182 0002 00AF     		add	r7, sp, #0
 183              		.cfi_def_cfa_register 7
1178:.\Generated_Source\PSoC4/CYBLE_eventHandler.c ****     cyBle_connHandle.attId = 0u;
 184              		.loc 1 1178 0
 185 0004 034B     		ldr	r3, .L9
 186 0006 0022     		mov	r2, #0
 187 0008 5A70     		strb	r2, [r3, #1]
1179:.\Generated_Source\PSoC4/CYBLE_eventHandler.c ****     cyBle_connHandle.bdHandle = 0u;
 188              		.loc 1 1179 0
 189 000a 024B     		ldr	r3, .L9
ARM GAS  C:\Users\igreg\AppData\Local\Temp\ccnO9ZHN.s 			page 25


 190 000c 0022     		mov	r2, #0
 191 000e 1A70     		strb	r2, [r3]
1180:.\Generated_Source\PSoC4/CYBLE_eventHandler.c ****     
1181:.\Generated_Source\PSoC4/CYBLE_eventHandler.c ****     #if (CYBLE_GATT_ROLE_CLIENT)
1182:.\Generated_Source\PSoC4/CYBLE_eventHandler.c ****         if(CYBLE_CLIENT_STATE_DISCOVERED == CyBle_GetClientState())
1183:.\Generated_Source\PSoC4/CYBLE_eventHandler.c ****         {
1184:.\Generated_Source\PSoC4/CYBLE_eventHandler.c ****             CyBle_SetClientState(CYBLE_CLIENT_STATE_DISCONNECTED_DISCOVERED);
1185:.\Generated_Source\PSoC4/CYBLE_eventHandler.c ****         }
1186:.\Generated_Source\PSoC4/CYBLE_eventHandler.c ****         else
1187:.\Generated_Source\PSoC4/CYBLE_eventHandler.c ****         {
1188:.\Generated_Source\PSoC4/CYBLE_eventHandler.c ****             CyBle_SetClientState(CYBLE_CLIENT_STATE_DISCONNECTED);
1189:.\Generated_Source\PSoC4/CYBLE_eventHandler.c ****         }
1190:.\Generated_Source\PSoC4/CYBLE_eventHandler.c ****     #endif /* CYBLE_GATT_ROLE_CLIENT */
1191:.\Generated_Source\PSoC4/CYBLE_eventHandler.c ****         
1192:.\Generated_Source\PSoC4/CYBLE_eventHandler.c ****     #ifdef CYBLE_CPS_SERVER
1193:.\Generated_Source\PSoC4/CYBLE_eventHandler.c ****         #if CYBLE_GAP_ROLE_BROADCASTER
1194:.\Generated_Source\PSoC4/CYBLE_eventHandler.c ****             CyBle_CpssDisconnectEventHandler();
1195:.\Generated_Source\PSoC4/CYBLE_eventHandler.c ****         #endif /* CYBLE_GAP_ROLE_BROADCASTER */
1196:.\Generated_Source\PSoC4/CYBLE_eventHandler.c ****     #endif /* CYBLE_CPS_SERVER */
1197:.\Generated_Source\PSoC4/CYBLE_eventHandler.c **** 
1198:.\Generated_Source\PSoC4/CYBLE_eventHandler.c ****     #ifdef CYBLE_CPS_CLIENT
1199:.\Generated_Source\PSoC4/CYBLE_eventHandler.c ****         CyBle_CpscDisconnectEventHandler();
1200:.\Generated_Source\PSoC4/CYBLE_eventHandler.c ****     #endif /* CYBLE_CPS_CLIENT */
1201:.\Generated_Source\PSoC4/CYBLE_eventHandler.c **** 
1202:.\Generated_Source\PSoC4/CYBLE_eventHandler.c ****     #ifdef CYBLE_IAS_SERVER
1203:.\Generated_Source\PSoC4/CYBLE_eventHandler.c ****         CyBle_IassDisconnectEventHandler();
1204:.\Generated_Source\PSoC4/CYBLE_eventHandler.c ****     #endif /* CYBLE_IAS_SERVER */
1205:.\Generated_Source\PSoC4/CYBLE_eventHandler.c ****     
1206:.\Generated_Source\PSoC4/CYBLE_eventHandler.c ****     #ifdef CYBLE_GLS_SERVER
1207:.\Generated_Source\PSoC4/CYBLE_eventHandler.c ****         CyBle_GlsInit();
1208:.\Generated_Source\PSoC4/CYBLE_eventHandler.c ****     #endif /* CYBLE_GLS_SERVER */
1209:.\Generated_Source\PSoC4/CYBLE_eventHandler.c ****     
1210:.\Generated_Source\PSoC4/CYBLE_eventHandler.c ****     #ifdef CYBLE_LNS_SERVER
1211:.\Generated_Source\PSoC4/CYBLE_eventHandler.c ****         CyBle_LnsInit();
1212:.\Generated_Source\PSoC4/CYBLE_eventHandler.c ****     #endif /* CYBLE_LNS_SERVER */
1213:.\Generated_Source\PSoC4/CYBLE_eventHandler.c ****     
1214:.\Generated_Source\PSoC4/CYBLE_eventHandler.c ****     #ifdef CYBLE_UDS_SERVER
1215:.\Generated_Source\PSoC4/CYBLE_eventHandler.c ****         CyBle_UdsInit();
1216:.\Generated_Source\PSoC4/CYBLE_eventHandler.c ****     #endif /* CYBLE_UDS_SERVER */
1217:.\Generated_Source\PSoC4/CYBLE_eventHandler.c **** }
 192              		.loc 1 1217 0
 193 0010 BD46     		mov	sp, r7
 194              		@ sp needed
 195 0012 80BD     		pop	{r7, pc}
 196              	.L10:
 197              		.align	2
 198              	.L9:
 199 0014 00000000 		.word	cyBle_connHandle
 200              		.cfi_endproc
 201              	.LFE4:
 202              		.size	CyBle_GattDisconnectEventHandler, .-CyBle_GattDisconnectEventHandler
 203              		.section	.text.CyBle_TimeOutEventHandler,"ax",%progbits
 204              		.align	2
 205              		.code	16
 206              		.thumb_func
 207              		.type	CyBle_TimeOutEventHandler, %function
 208              	CyBle_TimeOutEventHandler:
ARM GAS  C:\Users\igreg\AppData\Local\Temp\ccnO9ZHN.s 			page 26


 209              	.LFB5:
1218:.\Generated_Source\PSoC4/CYBLE_eventHandler.c **** 
1219:.\Generated_Source\PSoC4/CYBLE_eventHandler.c **** 
1220:.\Generated_Source\PSoC4/CYBLE_eventHandler.c **** /****************************************************************************** 
1221:.\Generated_Source\PSoC4/CYBLE_eventHandler.c **** * Function Name: CyBle_TimeOutEventHandler
1222:.\Generated_Source\PSoC4/CYBLE_eventHandler.c **** ***************************************************************************//**
1223:.\Generated_Source\PSoC4/CYBLE_eventHandler.c **** * 
1224:.\Generated_Source\PSoC4/CYBLE_eventHandler.c **** *  Handles the CYBLE_EVT_TIMEOUT event from the BLE stack.
1225:.\Generated_Source\PSoC4/CYBLE_eventHandler.c **** * 
1226:.\Generated_Source\PSoC4/CYBLE_eventHandler.c **** *  \param eventParam: The pointer to a structure of type CYBLE_TO_REASON_CODE_T.
1227:.\Generated_Source\PSoC4/CYBLE_eventHandler.c **** * 
1228:.\Generated_Source\PSoC4/CYBLE_eventHandler.c **** * \return
1229:.\Generated_Source\PSoC4/CYBLE_eventHandler.c **** *  None
1230:.\Generated_Source\PSoC4/CYBLE_eventHandler.c **** * 
1231:.\Generated_Source\PSoC4/CYBLE_eventHandler.c **** ******************************************************************************/
1232:.\Generated_Source\PSoC4/CYBLE_eventHandler.c **** static void CyBle_TimeOutEventHandler(const CYBLE_TO_REASON_CODE_T *eventParam)
1233:.\Generated_Source\PSoC4/CYBLE_eventHandler.c **** {
 210              		.loc 1 1233 0
 211              		.cfi_startproc
 212 0000 80B5     		push	{r7, lr}
 213              		.cfi_def_cfa_offset 8
 214              		.cfi_offset 7, -8
 215              		.cfi_offset 14, -4
 216 0002 82B0     		sub	sp, sp, #8
 217              		.cfi_def_cfa_offset 16
 218 0004 00AF     		add	r7, sp, #0
 219              		.cfi_def_cfa_register 7
 220 0006 7860     		str	r0, [r7, #4]
1234:.\Generated_Source\PSoC4/CYBLE_eventHandler.c ****     if(*eventParam == CYBLE_GATT_RSP_TO)
1235:.\Generated_Source\PSoC4/CYBLE_eventHandler.c ****     {
1236:.\Generated_Source\PSoC4/CYBLE_eventHandler.c ****     #if (CYBLE_GATT_ROLE_CLIENT)
1237:.\Generated_Source\PSoC4/CYBLE_eventHandler.c ****         if((cyBle_eventHandlerFlag & CYBLE_AUTO_DISCOVERY) != 0u)
1238:.\Generated_Source\PSoC4/CYBLE_eventHandler.c ****         {
1239:.\Generated_Source\PSoC4/CYBLE_eventHandler.c ****             switch(CyBle_GetClientState())
1240:.\Generated_Source\PSoC4/CYBLE_eventHandler.c ****             {
1241:.\Generated_Source\PSoC4/CYBLE_eventHandler.c ****                 case CYBLE_CLIENT_STATE_SRVC_DISCOVERING:
1242:.\Generated_Source\PSoC4/CYBLE_eventHandler.c ****                     CyBle_ApplCallback(CYBLE_EVT_GATTC_SRVC_DISCOVERY_FAILED, NULL);
1243:.\Generated_Source\PSoC4/CYBLE_eventHandler.c ****                     break;
1244:.\Generated_Source\PSoC4/CYBLE_eventHandler.c ****                 case CYBLE_CLIENT_STATE_INCL_DISCOVERING:
1245:.\Generated_Source\PSoC4/CYBLE_eventHandler.c ****                     CyBle_ApplCallback(CYBLE_EVT_GATTC_INCL_DISCOVERY_FAILED, NULL);
1246:.\Generated_Source\PSoC4/CYBLE_eventHandler.c ****                     break;
1247:.\Generated_Source\PSoC4/CYBLE_eventHandler.c ****                 case CYBLE_CLIENT_STATE_CHAR_DISCOVERING:
1248:.\Generated_Source\PSoC4/CYBLE_eventHandler.c ****                     CyBle_ApplCallback(CYBLE_EVT_GATTC_CHAR_DISCOVERY_FAILED, NULL);
1249:.\Generated_Source\PSoC4/CYBLE_eventHandler.c ****                     break;
1250:.\Generated_Source\PSoC4/CYBLE_eventHandler.c ****                 case CYBLE_CLIENT_STATE_DESCR_DISCOVERING:
1251:.\Generated_Source\PSoC4/CYBLE_eventHandler.c ****                     CyBle_ApplCallback(CYBLE_EVT_GATTC_DESCR_DISCOVERY_FAILED, NULL);
1252:.\Generated_Source\PSoC4/CYBLE_eventHandler.c ****                     break;
1253:.\Generated_Source\PSoC4/CYBLE_eventHandler.c ****                 default:        /* Other states should not be set in Auto discovery mode */
1254:.\Generated_Source\PSoC4/CYBLE_eventHandler.c ****                     break;
1255:.\Generated_Source\PSoC4/CYBLE_eventHandler.c ****             }
1256:.\Generated_Source\PSoC4/CYBLE_eventHandler.c ****             cyBle_eventHandlerFlag &= (uint8)~CYBLE_AUTO_DISCOVERY;
1257:.\Generated_Source\PSoC4/CYBLE_eventHandler.c ****             CyBle_SetClientState(CYBLE_CLIENT_STATE_CONNECTED);
1258:.\Generated_Source\PSoC4/CYBLE_eventHandler.c ****         }
1259:.\Generated_Source\PSoC4/CYBLE_eventHandler.c ****     #endif /* CYBLE_GATT_ROLE_CLIENT */
1260:.\Generated_Source\PSoC4/CYBLE_eventHandler.c ****     #ifdef CYBLE_CPS_SERVER
1261:.\Generated_Source\PSoC4/CYBLE_eventHandler.c ****         CyBle_CpssTimeOutEventHandler();
1262:.\Generated_Source\PSoC4/CYBLE_eventHandler.c ****     #endif /* CYBLE_CPS_SERVER */
ARM GAS  C:\Users\igreg\AppData\Local\Temp\ccnO9ZHN.s 			page 27


1263:.\Generated_Source\PSoC4/CYBLE_eventHandler.c ****     }
1264:.\Generated_Source\PSoC4/CYBLE_eventHandler.c ****     
1265:.\Generated_Source\PSoC4/CYBLE_eventHandler.c ****     /* Connection procedure timeout */
1266:.\Generated_Source\PSoC4/CYBLE_eventHandler.c ****     if(*eventParam == CYBLE_GENERIC_TO)
1267:.\Generated_Source\PSoC4/CYBLE_eventHandler.c ****     {
1268:.\Generated_Source\PSoC4/CYBLE_eventHandler.c ****     #if(CYBLE_GAP_ROLE_CENTRAL)
1269:.\Generated_Source\PSoC4/CYBLE_eventHandler.c ****         if(CYBLE_STATE_CONNECTING == CyBle_GetState())
1270:.\Generated_Source\PSoC4/CYBLE_eventHandler.c ****         {
1271:.\Generated_Source\PSoC4/CYBLE_eventHandler.c ****             (void)CyBle_GapcCancelDeviceConnection();
1272:.\Generated_Source\PSoC4/CYBLE_eventHandler.c ****         }
1273:.\Generated_Source\PSoC4/CYBLE_eventHandler.c ****     #endif /* CYBLE_GAP_ROLE_CENTRAL */
1274:.\Generated_Source\PSoC4/CYBLE_eventHandler.c ****     }
1275:.\Generated_Source\PSoC4/CYBLE_eventHandler.c **** }
 221              		.loc 1 1275 0
 222 0008 BD46     		mov	sp, r7
 223 000a 02B0     		add	sp, sp, #8
 224              		@ sp needed
 225 000c 80BD     		pop	{r7, pc}
 226              		.cfi_endproc
 227              	.LFE5:
 228              		.size	CyBle_TimeOutEventHandler, .-CyBle_TimeOutEventHandler
 229              		.section	.text.CyBle_GattConnectReqHandler,"ax",%progbits
 230              		.align	2
 231              		.code	16
 232              		.thumb_func
 233              		.type	CyBle_GattConnectReqHandler, %function
 234              	CyBle_GattConnectReqHandler:
 235              	.LFB6:
1276:.\Generated_Source\PSoC4/CYBLE_eventHandler.c **** 
1277:.\Generated_Source\PSoC4/CYBLE_eventHandler.c **** 
1278:.\Generated_Source\PSoC4/CYBLE_eventHandler.c **** /****************************************************************************** 
1279:.\Generated_Source\PSoC4/CYBLE_eventHandler.c **** * Function Name: CyBle_GattConnectReqHandler
1280:.\Generated_Source\PSoC4/CYBLE_eventHandler.c **** ***************************************************************************//**
1281:.\Generated_Source\PSoC4/CYBLE_eventHandler.c **** * 
1282:.\Generated_Source\PSoC4/CYBLE_eventHandler.c **** *  Handles the GATT connect event from the BLE stack.
1283:.\Generated_Source\PSoC4/CYBLE_eventHandler.c **** * 
1284:.\Generated_Source\PSoC4/CYBLE_eventHandler.c **** * \return
1285:.\Generated_Source\PSoC4/CYBLE_eventHandler.c **** *  None
1286:.\Generated_Source\PSoC4/CYBLE_eventHandler.c **** * 
1287:.\Generated_Source\PSoC4/CYBLE_eventHandler.c **** ******************************************************************************/
1288:.\Generated_Source\PSoC4/CYBLE_eventHandler.c **** static void CyBle_GattConnectReqHandler(void)
1289:.\Generated_Source\PSoC4/CYBLE_eventHandler.c **** {
 236              		.loc 1 1289 0
 237              		.cfi_startproc
 238 0000 80B5     		push	{r7, lr}
 239              		.cfi_def_cfa_offset 8
 240              		.cfi_offset 7, -8
 241              		.cfi_offset 14, -4
 242 0002 00AF     		add	r7, sp, #0
 243              		.cfi_def_cfa_register 7
1290:.\Generated_Source\PSoC4/CYBLE_eventHandler.c ****     #ifdef CYBLE_CGMS_SERVER
1291:.\Generated_Source\PSoC4/CYBLE_eventHandler.c ****         CyBle_CgmsInit();
1292:.\Generated_Source\PSoC4/CYBLE_eventHandler.c ****     #endif /* CYBLE_CGMS_SERVER */
1293:.\Generated_Source\PSoC4/CYBLE_eventHandler.c ****     
1294:.\Generated_Source\PSoC4/CYBLE_eventHandler.c ****     #ifdef CYBLE_CPS_SERVER
1295:.\Generated_Source\PSoC4/CYBLE_eventHandler.c ****         CyBle_CpssConnectEventHandler();
1296:.\Generated_Source\PSoC4/CYBLE_eventHandler.c ****     #endif /* CYBLE_CPS_SERVER */
ARM GAS  C:\Users\igreg\AppData\Local\Temp\ccnO9ZHN.s 			page 28


1297:.\Generated_Source\PSoC4/CYBLE_eventHandler.c ****     
1298:.\Generated_Source\PSoC4/CYBLE_eventHandler.c ****     #ifdef CYBLE_CSCS_SERVER
1299:.\Generated_Source\PSoC4/CYBLE_eventHandler.c ****             CyBle_CscsInit();
1300:.\Generated_Source\PSoC4/CYBLE_eventHandler.c ****     #endif /* CYBLE_CSCS_SERVER */
1301:.\Generated_Source\PSoC4/CYBLE_eventHandler.c ****     
1302:.\Generated_Source\PSoC4/CYBLE_eventHandler.c ****     #ifdef CYBLE_LLS_SERVER
1303:.\Generated_Source\PSoC4/CYBLE_eventHandler.c ****         CyBle_LlssConnectEventHandler();
1304:.\Generated_Source\PSoC4/CYBLE_eventHandler.c ****     #endif /* CYBLE_LLS_SERVER */
1305:.\Generated_Source\PSoC4/CYBLE_eventHandler.c ****     
1306:.\Generated_Source\PSoC4/CYBLE_eventHandler.c ****     #ifdef CYBLE_HIDS_SERVER
1307:.\Generated_Source\PSoC4/CYBLE_eventHandler.c ****         CyBle_HidssOnDeviceConnected();
1308:.\Generated_Source\PSoC4/CYBLE_eventHandler.c ****     #endif /* CYBLE_HIDS_SERVER */
1309:.\Generated_Source\PSoC4/CYBLE_eventHandler.c **** 
1310:.\Generated_Source\PSoC4/CYBLE_eventHandler.c ****     #ifdef CYBLE_RSCS_SERVER
1311:.\Generated_Source\PSoC4/CYBLE_eventHandler.c ****         CyBle_RscsInit();
1312:.\Generated_Source\PSoC4/CYBLE_eventHandler.c ****     #endif /* CYBLE_RSCS_SERVER */
1313:.\Generated_Source\PSoC4/CYBLE_eventHandler.c **** }
 244              		.loc 1 1313 0
 245 0004 BD46     		mov	sp, r7
 246              		@ sp needed
 247 0006 80BD     		pop	{r7, pc}
 248              		.cfi_endproc
 249              	.LFE6:
 250              		.size	CyBle_GattConnectReqHandler, .-CyBle_GattConnectReqHandler
 251              		.section	.text.CyBle_IsDeviceAddressValid,"ax",%progbits
 252              		.align	2
 253              		.global	CyBle_IsDeviceAddressValid
 254              		.code	16
 255              		.thumb_func
 256              		.type	CyBle_IsDeviceAddressValid, %function
 257              	CyBle_IsDeviceAddressValid:
 258              	.LFB7:
1314:.\Generated_Source\PSoC4/CYBLE_eventHandler.c **** 
1315:.\Generated_Source\PSoC4/CYBLE_eventHandler.c **** 
1316:.\Generated_Source\PSoC4/CYBLE_eventHandler.c **** #if (CYBLE_GATT_ROLE_SERVER || CYBLE_GATT_ROLE_CLIENT)
1317:.\Generated_Source\PSoC4/CYBLE_eventHandler.c **** 
1318:.\Generated_Source\PSoC4/CYBLE_eventHandler.c **** /****************************************************************************** 
1319:.\Generated_Source\PSoC4/CYBLE_eventHandler.c **** * Function Name: CyBle_IsDeviceAddressValid
1320:.\Generated_Source\PSoC4/CYBLE_eventHandler.c **** ***************************************************************************//**
1321:.\Generated_Source\PSoC4/CYBLE_eventHandler.c **** * 
1322:.\Generated_Source\PSoC4/CYBLE_eventHandler.c **** *  This function verifies that BLE public address has been programmed to SFLASH 
1323:.\Generated_Source\PSoC4/CYBLE_eventHandler.c **** *  during manufacture. It could be used to verify if public device address is 
1324:.\Generated_Source\PSoC4/CYBLE_eventHandler.c **** *  programmed to flash memory.
1325:.\Generated_Source\PSoC4/CYBLE_eventHandler.c **** * 
1326:.\Generated_Source\PSoC4/CYBLE_eventHandler.c **** *  \param deviceAddress: the pointer to the BD address of type CYBLE_GAP_BD_ADDR_T. 
1327:.\Generated_Source\PSoC4/CYBLE_eventHandler.c **** * 
1328:.\Generated_Source\PSoC4/CYBLE_eventHandler.c **** * \return
1329:.\Generated_Source\PSoC4/CYBLE_eventHandler.c **** *  Non zero value when a device address differs from the default SFLASH content.
1330:.\Generated_Source\PSoC4/CYBLE_eventHandler.c **** * 
1331:.\Generated_Source\PSoC4/CYBLE_eventHandler.c **** ******************************************************************************/
1332:.\Generated_Source\PSoC4/CYBLE_eventHandler.c **** uint8 CyBle_IsDeviceAddressValid(const CYBLE_GAP_BD_ADDR_T *deviceAddress)
1333:.\Generated_Source\PSoC4/CYBLE_eventHandler.c **** {
 259              		.loc 1 1333 0
 260              		.cfi_startproc
 261 0000 80B5     		push	{r7, lr}
 262              		.cfi_def_cfa_offset 8
 263              		.cfi_offset 7, -8
ARM GAS  C:\Users\igreg\AppData\Local\Temp\ccnO9ZHN.s 			page 29


 264              		.cfi_offset 14, -4
 265 0002 84B0     		sub	sp, sp, #16
 266              		.cfi_def_cfa_offset 24
 267 0004 00AF     		add	r7, sp, #0
 268              		.cfi_def_cfa_register 7
 269 0006 7860     		str	r0, [r7, #4]
1334:.\Generated_Source\PSoC4/CYBLE_eventHandler.c ****     uint8 i;
1335:.\Generated_Source\PSoC4/CYBLE_eventHandler.c ****     uint8 addressValid = 0u;
 270              		.loc 1 1335 0
 271 0008 0E23     		mov	r3, #14
 272 000a FB18     		add	r3, r7, r3
 273 000c 0022     		mov	r2, #0
 274 000e 1A70     		strb	r2, [r3]
1336:.\Generated_Source\PSoC4/CYBLE_eventHandler.c ****     
1337:.\Generated_Source\PSoC4/CYBLE_eventHandler.c ****     if(deviceAddress -> type == CYBLE_GAP_ADDR_TYPE_PUBLIC)  
 275              		.loc 1 1337 0
 276 0010 7B68     		ldr	r3, [r7, #4]
 277 0012 9B79     		ldrb	r3, [r3, #6]
 278 0014 002B     		cmp	r3, #0
 279 0016 1CD1     		bne	.L14
1338:.\Generated_Source\PSoC4/CYBLE_eventHandler.c ****     {
1339:.\Generated_Source\PSoC4/CYBLE_eventHandler.c ****         for(i = 0u; i < CYBLE_GAP_BD_ADDR_SIZE; i++)
 280              		.loc 1 1339 0
 281 0018 0F23     		mov	r3, #15
 282 001a FB18     		add	r3, r7, r3
 283 001c 0022     		mov	r2, #0
 284 001e 1A70     		strb	r2, [r3]
 285 0020 12E0     		b	.L15
 286              	.L17:
1340:.\Generated_Source\PSoC4/CYBLE_eventHandler.c ****         {
1341:.\Generated_Source\PSoC4/CYBLE_eventHandler.c ****             if(deviceAddress->bdAddr[i] != 0u)
 287              		.loc 1 1341 0
 288 0022 0F23     		mov	r3, #15
 289 0024 FB18     		add	r3, r7, r3
 290 0026 1B78     		ldrb	r3, [r3]
 291 0028 7A68     		ldr	r2, [r7, #4]
 292 002a D35C     		ldrb	r3, [r2, r3]
 293 002c 002B     		cmp	r3, #0
 294 002e 04D0     		beq	.L16
1342:.\Generated_Source\PSoC4/CYBLE_eventHandler.c ****             {
1343:.\Generated_Source\PSoC4/CYBLE_eventHandler.c ****                 addressValid = 1u;
 295              		.loc 1 1343 0
 296 0030 0E23     		mov	r3, #14
 297 0032 FB18     		add	r3, r7, r3
 298 0034 0122     		mov	r2, #1
 299 0036 1A70     		strb	r2, [r3]
1344:.\Generated_Source\PSoC4/CYBLE_eventHandler.c ****                 break;
 300              		.loc 1 1344 0
 301 0038 0BE0     		b	.L14
 302              	.L16:
1339:.\Generated_Source\PSoC4/CYBLE_eventHandler.c ****         {
 303              		.loc 1 1339 0 discriminator 2
 304 003a 0F23     		mov	r3, #15
 305 003c FB18     		add	r3, r7, r3
 306 003e 1A78     		ldrb	r2, [r3]
 307 0040 0F23     		mov	r3, #15
 308 0042 FB18     		add	r3, r7, r3
ARM GAS  C:\Users\igreg\AppData\Local\Temp\ccnO9ZHN.s 			page 30


 309 0044 0132     		add	r2, r2, #1
 310 0046 1A70     		strb	r2, [r3]
 311              	.L15:
1339:.\Generated_Source\PSoC4/CYBLE_eventHandler.c ****         {
 312              		.loc 1 1339 0 is_stmt 0 discriminator 1
 313 0048 0F23     		mov	r3, #15
 314 004a FB18     		add	r3, r7, r3
 315 004c 1B78     		ldrb	r3, [r3]
 316 004e 052B     		cmp	r3, #5
 317 0050 E7D9     		bls	.L17
 318              	.L14:
1345:.\Generated_Source\PSoC4/CYBLE_eventHandler.c ****             }
1346:.\Generated_Source\PSoC4/CYBLE_eventHandler.c ****         }
1347:.\Generated_Source\PSoC4/CYBLE_eventHandler.c ****     }
1348:.\Generated_Source\PSoC4/CYBLE_eventHandler.c ****     return (addressValid);
 319              		.loc 1 1348 0 is_stmt 1
 320 0052 0E23     		mov	r3, #14
 321 0054 FB18     		add	r3, r7, r3
 322 0056 1B78     		ldrb	r3, [r3]
1349:.\Generated_Source\PSoC4/CYBLE_eventHandler.c **** }
 323              		.loc 1 1349 0
 324 0058 181C     		mov	r0, r3
 325 005a BD46     		mov	sp, r7
 326 005c 04B0     		add	sp, sp, #16
 327              		@ sp needed
 328 005e 80BD     		pop	{r7, pc}
 329              		.cfi_endproc
 330              	.LFE7:
 331              		.size	CyBle_IsDeviceAddressValid, .-CyBle_IsDeviceAddressValid
 332              		.section	.text.CyBle_L2Cap_ConnParamUpdateRspEventHandler,"ax",%progbits
 333              		.align	2
 334              		.code	16
 335              		.thumb_func
 336              		.type	CyBle_L2Cap_ConnParamUpdateRspEventHandler, %function
 337              	CyBle_L2Cap_ConnParamUpdateRspEventHandler:
 338              	.LFB8:
1350:.\Generated_Source\PSoC4/CYBLE_eventHandler.c **** #endif /* CYBLE_GATT_ROLE_SERVER || CYBLE_GATT_ROLE_CLIENT */
1351:.\Generated_Source\PSoC4/CYBLE_eventHandler.c **** 
1352:.\Generated_Source\PSoC4/CYBLE_eventHandler.c **** 
1353:.\Generated_Source\PSoC4/CYBLE_eventHandler.c **** /****************************************************************************** 
1354:.\Generated_Source\PSoC4/CYBLE_eventHandler.c **** * Function Name: CyBle_L2Cap_ConnParamUpdateRspHandler
1355:.\Generated_Source\PSoC4/CYBLE_eventHandler.c **** ***************************************************************************//**
1356:.\Generated_Source\PSoC4/CYBLE_eventHandler.c **** * 
1357:.\Generated_Source\PSoC4/CYBLE_eventHandler.c **** *  Handles the L2CAP connection parameter response event from
1358:.\Generated_Source\PSoC4/CYBLE_eventHandler.c **** *  the BLE stack.
1359:.\Generated_Source\PSoC4/CYBLE_eventHandler.c **** * 
1360:.\Generated_Source\PSoC4/CYBLE_eventHandler.c **** *  \param response:
1361:.\Generated_Source\PSoC4/CYBLE_eventHandler.c **** *      * Accepted = 0x0000
1362:.\Generated_Source\PSoC4/CYBLE_eventHandler.c **** *      * Rejected = 0x0001
1363:.\Generated_Source\PSoC4/CYBLE_eventHandler.c **** * 
1364:.\Generated_Source\PSoC4/CYBLE_eventHandler.c **** * \return
1365:.\Generated_Source\PSoC4/CYBLE_eventHandler.c **** *  None
1366:.\Generated_Source\PSoC4/CYBLE_eventHandler.c **** * 
1367:.\Generated_Source\PSoC4/CYBLE_eventHandler.c **** ******************************************************************************/
1368:.\Generated_Source\PSoC4/CYBLE_eventHandler.c **** static void CyBle_L2Cap_ConnParamUpdateRspEventHandler(uint16 response)
1369:.\Generated_Source\PSoC4/CYBLE_eventHandler.c **** {
 339              		.loc 1 1369 0
ARM GAS  C:\Users\igreg\AppData\Local\Temp\ccnO9ZHN.s 			page 31


 340              		.cfi_startproc
 341 0000 80B5     		push	{r7, lr}
 342              		.cfi_def_cfa_offset 8
 343              		.cfi_offset 7, -8
 344              		.cfi_offset 14, -4
 345 0002 82B0     		sub	sp, sp, #8
 346              		.cfi_def_cfa_offset 16
 347 0004 00AF     		add	r7, sp, #0
 348              		.cfi_def_cfa_register 7
 349 0006 021C     		mov	r2, r0
 350 0008 BB1D     		add	r3, r7, #6
 351 000a 1A80     		strh	r2, [r3]
1370:.\Generated_Source\PSoC4/CYBLE_eventHandler.c ****     #ifdef CYBLE_CPS_SERVER
1371:.\Generated_Source\PSoC4/CYBLE_eventHandler.c ****         CyBle_CpssConnParamUpdateRspEventHandler(response);
1372:.\Generated_Source\PSoC4/CYBLE_eventHandler.c ****     #endif /* CYBLE_CPS_SERVER */
1373:.\Generated_Source\PSoC4/CYBLE_eventHandler.c ****     
1374:.\Generated_Source\PSoC4/CYBLE_eventHandler.c ****     /* Unreferenced variable warning workaround */
1375:.\Generated_Source\PSoC4/CYBLE_eventHandler.c ****     if(response != 0u)
1376:.\Generated_Source\PSoC4/CYBLE_eventHandler.c ****     {
1377:.\Generated_Source\PSoC4/CYBLE_eventHandler.c ****     }
1378:.\Generated_Source\PSoC4/CYBLE_eventHandler.c **** }
 352              		.loc 1 1378 0
 353 000c BD46     		mov	sp, r7
 354 000e 02B0     		add	sp, sp, #8
 355              		@ sp needed
 356 0010 80BD     		pop	{r7, pc}
 357              		.cfi_endproc
 358              	.LFE8:
 359              		.size	CyBle_L2Cap_ConnParamUpdateRspEventHandler, .-CyBle_L2Cap_ConnParamUpdateRspEventHandler
 360 0012 C046     		.section	.text.CyBle_GapConnUpdateCompleteEventHandler,"ax",%progbits
 361              		.align	2
 362              		.code	16
 363              		.thumb_func
 364              		.type	CyBle_GapConnUpdateCompleteEventHandler, %function
 365              	CyBle_GapConnUpdateCompleteEventHandler:
 366              	.LFB9:
1379:.\Generated_Source\PSoC4/CYBLE_eventHandler.c **** 
1380:.\Generated_Source\PSoC4/CYBLE_eventHandler.c **** 
1381:.\Generated_Source\PSoC4/CYBLE_eventHandler.c **** /****************************************************************************** 
1382:.\Generated_Source\PSoC4/CYBLE_eventHandler.c **** * Function Name: CyBle_GapConnUpdateCompleteEventHandler
1383:.\Generated_Source\PSoC4/CYBLE_eventHandler.c **** ***************************************************************************//**
1384:.\Generated_Source\PSoC4/CYBLE_eventHandler.c **** * 
1385:.\Generated_Source\PSoC4/CYBLE_eventHandler.c **** *  Handles the CYBLE_EVT_GAP_CONNECTION_UPDATE_COMPLETE event from
1386:.\Generated_Source\PSoC4/CYBLE_eventHandler.c **** *  the BLE stack.
1387:.\Generated_Source\PSoC4/CYBLE_eventHandler.c **** * 
1388:.\Generated_Source\PSoC4/CYBLE_eventHandler.c **** *  \param eventParam: The pointer to the data structure specified by the event.
1389:.\Generated_Source\PSoC4/CYBLE_eventHandler.c **** * 
1390:.\Generated_Source\PSoC4/CYBLE_eventHandler.c **** * \return
1391:.\Generated_Source\PSoC4/CYBLE_eventHandler.c **** *  None
1392:.\Generated_Source\PSoC4/CYBLE_eventHandler.c **** * 
1393:.\Generated_Source\PSoC4/CYBLE_eventHandler.c **** ******************************************************************************/
1394:.\Generated_Source\PSoC4/CYBLE_eventHandler.c **** static void CyBle_GapConnUpdateCompleteEventHandler(const CYBLE_GAP_CONN_PARAM_UPDATED_IN_CONTROLLE
1395:.\Generated_Source\PSoC4/CYBLE_eventHandler.c **** {
 367              		.loc 1 1395 0
 368              		.cfi_startproc
 369 0000 80B5     		push	{r7, lr}
 370              		.cfi_def_cfa_offset 8
ARM GAS  C:\Users\igreg\AppData\Local\Temp\ccnO9ZHN.s 			page 32


 371              		.cfi_offset 7, -8
 372              		.cfi_offset 14, -4
 373 0002 82B0     		sub	sp, sp, #8
 374              		.cfi_def_cfa_offset 16
 375 0004 00AF     		add	r7, sp, #0
 376              		.cfi_def_cfa_register 7
 377 0006 7860     		str	r0, [r7, #4]
1396:.\Generated_Source\PSoC4/CYBLE_eventHandler.c ****     #ifdef CYBLE_CPS_SERVER
1397:.\Generated_Source\PSoC4/CYBLE_eventHandler.c ****         CyBle_CpssConnUpdateCompleteEventHandler(eventParam);
1398:.\Generated_Source\PSoC4/CYBLE_eventHandler.c ****     #endif /* CYBLE_CPS_SERVER */
1399:.\Generated_Source\PSoC4/CYBLE_eventHandler.c ****     
1400:.\Generated_Source\PSoC4/CYBLE_eventHandler.c ****     /* Unreferenced variable warning workaround */
1401:.\Generated_Source\PSoC4/CYBLE_eventHandler.c ****     if(eventParam != 0u)
1402:.\Generated_Source\PSoC4/CYBLE_eventHandler.c ****     {
1403:.\Generated_Source\PSoC4/CYBLE_eventHandler.c ****     }
1404:.\Generated_Source\PSoC4/CYBLE_eventHandler.c **** }
 378              		.loc 1 1404 0
 379 0008 BD46     		mov	sp, r7
 380 000a 02B0     		add	sp, sp, #8
 381              		@ sp needed
 382 000c 80BD     		pop	{r7, pc}
 383              		.cfi_endproc
 384              	.LFE9:
 385              		.size	CyBle_GapConnUpdateCompleteEventHandler, .-CyBle_GapConnUpdateCompleteEventHandler
 386              		.section	.text.CyBle_EventHandler,"ax",%progbits
 387              		.align	2
 388              		.global	CyBle_EventHandler
 389              		.code	16
 390              		.thumb_func
 391              		.type	CyBle_EventHandler, %function
 392              	CyBle_EventHandler:
 393              	.LFB10:
1405:.\Generated_Source\PSoC4/CYBLE_eventHandler.c **** 
1406:.\Generated_Source\PSoC4/CYBLE_eventHandler.c **** 
1407:.\Generated_Source\PSoC4/CYBLE_eventHandler.c **** /****************************************************************************** 
1408:.\Generated_Source\PSoC4/CYBLE_eventHandler.c **** * Function Name: CyBle_EventHandler
1409:.\Generated_Source\PSoC4/CYBLE_eventHandler.c **** ***************************************************************************//**
1410:.\Generated_Source\PSoC4/CYBLE_eventHandler.c **** * 
1411:.\Generated_Source\PSoC4/CYBLE_eventHandler.c **** *  Handles the events from the BLE stack
1412:.\Generated_Source\PSoC4/CYBLE_eventHandler.c **** * 
1413:.\Generated_Source\PSoC4/CYBLE_eventHandler.c **** *  \param eventCode:    the event code
1414:.\Generated_Source\PSoC4/CYBLE_eventHandler.c **** *  \param eventParam:  the event parameters
1415:.\Generated_Source\PSoC4/CYBLE_eventHandler.c **** * 
1416:.\Generated_Source\PSoC4/CYBLE_eventHandler.c **** * \return
1417:.\Generated_Source\PSoC4/CYBLE_eventHandler.c **** *  None.
1418:.\Generated_Source\PSoC4/CYBLE_eventHandler.c **** * 
1419:.\Generated_Source\PSoC4/CYBLE_eventHandler.c **** ******************************************************************************/
1420:.\Generated_Source\PSoC4/CYBLE_eventHandler.c **** void CyBle_EventHandler(uint8 eventCode, void *eventParam)
1421:.\Generated_Source\PSoC4/CYBLE_eventHandler.c **** {
 394              		.loc 1 1421 0
 395              		.cfi_startproc
 396 0000 80B5     		push	{r7, lr}
 397              		.cfi_def_cfa_offset 8
 398              		.cfi_offset 7, -8
 399              		.cfi_offset 14, -4
 400 0002 88B0     		sub	sp, sp, #32
 401              		.cfi_def_cfa_offset 40
ARM GAS  C:\Users\igreg\AppData\Local\Temp\ccnO9ZHN.s 			page 33


 402 0004 00AF     		add	r7, sp, #0
 403              		.cfi_def_cfa_register 7
 404 0006 021C     		mov	r2, r0
 405 0008 3960     		str	r1, [r7]
 406 000a FB1D     		add	r3, r7, #7
 407 000c 1A70     		strb	r2, [r3]
1422:.\Generated_Source\PSoC4/CYBLE_eventHandler.c ****     cyBle_eventHandlerFlag |= CYBLE_CALLBACK;
 408              		.loc 1 1422 0
 409 000e C94B     		ldr	r3, .L58
 410 0010 1B78     		ldrb	r3, [r3]
 411 0012 DBB2     		uxtb	r3, r3
 412 0014 0122     		mov	r2, #1
 413 0016 1343     		orr	r3, r2
 414 0018 DAB2     		uxtb	r2, r3
 415 001a C64B     		ldr	r3, .L58
 416 001c 1A70     		strb	r2, [r3]
1423:.\Generated_Source\PSoC4/CYBLE_eventHandler.c **** 
1424:.\Generated_Source\PSoC4/CYBLE_eventHandler.c ****     /* Common Profile event handling */
1425:.\Generated_Source\PSoC4/CYBLE_eventHandler.c ****     switch(eventCode)
 417              		.loc 1 1425 0
 418 001e FB1D     		add	r3, r7, #7
 419 0020 1B78     		ldrb	r3, [r3]
 420 0022 712B     		cmp	r3, #113
 421 0024 00D9     		bls	.LCB347
 422 0026 6AE1     		b	.L57	@long jump
 423              	.LCB347:
 424 0028 9A00     		lsl	r2, r3, #2
 425 002a C34B     		ldr	r3, .L58+4
 426 002c D318     		add	r3, r2, r3
 427 002e 1B68     		ldr	r3, [r3]
 428 0030 9F46     		mov	pc, r3
 429              		.section	.rodata
 430              		.align	2
 431              	.L24:
 432 0000 FE020000 		.word	.L57
 433 0004 32000000 		.word	.L23
 434 0008 2E010000 		.word	.L25
 435 000c FE020000 		.word	.L57
 436 0010 FE020000 		.word	.L57
 437 0014 38010000 		.word	.L26
 438 0018 42010000 		.word	.L27
 439 001c FE020000 		.word	.L57
 440 0020 FE020000 		.word	.L57
 441 0024 FE020000 		.word	.L57
 442 0028 FE020000 		.word	.L57
 443 002c FE020000 		.word	.L57
 444 0030 FE020000 		.word	.L57
 445 0034 FE020000 		.word	.L57
 446 0038 FE020000 		.word	.L57
 447 003c FE020000 		.word	.L57
 448 0040 FE020000 		.word	.L57
 449 0044 FE020000 		.word	.L57
 450 0048 FE020000 		.word	.L57
 451 004c FE020000 		.word	.L57
 452 0050 FE020000 		.word	.L57
 453 0054 FE020000 		.word	.L57
 454 0058 FE020000 		.word	.L57
ARM GAS  C:\Users\igreg\AppData\Local\Temp\ccnO9ZHN.s 			page 34


 455 005c FE020000 		.word	.L57
 456 0060 FE020000 		.word	.L57
 457 0064 FE020000 		.word	.L57
 458 0068 FE020000 		.word	.L57
 459 006c FE020000 		.word	.L57
 460 0070 FE020000 		.word	.L57
 461 0074 FE020000 		.word	.L57
 462 0078 FE020000 		.word	.L57
 463 007c FE020000 		.word	.L57
 464 0080 FE020000 		.word	.L57
 465 0084 82010000 		.word	.L28
 466 0088 FE020000 		.word	.L57
 467 008c FE020000 		.word	.L57
 468 0090 FE020000 		.word	.L57
 469 0094 FE020000 		.word	.L57
 470 0098 D2010000 		.word	.L30
 471 009c BA010000 		.word	.L31
 472 00a0 CA010000 		.word	.L32
 473 00a4 FE020000 		.word	.L57
 474 00a8 B0010000 		.word	.L33
 475 00ac FE020000 		.word	.L57
 476 00b0 FE020000 		.word	.L57
 477 00b4 FE020000 		.word	.L57
 478 00b8 FE020000 		.word	.L57
 479 00bc FE020000 		.word	.L57
 480 00c0 FE020000 		.word	.L57
 481 00c4 FE020000 		.word	.L57
 482 00c8 FE020000 		.word	.L57
 483 00cc FE020000 		.word	.L57
 484 00d0 FE020000 		.word	.L57
 485 00d4 FE020000 		.word	.L57
 486 00d8 FE020000 		.word	.L57
 487 00dc FE020000 		.word	.L57
 488 00e0 FE020000 		.word	.L57
 489 00e4 FE020000 		.word	.L57
 490 00e8 FE020000 		.word	.L57
 491 00ec FE020000 		.word	.L57
 492 00f0 FE020000 		.word	.L57
 493 00f4 FE020000 		.word	.L57
 494 00f8 FE020000 		.word	.L57
 495 00fc FE020000 		.word	.L57
 496 0100 FE020000 		.word	.L57
 497 0104 6A020000 		.word	.L34
 498 0108 AA020000 		.word	.L35
 499 010c B0020000 		.word	.L36
 500 0110 FE020000 		.word	.L57
 501 0114 FE020000 		.word	.L57
 502 0118 FE020000 		.word	.L57
 503 011c FE020000 		.word	.L57
 504 0120 FE020000 		.word	.L57
 505 0124 FE020000 		.word	.L57
 506 0128 FE020000 		.word	.L57
 507 012c FE020000 		.word	.L57
 508 0130 EA020000 		.word	.L37
 509 0134 FE020000 		.word	.L57
 510 0138 FE020000 		.word	.L57
 511 013c FE020000 		.word	.L57
ARM GAS  C:\Users\igreg\AppData\Local\Temp\ccnO9ZHN.s 			page 35


 512 0140 FE020000 		.word	.L57
 513 0144 FE020000 		.word	.L57
 514 0148 FE020000 		.word	.L57
 515 014c FE020000 		.word	.L57
 516 0150 F4020000 		.word	.L41
 517 0154 FE020000 		.word	.L57
 518 0158 FE020000 		.word	.L57
 519 015c FE020000 		.word	.L57
 520 0160 FE020000 		.word	.L57
 521 0164 FE020000 		.word	.L57
 522 0168 FE020000 		.word	.L57
 523 016c FE020000 		.word	.L57
 524 0170 FE020000 		.word	.L57
 525 0174 FE020000 		.word	.L57
 526 0178 FE020000 		.word	.L57
 527 017c FE020000 		.word	.L57
 528 0180 FE020000 		.word	.L57
 529 0184 FE020000 		.word	.L57
 530 0188 FE020000 		.word	.L57
 531 018c FE020000 		.word	.L57
 532 0190 FE020000 		.word	.L57
 533 0194 FE020000 		.word	.L57
 534 0198 FE020000 		.word	.L57
 535 019c FE020000 		.word	.L57
 536 01a0 FE020000 		.word	.L57
 537 01a4 FE020000 		.word	.L57
 538 01a8 FE020000 		.word	.L57
 539 01ac FE020000 		.word	.L57
 540 01b0 FE020000 		.word	.L57
 541 01b4 FE020000 		.word	.L57
 542 01b8 FE020000 		.word	.L57
 543 01bc FE020000 		.word	.L57
 544 01c0 FE020000 		.word	.L57
 545 01c4 5E020000 		.word	.L43
 546              		.section	.text.CyBle_EventHandler
 547              	.L23:
 548              	.LBB3:
1426:.\Generated_Source\PSoC4/CYBLE_eventHandler.c ****     {
1427:.\Generated_Source\PSoC4/CYBLE_eventHandler.c ****         /**********************************************************
1428:.\Generated_Source\PSoC4/CYBLE_eventHandler.c ****         * General events
1429:.\Generated_Source\PSoC4/CYBLE_eventHandler.c ****         ************************************************************/
1430:.\Generated_Source\PSoC4/CYBLE_eventHandler.c ****         case CYBLE_EVT_STACK_ON:
1431:.\Generated_Source\PSoC4/CYBLE_eventHandler.c ****         #if(CYBLE_MODE_PROFILE)
1432:.\Generated_Source\PSoC4/CYBLE_eventHandler.c ****         {
1433:.\Generated_Source\PSoC4/CYBLE_eventHandler.c ****             CYBLE_BLESS_PWR_IN_DB_T bleSsPowerLevel;
1434:.\Generated_Source\PSoC4/CYBLE_eventHandler.c ****             
1435:.\Generated_Source\PSoC4/CYBLE_eventHandler.c ****             /* Set Tx Power Level for advertising and connection channels */
1436:.\Generated_Source\PSoC4/CYBLE_eventHandler.c ****             bleSsPowerLevel.blePwrLevelInDbm = CYBLE_TX_POWER_LEVEL_ADV;
 549              		.loc 1 1436 0
 550 0032 1023     		mov	r3, #16
 551 0034 FB18     		add	r3, r7, r3
 552 0036 0722     		mov	r2, #7
 553 0038 1A70     		strb	r2, [r3]
1437:.\Generated_Source\PSoC4/CYBLE_eventHandler.c ****             bleSsPowerLevel.bleSsChId = CYBLE_LL_ADV_CH_TYPE;
 554              		.loc 1 1437 0
 555 003a 1023     		mov	r3, #16
 556 003c FB18     		add	r3, r7, r3
ARM GAS  C:\Users\igreg\AppData\Local\Temp\ccnO9ZHN.s 			page 36


 557 003e 0022     		mov	r2, #0
 558 0040 5A70     		strb	r2, [r3, #1]
1438:.\Generated_Source\PSoC4/CYBLE_eventHandler.c ****             (void) CyBle_SetTxPowerLevel (&bleSsPowerLevel);
 559              		.loc 1 1438 0
 560 0042 1023     		mov	r3, #16
 561 0044 FB18     		add	r3, r7, r3
 562 0046 181C     		mov	r0, r3
 563 0048 FFF7FEFF 		bl	CyBle_SetTxPowerLevel
1439:.\Generated_Source\PSoC4/CYBLE_eventHandler.c ****             bleSsPowerLevel.blePwrLevelInDbm = CYBLE_TX_POWER_LEVEL_CONN;
 564              		.loc 1 1439 0
 565 004c 1023     		mov	r3, #16
 566 004e FB18     		add	r3, r7, r3
 567 0050 0722     		mov	r2, #7
 568 0052 1A70     		strb	r2, [r3]
1440:.\Generated_Source\PSoC4/CYBLE_eventHandler.c ****             bleSsPowerLevel.bleSsChId = CYBLE_LL_CONN_CH_TYPE;
 569              		.loc 1 1440 0
 570 0054 1023     		mov	r3, #16
 571 0056 FB18     		add	r3, r7, r3
 572 0058 0122     		mov	r2, #1
 573 005a 5A70     		strb	r2, [r3, #1]
1441:.\Generated_Source\PSoC4/CYBLE_eventHandler.c ****             (void) CyBle_SetTxPowerLevel (&bleSsPowerLevel);
 574              		.loc 1 1441 0
 575 005c 1023     		mov	r3, #16
 576 005e FB18     		add	r3, r7, r3
 577 0060 181C     		mov	r0, r3
 578 0062 FFF7FEFF 		bl	CyBle_SetTxPowerLevel
 579              	.LBE3:
1442:.\Generated_Source\PSoC4/CYBLE_eventHandler.c ****             
1443:.\Generated_Source\PSoC4/CYBLE_eventHandler.c ****         }
1444:.\Generated_Source\PSoC4/CYBLE_eventHandler.c ****         #endif /* CYBLE_MODE_PROFILE */
1445:.\Generated_Source\PSoC4/CYBLE_eventHandler.c ****         #if (CYBLE_GATT_ROLE_SERVER || CYBLE_GATT_ROLE_CLIENT)
1446:.\Generated_Source\PSoC4/CYBLE_eventHandler.c ****             /* Set device Address  */
1447:.\Generated_Source\PSoC4/CYBLE_eventHandler.c ****             if(CyBle_IsDeviceAddressValid(cyBle_sflashDeviceAddress) != 0u)
 580              		.loc 1 1447 0
 581 0066 B54B     		ldr	r3, .L58+8
 582 0068 1B68     		ldr	r3, [r3]
 583 006a 181C     		mov	r0, r3
 584 006c FFF7FEFF 		bl	CyBle_IsDeviceAddressValid
 585 0070 031E     		sub	r3, r0, #0
 586 0072 11D0     		beq	.L44
1448:.\Generated_Source\PSoC4/CYBLE_eventHandler.c ****             {
1449:.\Generated_Source\PSoC4/CYBLE_eventHandler.c ****                 (void) CyBle_SetDeviceAddress(cyBle_sflashDeviceAddress);
 587              		.loc 1 1449 0
 588 0074 B14B     		ldr	r3, .L58+8
 589 0076 1B68     		ldr	r3, [r3]
 590 0078 181C     		mov	r0, r3
 591 007a FFF7FEFF 		bl	CyBle_SetDeviceAddress
1450:.\Generated_Source\PSoC4/CYBLE_eventHandler.c ****                 #if(CYBLE_GAP_ROLE_PERIPHERAL || CYBLE_GAP_ROLE_BROADCASTER)
1451:.\Generated_Source\PSoC4/CYBLE_eventHandler.c ****                     CyBle_ChangeAdDeviceAddress(cyBle_sflashDeviceAddress, 0u);
 592              		.loc 1 1451 0
 593 007e AF4B     		ldr	r3, .L58+8
 594 0080 1B68     		ldr	r3, [r3]
 595 0082 181C     		mov	r0, r3
 596 0084 0021     		mov	r1, #0
 597 0086 FFF7FEFF 		bl	CyBle_ChangeAdDeviceAddress
1452:.\Generated_Source\PSoC4/CYBLE_eventHandler.c ****                     CyBle_ChangeAdDeviceAddress(cyBle_sflashDeviceAddress, 1u);
 598              		.loc 1 1452 0
ARM GAS  C:\Users\igreg\AppData\Local\Temp\ccnO9ZHN.s 			page 37


 599 008a AC4B     		ldr	r3, .L58+8
 600 008c 1B68     		ldr	r3, [r3]
 601 008e 181C     		mov	r0, r3
 602 0090 0121     		mov	r1, #1
 603 0092 FFF7FEFF 		bl	CyBle_ChangeAdDeviceAddress
 604 0096 36E0     		b	.L45
 605              	.L44:
 606              	.LBB4:
1453:.\Generated_Source\PSoC4/CYBLE_eventHandler.c ****                 #endif /* CYBLE_GAP_ROLE_PERIPHERAL || CYBLE_GAP_ROLE_BROADCASTER */    
1454:.\Generated_Source\PSoC4/CYBLE_eventHandler.c ****             }
1455:.\Generated_Source\PSoC4/CYBLE_eventHandler.c ****             else
1456:.\Generated_Source\PSoC4/CYBLE_eventHandler.c ****             {
1457:.\Generated_Source\PSoC4/CYBLE_eventHandler.c ****             #if (SILICON_GENERATED_DEVICE_ADDRESS != 0u)
1458:.\Generated_Source\PSoC4/CYBLE_eventHandler.c ****             {
1459:.\Generated_Source\PSoC4/CYBLE_eventHandler.c ****                 uint32 bdAddrLoc;
1460:.\Generated_Source\PSoC4/CYBLE_eventHandler.c ****                 bdAddrLoc = (CYBLE_SFLASH_DIE_X_REG & CYBLE_SFLASH_DIE_X_MASK) |
 607              		.loc 1 1460 0
 608 0098 A94B     		ldr	r3, .L58+12
 609 009a 1B78     		ldrb	r3, [r3]
 610 009c 1A1C     		mov	r2, r3
 611 009e 3F23     		mov	r3, #63
 612 00a0 1A40     		and	r2, r3
1461:.\Generated_Source\PSoC4/CYBLE_eventHandler.c ****                     ((uint32)(((uint32)CYBLE_SFLASH_DIE_Y_REG) & ((uint32)CYBLE_SFLASH_DIE_Y_MASK))
 613              		.loc 1 1461 0
 614 00a2 A84B     		ldr	r3, .L58+16
 615 00a4 1B78     		ldrb	r3, [r3]
 616 00a6 191C     		mov	r1, r3
 617 00a8 3F23     		mov	r3, #63
 618 00aa 0B40     		and	r3, r1
 619 00ac 9B01     		lsl	r3, r3, #6
1460:.\Generated_Source\PSoC4/CYBLE_eventHandler.c ****                     ((uint32)(((uint32)CYBLE_SFLASH_DIE_Y_REG) & ((uint32)CYBLE_SFLASH_DIE_Y_MASK))
 620              		.loc 1 1460 0
 621 00ae 1A43     		orr	r2, r3
1462:.\Generated_Source\PSoC4/CYBLE_eventHandler.c ****                         CYBLE_SFLASH_DIE_X_BITS) |
1463:.\Generated_Source\PSoC4/CYBLE_eventHandler.c ****                     ((uint32)(((uint32)CYBLE_SFLASH_DIE_WAFER_REG) & ((uint32)CYBLE_SFLASH_DIE_WAFE
 622              		.loc 1 1463 0
 623 00b0 A54B     		ldr	r3, .L58+20
 624 00b2 1B78     		ldrb	r3, [r3]
 625 00b4 191C     		mov	r1, r3
 626 00b6 1F23     		mov	r3, #31
 627 00b8 0B40     		and	r3, r1
 628 00ba 1B03     		lsl	r3, r3, #12
1462:.\Generated_Source\PSoC4/CYBLE_eventHandler.c ****                         CYBLE_SFLASH_DIE_X_BITS) |
 629              		.loc 1 1462 0
 630 00bc 1A43     		orr	r2, r3
1464:.\Generated_Source\PSoC4/CYBLE_eventHandler.c ****                         CYBLE_SFLASH_DIE_XY_BITS) |
1465:.\Generated_Source\PSoC4/CYBLE_eventHandler.c ****                     ((uint32)(((uint32)CYBLE_SFLASH_DIE_LOT_REG) & ((uint32)CYBLE_SFLASH_DIE_LOT_MA
 631              		.loc 1 1465 0
 632 00be A34B     		ldr	r3, .L58+24
 633 00c0 1B78     		ldrb	r3, [r3]
 634 00c2 191C     		mov	r1, r3
 635 00c4 7F23     		mov	r3, #127
 636 00c6 0B40     		and	r3, r1
 637 00c8 5B04     		lsl	r3, r3, #17
1460:.\Generated_Source\PSoC4/CYBLE_eventHandler.c ****                     ((uint32)(((uint32)CYBLE_SFLASH_DIE_Y_REG) & ((uint32)CYBLE_SFLASH_DIE_Y_MASK))
 638              		.loc 1 1460 0
 639 00ca 1343     		orr	r3, r2
ARM GAS  C:\Users\igreg\AppData\Local\Temp\ccnO9ZHN.s 			page 38


 640 00cc BB61     		str	r3, [r7, #24]
1466:.\Generated_Source\PSoC4/CYBLE_eventHandler.c ****                         CYBLE_SFLASH_DIE_XYWAFER_BITS);
1467:.\Generated_Source\PSoC4/CYBLE_eventHandler.c ****                             
1468:.\Generated_Source\PSoC4/CYBLE_eventHandler.c ****                 cyBle_deviceAddress.bdAddr[0] = (uint8)bdAddrLoc;
 641              		.loc 1 1468 0
 642 00ce BB69     		ldr	r3, [r7, #24]
 643 00d0 DAB2     		uxtb	r2, r3
 644 00d2 9F4B     		ldr	r3, .L58+28
 645 00d4 1A70     		strb	r2, [r3]
1469:.\Generated_Source\PSoC4/CYBLE_eventHandler.c ****                 cyBle_deviceAddress.bdAddr[1] = (uint8)(bdAddrLoc >> 8u);
 646              		.loc 1 1469 0
 647 00d6 BB69     		ldr	r3, [r7, #24]
 648 00d8 1B0A     		lsr	r3, r3, #8
 649 00da DAB2     		uxtb	r2, r3
 650 00dc 9C4B     		ldr	r3, .L58+28
 651 00de 5A70     		strb	r2, [r3, #1]
1470:.\Generated_Source\PSoC4/CYBLE_eventHandler.c ****                 cyBle_deviceAddress.bdAddr[2] = (uint8)(bdAddrLoc >> 16u);
 652              		.loc 1 1470 0
 653 00e0 BB69     		ldr	r3, [r7, #24]
 654 00e2 1B0C     		lsr	r3, r3, #16
 655 00e4 DAB2     		uxtb	r2, r3
 656 00e6 9A4B     		ldr	r3, .L58+28
 657 00e8 9A70     		strb	r2, [r3, #2]
 658              	.LBE4:
1471:.\Generated_Source\PSoC4/CYBLE_eventHandler.c ****             }
1472:.\Generated_Source\PSoC4/CYBLE_eventHandler.c ****             #endif /* SILICON_GENERATED_DEVICE_ADDRESS != 0u */
1473:.\Generated_Source\PSoC4/CYBLE_eventHandler.c ****                 (void) CyBle_SetDeviceAddress(&cyBle_deviceAddress);
 659              		.loc 1 1473 0
 660 00ea 994B     		ldr	r3, .L58+28
 661 00ec 181C     		mov	r0, r3
 662 00ee FFF7FEFF 		bl	CyBle_SetDeviceAddress
1474:.\Generated_Source\PSoC4/CYBLE_eventHandler.c ****                 #if(CYBLE_GAP_ROLE_PERIPHERAL || CYBLE_GAP_ROLE_BROADCASTER)
1475:.\Generated_Source\PSoC4/CYBLE_eventHandler.c ****                     CyBle_ChangeAdDeviceAddress(&cyBle_deviceAddress, 0u);
 663              		.loc 1 1475 0
 664 00f2 974B     		ldr	r3, .L58+28
 665 00f4 181C     		mov	r0, r3
 666 00f6 0021     		mov	r1, #0
 667 00f8 FFF7FEFF 		bl	CyBle_ChangeAdDeviceAddress
1476:.\Generated_Source\PSoC4/CYBLE_eventHandler.c ****                     CyBle_ChangeAdDeviceAddress(&cyBle_deviceAddress, 1u);
 668              		.loc 1 1476 0
 669 00fc 944B     		ldr	r3, .L58+28
 670 00fe 181C     		mov	r0, r3
 671 0100 0121     		mov	r1, #1
 672 0102 FFF7FEFF 		bl	CyBle_ChangeAdDeviceAddress
 673              	.L45:
1477:.\Generated_Source\PSoC4/CYBLE_eventHandler.c ****                 #endif /* CYBLE_GAP_ROLE_PERIPHERAL || CYBLE_GAP_ROLE_BROADCASTER */    
1478:.\Generated_Source\PSoC4/CYBLE_eventHandler.c ****             }
1479:.\Generated_Source\PSoC4/CYBLE_eventHandler.c ****             /* Set device IO Capability  */
1480:.\Generated_Source\PSoC4/CYBLE_eventHandler.c ****             (void) CyBle_GapSetIoCap(CYBLE_IO_CAPABILITY);    
 674              		.loc 1 1480 0
 675 0106 0320     		mov	r0, #3
 676 0108 FFF7FEFF 		bl	CyBle_GapSetIoCap
 677              	.LBB5:
1481:.\Generated_Source\PSoC4/CYBLE_eventHandler.c ****             {
1482:.\Generated_Source\PSoC4/CYBLE_eventHandler.c ****                 /* Enable all 4.1 events and configured 4.2 events */
1483:.\Generated_Source\PSoC4/CYBLE_eventHandler.c ****                 uint8 leMask[CYBLE_LE_MASK_LENGTH] = {LO8(CYBLE_LE_MASK), HI8(CYBLE_LE_MASK)};
 678              		.loc 1 1483 0
ARM GAS  C:\Users\igreg\AppData\Local\Temp\ccnO9ZHN.s 			page 39


 679 010c 0C23     		mov	r3, #12
 680 010e FB18     		add	r3, r7, r3
 681 0110 3F22     		mov	r2, #63
 682 0112 1A70     		strb	r2, [r3]
 683 0114 0C23     		mov	r3, #12
 684 0116 FB18     		add	r3, r7, r3
 685 0118 0022     		mov	r2, #0
 686 011a 5A70     		strb	r2, [r3, #1]
1484:.\Generated_Source\PSoC4/CYBLE_eventHandler.c ****                 (void) CyBle_GapSetLeEventMask(leMask);
 687              		.loc 1 1484 0
 688 011c 0C23     		mov	r3, #12
 689 011e FB18     		add	r3, r7, r3
 690 0120 181C     		mov	r0, r3
 691 0122 FFF7FEFF 		bl	CyBle_GapSetLeEventMask
 692              	.LBE5:
1485:.\Generated_Source\PSoC4/CYBLE_eventHandler.c ****             }
1486:.\Generated_Source\PSoC4/CYBLE_eventHandler.c ****         #if(CYBLE_DLE_FEATURE_ENABLED)
1487:.\Generated_Source\PSoC4/CYBLE_eventHandler.c ****         {
1488:.\Generated_Source\PSoC4/CYBLE_eventHandler.c ****             /* Set maximum suggested TX payload size */
1489:.\Generated_Source\PSoC4/CYBLE_eventHandler.c ****             uint16 payloadTime = CYBLE_LL_MAX_TX_TIME;
1490:.\Generated_Source\PSoC4/CYBLE_eventHandler.c ****             (void) CyBle_GapConvertOctetToTime(CYBLE_GAP_PHY_1MBPS, CYBLE_LL_MAX_TX_PAYLOAD_SIZE, &
1491:.\Generated_Source\PSoC4/CYBLE_eventHandler.c ****             (void) CyBle_GapSetSuggestedDataLength(CYBLE_LL_MAX_TX_PAYLOAD_SIZE, payloadTime); 
1492:.\Generated_Source\PSoC4/CYBLE_eventHandler.c ****         }
1493:.\Generated_Source\PSoC4/CYBLE_eventHandler.c ****         #endif /* CYBLE_DLE_FEATURE != 0u */
1494:.\Generated_Source\PSoC4/CYBLE_eventHandler.c ****         
1495:.\Generated_Source\PSoC4/CYBLE_eventHandler.c ****         #endif /* CYBLE_GATT_ROLE_SERVER || CYBLE_GATT_ROLE_CLIENT */
1496:.\Generated_Source\PSoC4/CYBLE_eventHandler.c ****             CyBle_SetState(CYBLE_STATE_DISCONNECTED);
 693              		.loc 1 1496 0
 694 0126 8B4B     		ldr	r3, .L58+32
 695 0128 0422     		mov	r2, #4
 696 012a 1A70     		strb	r2, [r3]
1497:.\Generated_Source\PSoC4/CYBLE_eventHandler.c ****             break;
 697              		.loc 1 1497 0
 698 012c E8E0     		b	.L46
 699              	.L25:
1498:.\Generated_Source\PSoC4/CYBLE_eventHandler.c ****         case CYBLE_EVT_TIMEOUT:
1499:.\Generated_Source\PSoC4/CYBLE_eventHandler.c ****             CyBle_TimeOutEventHandler((CYBLE_TO_REASON_CODE_T *)eventParam);
 700              		.loc 1 1499 0
 701 012e 3B68     		ldr	r3, [r7]
 702 0130 181C     		mov	r0, r3
 703 0132 FFF7FEFF 		bl	CyBle_TimeOutEventHandler
1500:.\Generated_Source\PSoC4/CYBLE_eventHandler.c ****             break;
 704              		.loc 1 1500 0
 705 0136 E3E0     		b	.L46
 706              	.L26:
1501:.\Generated_Source\PSoC4/CYBLE_eventHandler.c ****     	case CYBLE_EVT_STACK_BUSY_STATUS:
1502:.\Generated_Source\PSoC4/CYBLE_eventHandler.c ****             cyBle_busyStatus = *(uint8 *)eventParam;
 707              		.loc 1 1502 0
 708 0138 3B68     		ldr	r3, [r7]
 709 013a 1A78     		ldrb	r2, [r3]
 710 013c 864B     		ldr	r3, .L58+36
 711 013e 1A70     		strb	r2, [r3]
1503:.\Generated_Source\PSoC4/CYBLE_eventHandler.c ****             break;
 712              		.loc 1 1503 0
 713 0140 DEE0     		b	.L46
 714              	.L27:
 715              	.LBB6:
ARM GAS  C:\Users\igreg\AppData\Local\Temp\ccnO9ZHN.s 			page 40


1504:.\Generated_Source\PSoC4/CYBLE_eventHandler.c ****     	case CYBLE_EVT_MEMORY_REQUEST:
1505:.\Generated_Source\PSoC4/CYBLE_eventHandler.c ****         #if(CYBLE_MODE_PROFILE)
1506:.\Generated_Source\PSoC4/CYBLE_eventHandler.c ****         {
1507:.\Generated_Source\PSoC4/CYBLE_eventHandler.c ****             CYBLE_MEMORY_REQUEST_T *memReq = (CYBLE_MEMORY_REQUEST_T *)eventParam;
 716              		.loc 1 1507 0
 717 0142 3B68     		ldr	r3, [r7]
 718 0144 7B61     		str	r3, [r7, #20]
1508:.\Generated_Source\PSoC4/CYBLE_eventHandler.c ****             if(memReq->request == CYBLE_PREPARED_WRITE_REQUEST)
 719              		.loc 1 1508 0
 720 0146 7B69     		ldr	r3, [r7, #20]
 721 0148 1B78     		ldrb	r3, [r3]
 722 014a 002B     		cmp	r3, #0
 723 014c 18D1     		bne	.L47
1509:.\Generated_Source\PSoC4/CYBLE_eventHandler.c ****             {  
1510:.\Generated_Source\PSoC4/CYBLE_eventHandler.c ****             #if(CYBLE_GATT_ENABLE_EXTERNAL_PREP_WRITE_BUFF == 0u)
1511:.\Generated_Source\PSoC4/CYBLE_eventHandler.c ****                 /* Stack requests to provide memory to process remote request */
1512:.\Generated_Source\PSoC4/CYBLE_eventHandler.c ****                 if(memReq->allocFree == CYBLE_ALLOC_MEMORY)
 724              		.loc 1 1512 0
 725 014e 7B69     		ldr	r3, [r7, #20]
 726 0150 5B78     		ldrb	r3, [r3, #1]
 727 0152 002B     		cmp	r3, #0
 728 0154 0BD1     		bne	.L48
 729              	.LBB7:
1513:.\Generated_Source\PSoC4/CYBLE_eventHandler.c ****                 {
1514:.\Generated_Source\PSoC4/CYBLE_eventHandler.c ****                     static CYBLE_PREPARE_WRITE_REQUEST_MEMORY_T gPrepWriteReqMem;
1515:.\Generated_Source\PSoC4/CYBLE_eventHandler.c ****                     
1516:.\Generated_Source\PSoC4/CYBLE_eventHandler.c ****                     /* Configure and return statically allocated buffer at the end of cyBle_stackMe
1517:.\Generated_Source\PSoC4/CYBLE_eventHandler.c ****                     gPrepWriteReqMem.prepareWriteQueueSize = CYBLE_GATT_MAX_PREPARE_BUFF_COUNT;
 730              		.loc 1 1517 0
 731 0156 814B     		ldr	r3, .L58+40
 732 0158 0022     		mov	r2, #0
 733 015a DA80     		strh	r2, [r3, #6]
1518:.\Generated_Source\PSoC4/CYBLE_eventHandler.c ****                     gPrepWriteReqMem.totalAttrValueLength = CYBLE_GATT_PREPARE_LENGTH_ALIGN;
 734              		.loc 1 1518 0
 735 015c 7F4B     		ldr	r3, .L58+40
 736 015e 0022     		mov	r2, #0
 737 0160 9A80     		strh	r2, [r3, #4]
1519:.\Generated_Source\PSoC4/CYBLE_eventHandler.c ****                     gPrepWriteReqMem.queueBuffer = &cyBle_stackMemoryRam[CYBLE_STACK_RAM_SIZE - 
 738              		.loc 1 1519 0
 739 0162 7E4B     		ldr	r3, .L58+40
 740 0164 7E4A     		ldr	r2, .L58+44
 741 0166 1A60     		str	r2, [r3]
1520:.\Generated_Source\PSoC4/CYBLE_eventHandler.c ****                                                                          CYBLE_GATT_PREPARE_WRITE_B
1521:.\Generated_Source\PSoC4/CYBLE_eventHandler.c ****                     memReq->configMemory = &gPrepWriteReqMem;  
 742              		.loc 1 1521 0
 743 0168 7B69     		ldr	r3, [r7, #20]
 744 016a 7C4A     		ldr	r2, .L58+40
 745 016c 5A60     		str	r2, [r3, #4]
 746              	.L48:
 747              	.LBE7:
1522:.\Generated_Source\PSoC4/CYBLE_eventHandler.c ****                 }                
1523:.\Generated_Source\PSoC4/CYBLE_eventHandler.c ****                 /* Clear CYBLE_CALLBACK flag not to provide handled event to application */
1524:.\Generated_Source\PSoC4/CYBLE_eventHandler.c ****                 cyBle_eventHandlerFlag &= (uint8)~CYBLE_CALLBACK;
 748              		.loc 1 1524 0
 749 016e 714B     		ldr	r3, .L58
 750 0170 1B78     		ldrb	r3, [r3]
 751 0172 DBB2     		uxtb	r3, r3
ARM GAS  C:\Users\igreg\AppData\Local\Temp\ccnO9ZHN.s 			page 41


 752 0174 0122     		mov	r2, #1
 753 0176 9343     		bic	r3, r2
 754 0178 DAB2     		uxtb	r2, r3
 755 017a 6E4B     		ldr	r3, .L58
 756 017c 1A70     		strb	r2, [r3]
 757              	.LBE6:
1525:.\Generated_Source\PSoC4/CYBLE_eventHandler.c ****             #endif  /* CYBLE_GATT_ENABLE_EXTERNAL_PREP_WRITE_BUFF == 0u */
1526:.\Generated_Source\PSoC4/CYBLE_eventHandler.c ****             }
1527:.\Generated_Source\PSoC4/CYBLE_eventHandler.c ****         }
1528:.\Generated_Source\PSoC4/CYBLE_eventHandler.c ****         #endif /* CYBLE_MODE_PROFILE */
1529:.\Generated_Source\PSoC4/CYBLE_eventHandler.c ****             break;
 758              		.loc 1 1529 0
 759 017e BFE0     		b	.L46
 760              	.L47:
 761 0180 BEE0     		b	.L46
 762              	.L28:
1530:.\Generated_Source\PSoC4/CYBLE_eventHandler.c ****         /**********************************************************
1531:.\Generated_Source\PSoC4/CYBLE_eventHandler.c ****         * GAP events
1532:.\Generated_Source\PSoC4/CYBLE_eventHandler.c ****         ************************************************************/
1533:.\Generated_Source\PSoC4/CYBLE_eventHandler.c ****         case CYBLE_EVT_GAP_AUTH_REQ:
1534:.\Generated_Source\PSoC4/CYBLE_eventHandler.c ****         #if(CYBLE_MODE_PROFILE)
1535:.\Generated_Source\PSoC4/CYBLE_eventHandler.c ****             if(0u == (cyBle_eventHandlerFlag & CYBLE_DISABLE_AUTOMATIC_AUTH))
 763              		.loc 1 1535 0
 764 0182 6C4B     		ldr	r3, .L58
 765 0184 1B78     		ldrb	r3, [r3]
 766 0186 DBB2     		uxtb	r3, r3
 767 0188 1A1C     		mov	r2, r3
 768 018a 2023     		mov	r3, #32
 769 018c 1340     		and	r3, r2
 770 018e 0ED1     		bne	.L49
1536:.\Generated_Source\PSoC4/CYBLE_eventHandler.c ****             {
1537:.\Generated_Source\PSoC4/CYBLE_eventHandler.c ****                 /* If the responding device does not support pairing then the responding 
1538:.\Generated_Source\PSoC4/CYBLE_eventHandler.c ****                    device shall respond using the Pairing Failed message with the error 
1539:.\Generated_Source\PSoC4/CYBLE_eventHandler.c ****                    code "Pairing Not Supported" otherwise it responds with a Pairing 
1540:.\Generated_Source\PSoC4/CYBLE_eventHandler.c ****                    Response message.
1541:.\Generated_Source\PSoC4/CYBLE_eventHandler.c ****                 */
1542:.\Generated_Source\PSoC4/CYBLE_eventHandler.c ****                 if(cyBle_authInfo.security == (CYBLE_GAP_SEC_MODE_1 | CYBLE_GAP_SEC_LEVEL_1))
 771              		.loc 1 1542 0
 772 0190 744B     		ldr	r3, .L58+48
 773 0192 1B78     		ldrb	r3, [r3]
 774 0194 102B     		cmp	r3, #16
 775 0196 02D1     		bne	.L50
1543:.\Generated_Source\PSoC4/CYBLE_eventHandler.c ****                 {
1544:.\Generated_Source\PSoC4/CYBLE_eventHandler.c ****                     cyBle_authInfo.authErr = CYBLE_GAP_AUTH_ERROR_PAIRING_NOT_SUPPORTED;
 776              		.loc 1 1544 0
 777 0198 724B     		ldr	r3, .L58+48
 778 019a 0522     		mov	r2, #5
 779 019c DA70     		strb	r2, [r3, #3]
 780              	.L50:
1545:.\Generated_Source\PSoC4/CYBLE_eventHandler.c ****                 }    
1546:.\Generated_Source\PSoC4/CYBLE_eventHandler.c ****             #if(CYBLE_GAP_ROLE_PERIPHERAL)
1547:.\Generated_Source\PSoC4/CYBLE_eventHandler.c ****                 (void)CyBle_GappAuthReqReply(cyBle_connHandle.bdHandle, &cyBle_authInfo);
 781              		.loc 1 1547 0
 782 019e 724B     		ldr	r3, .L58+52
 783 01a0 1A78     		ldrb	r2, [r3]
 784 01a2 704B     		ldr	r3, .L58+48
 785 01a4 101C     		mov	r0, r2
ARM GAS  C:\Users\igreg\AppData\Local\Temp\ccnO9ZHN.s 			page 42


 786 01a6 191C     		mov	r1, r3
 787 01a8 FFF7FEFF 		bl	CyBle_GappAuthReqReply
1548:.\Generated_Source\PSoC4/CYBLE_eventHandler.c ****             #endif /* CYBLE_GAP_ROLE_PERIPHERAL */
1549:.\Generated_Source\PSoC4/CYBLE_eventHandler.c ****             #if (CYBLE_GAP_ROLE_CENTRAL)
1550:.\Generated_Source\PSoC4/CYBLE_eventHandler.c ****                 (void)CyBle_GapAuthReq(cyBle_connHandle.bdHandle, &cyBle_authInfo);
1551:.\Generated_Source\PSoC4/CYBLE_eventHandler.c ****             #endif /* CYBLE_GAP_ROLE_CENTRAL */
1552:.\Generated_Source\PSoC4/CYBLE_eventHandler.c ****             }
1553:.\Generated_Source\PSoC4/CYBLE_eventHandler.c ****         #endif /* CYBLE_MODE_PROFILE */
1554:.\Generated_Source\PSoC4/CYBLE_eventHandler.c ****             break;
 788              		.loc 1 1554 0
 789 01ac A8E0     		b	.L46
 790              	.L49:
 791 01ae A7E0     		b	.L46
 792              	.L33:
1555:.\Generated_Source\PSoC4/CYBLE_eventHandler.c ****         
1556:.\Generated_Source\PSoC4/CYBLE_eventHandler.c ****         case CYBLE_EVT_GAP_AUTH_COMPLETE:
1557:.\Generated_Source\PSoC4/CYBLE_eventHandler.c ****         #if((CYBLE_GAP_ROLE_PERIPHERAL || CYBLE_GAP_ROLE_CENTRAL) && (CYBLE_BONDING_REQUIREMENT == 
1558:.\Generated_Source\PSoC4/CYBLE_eventHandler.c ****             cyBle_peerBonding = ((CYBLE_GAP_AUTH_INFO_T *)eventParam)->bonding;
1559:.\Generated_Source\PSoC4/CYBLE_eventHandler.c ****         #endif  /* CYBLE_BONDING_REQUIREMENT == CYBLE_BONDING_YES */
1560:.\Generated_Source\PSoC4/CYBLE_eventHandler.c ****             break;
1561:.\Generated_Source\PSoC4/CYBLE_eventHandler.c ****         
1562:.\Generated_Source\PSoC4/CYBLE_eventHandler.c ****         case CYBLE_EVT_GAP_CONNECTION_UPDATE_COMPLETE:
1563:.\Generated_Source\PSoC4/CYBLE_eventHandler.c ****             CyBle_GapConnUpdateCompleteEventHandler((const CYBLE_GAP_CONN_PARAM_UPDATED_IN_CONTROLL
 793              		.loc 1 1563 0
 794 01b0 3B68     		ldr	r3, [r7]
 795 01b2 181C     		mov	r0, r3
 796 01b4 FFF7FEFF 		bl	CyBle_GapConnUpdateCompleteEventHandler
1564:.\Generated_Source\PSoC4/CYBLE_eventHandler.c ****             break;
 797              		.loc 1 1564 0
 798 01b8 A2E0     		b	.L46
 799              	.L31:
1565:.\Generated_Source\PSoC4/CYBLE_eventHandler.c ****             
1566:.\Generated_Source\PSoC4/CYBLE_eventHandler.c ****     #if(CYBLE_LL_PRIVACY_FEATURE != 0u)        
1567:.\Generated_Source\PSoC4/CYBLE_eventHandler.c ****         case CYBLE_EVT_GAP_ENHANCE_CONN_COMPLETE:
1568:.\Generated_Source\PSoC4/CYBLE_eventHandler.c ****         {
1569:.\Generated_Source\PSoC4/CYBLE_eventHandler.c ****             CYBLE_GAP_CONN_PARAM_UPDATED_IN_CONTROLLER_T  connCParam;
1570:.\Generated_Source\PSoC4/CYBLE_eventHandler.c ****             CYBLE_GAP_ENHANCE_CONN_COMPLETE_T *connEnhanceParam;
1571:.\Generated_Source\PSoC4/CYBLE_eventHandler.c ****             
1572:.\Generated_Source\PSoC4/CYBLE_eventHandler.c ****             connEnhanceParam = (CYBLE_GAP_ENHANCE_CONN_COMPLETE_T *)eventParam;
1573:.\Generated_Source\PSoC4/CYBLE_eventHandler.c ****             connCParam.status = connEnhanceParam->status;
1574:.\Generated_Source\PSoC4/CYBLE_eventHandler.c ****             connCParam.connIntv = connEnhanceParam->connIntv;
1575:.\Generated_Source\PSoC4/CYBLE_eventHandler.c ****             connCParam.connLatency = connEnhanceParam->connLatency;
1576:.\Generated_Source\PSoC4/CYBLE_eventHandler.c ****             connCParam.supervisionTO = connEnhanceParam->supervisionTo;
1577:.\Generated_Source\PSoC4/CYBLE_eventHandler.c ****             CyBle_GapConnUpdateCompleteEventHandler((const CYBLE_GAP_CONN_PARAM_UPDATED_IN_CONTROLL
1578:.\Generated_Source\PSoC4/CYBLE_eventHandler.c ****             
1579:.\Generated_Source\PSoC4/CYBLE_eventHandler.c ****             #if(CYBLE_GAP_ROLE_CENTRAL)
1580:.\Generated_Source\PSoC4/CYBLE_eventHandler.c ****                 if(cyBle_connectingTimeout != 0u)
1581:.\Generated_Source\PSoC4/CYBLE_eventHandler.c ****                 {
1582:.\Generated_Source\PSoC4/CYBLE_eventHandler.c ****                    (void)CyBle_StopTimer();
1583:.\Generated_Source\PSoC4/CYBLE_eventHandler.c ****                 }
1584:.\Generated_Source\PSoC4/CYBLE_eventHandler.c ****             #endif /* CYBLE_GAP_ROLE_CENTRAL */
1585:.\Generated_Source\PSoC4/CYBLE_eventHandler.c ****             CyBle_SetState(CYBLE_STATE_CONNECTED);
1586:.\Generated_Source\PSoC4/CYBLE_eventHandler.c ****         }
1587:.\Generated_Source\PSoC4/CYBLE_eventHandler.c ****             break;
1588:.\Generated_Source\PSoC4/CYBLE_eventHandler.c ****     #endif /* CYBLE_LL_PRIVACY_FEATURE != 0u */      
1589:.\Generated_Source\PSoC4/CYBLE_eventHandler.c ****             
1590:.\Generated_Source\PSoC4/CYBLE_eventHandler.c ****         case CYBLE_EVT_GAP_DEVICE_CONNECTED:
ARM GAS  C:\Users\igreg\AppData\Local\Temp\ccnO9ZHN.s 			page 43


1591:.\Generated_Source\PSoC4/CYBLE_eventHandler.c ****             CyBle_GapConnUpdateCompleteEventHandler((const CYBLE_GAP_CONN_PARAM_UPDATED_IN_CONTROLL
 800              		.loc 1 1591 0
 801 01ba 3B68     		ldr	r3, [r7]
 802 01bc 181C     		mov	r0, r3
 803 01be FFF7FEFF 		bl	CyBle_GapConnUpdateCompleteEventHandler
1592:.\Generated_Source\PSoC4/CYBLE_eventHandler.c ****             #if(CYBLE_GAP_ROLE_CENTRAL)
1593:.\Generated_Source\PSoC4/CYBLE_eventHandler.c ****                 if(cyBle_connectingTimeout != 0u)
1594:.\Generated_Source\PSoC4/CYBLE_eventHandler.c ****                 {
1595:.\Generated_Source\PSoC4/CYBLE_eventHandler.c ****                    (void)CyBle_StopTimer();
1596:.\Generated_Source\PSoC4/CYBLE_eventHandler.c ****                 }
1597:.\Generated_Source\PSoC4/CYBLE_eventHandler.c ****             #endif /* CYBLE_GAP_ROLE_CENTRAL */
1598:.\Generated_Source\PSoC4/CYBLE_eventHandler.c ****             CyBle_SetState(CYBLE_STATE_CONNECTED);
 804              		.loc 1 1598 0
 805 01c2 644B     		ldr	r3, .L58+32
 806 01c4 0222     		mov	r2, #2
 807 01c6 1A70     		strb	r2, [r3]
1599:.\Generated_Source\PSoC4/CYBLE_eventHandler.c ****             break;
 808              		.loc 1 1599 0
 809 01c8 9AE0     		b	.L46
 810              	.L32:
1600:.\Generated_Source\PSoC4/CYBLE_eventHandler.c **** 
1601:.\Generated_Source\PSoC4/CYBLE_eventHandler.c ****         case CYBLE_EVT_GAP_DEVICE_DISCONNECTED:
1602:.\Generated_Source\PSoC4/CYBLE_eventHandler.c ****             CyBle_SetState(CYBLE_STATE_DISCONNECTED);
 811              		.loc 1 1602 0
 812 01ca 624B     		ldr	r3, .L58+32
 813 01cc 0422     		mov	r2, #4
 814 01ce 1A70     		strb	r2, [r3]
1603:.\Generated_Source\PSoC4/CYBLE_eventHandler.c ****             break;
 815              		.loc 1 1603 0
 816 01d0 96E0     		b	.L46
 817              	.L30:
1604:.\Generated_Source\PSoC4/CYBLE_eventHandler.c ****         #if(CYBLE_GAP_ROLE_PERIPHERAL || CYBLE_GAP_ROLE_BROADCASTER)
1605:.\Generated_Source\PSoC4/CYBLE_eventHandler.c ****             
1606:.\Generated_Source\PSoC4/CYBLE_eventHandler.c ****         case CYBLE_EVT_GAPP_ADVERTISEMENT_START_STOP:
1607:.\Generated_Source\PSoC4/CYBLE_eventHandler.c ****             #ifdef CYBLE_CPS_SERVER
1608:.\Generated_Source\PSoC4/CYBLE_eventHandler.c ****                 #if(CYBLE_GAP_ROLE_BROADCASTER)
1609:.\Generated_Source\PSoC4/CYBLE_eventHandler.c ****                     CyBle_CpssAdvertisementStartStopEventHandler();
1610:.\Generated_Source\PSoC4/CYBLE_eventHandler.c ****                 #endif /* CYBLE_GAP_ROLE_BROADCASTER */
1611:.\Generated_Source\PSoC4/CYBLE_eventHandler.c ****             #endif /* CYBLE_CPS_SERVER */
1612:.\Generated_Source\PSoC4/CYBLE_eventHandler.c ****             
1613:.\Generated_Source\PSoC4/CYBLE_eventHandler.c ****             if((CYBLE_STATE_CONNECTED != CyBle_GetState()) && ((cyBle_eventHandlerFlag & CYBLE_CALL
 818              		.loc 1 1613 0
 819 01d2 604B     		ldr	r3, .L58+32
 820 01d4 1B78     		ldrb	r3, [r3]
 821 01d6 022B     		cmp	r3, #2
 822 01d8 40D0     		beq	.L51
 823              		.loc 1 1613 0 is_stmt 0 discriminator 1
 824 01da 564B     		ldr	r3, .L58
 825 01dc 1B78     		ldrb	r3, [r3]
 826 01de DBB2     		uxtb	r3, r3
 827 01e0 1A1C     		mov	r2, r3
 828 01e2 0123     		mov	r3, #1
 829 01e4 1340     		and	r3, r2
 830 01e6 39D0     		beq	.L51
1614:.\Generated_Source\PSoC4/CYBLE_eventHandler.c ****             {
1615:.\Generated_Source\PSoC4/CYBLE_eventHandler.c ****                 /* After CyBle_GappStartAdvertisement first event indicates that advertising has be
1616:.\Generated_Source\PSoC4/CYBLE_eventHandler.c ****                 if(0u != (cyBle_eventHandlerFlag & CYBLE_START_FLAG))
ARM GAS  C:\Users\igreg\AppData\Local\Temp\ccnO9ZHN.s 			page 44


 831              		.loc 1 1616 0 is_stmt 1
 832 01e8 524B     		ldr	r3, .L58
 833 01ea 1B78     		ldrb	r3, [r3]
 834 01ec DBB2     		uxtb	r3, r3
 835 01ee 1A1C     		mov	r2, r3
 836 01f0 0423     		mov	r3, #4
 837 01f2 1340     		and	r3, r2
 838 01f4 0BD0     		beq	.L52
1617:.\Generated_Source\PSoC4/CYBLE_eventHandler.c ****                 {
1618:.\Generated_Source\PSoC4/CYBLE_eventHandler.c ****                     CyBle_SetState(CYBLE_STATE_ADVERTISING);
 839              		.loc 1 1618 0
 840 01f6 574B     		ldr	r3, .L58+32
 841 01f8 0322     		mov	r2, #3
 842 01fa 1A70     		strb	r2, [r3]
1619:.\Generated_Source\PSoC4/CYBLE_eventHandler.c ****                     cyBle_eventHandlerFlag &= (uint8)~CYBLE_START_FLAG;
 843              		.loc 1 1619 0
 844 01fc 4D4B     		ldr	r3, .L58
 845 01fe 1B78     		ldrb	r3, [r3]
 846 0200 DBB2     		uxtb	r3, r3
 847 0202 0422     		mov	r2, #4
 848 0204 9343     		bic	r3, r2
 849 0206 DAB2     		uxtb	r2, r3
 850 0208 4A4B     		ldr	r3, .L58
 851 020a 1A70     		strb	r2, [r3]
 852 020c 26E0     		b	.L51
 853              	.L52:
1620:.\Generated_Source\PSoC4/CYBLE_eventHandler.c ****                 }
1621:.\Generated_Source\PSoC4/CYBLE_eventHandler.c ****                 /* When application initiated stop advertisement */
1622:.\Generated_Source\PSoC4/CYBLE_eventHandler.c ****                 else if(0u != (cyBle_eventHandlerFlag & CYBLE_STOP_FLAG))
 854              		.loc 1 1622 0
 855 020e 494B     		ldr	r3, .L58
 856 0210 1B78     		ldrb	r3, [r3]
 857 0212 DBB2     		uxtb	r3, r3
 858 0214 1A1C     		mov	r2, r3
 859 0216 0823     		mov	r3, #8
 860 0218 1340     		and	r3, r2
 861 021a 0BD0     		beq	.L53
1623:.\Generated_Source\PSoC4/CYBLE_eventHandler.c ****                 {
1624:.\Generated_Source\PSoC4/CYBLE_eventHandler.c ****                     CyBle_SetState(CYBLE_STATE_DISCONNECTED);  
 862              		.loc 1 1624 0
 863 021c 4D4B     		ldr	r3, .L58+32
 864 021e 0422     		mov	r2, #4
 865 0220 1A70     		strb	r2, [r3]
1625:.\Generated_Source\PSoC4/CYBLE_eventHandler.c ****                     cyBle_eventHandlerFlag &= (uint8)~CYBLE_STOP_FLAG;
 866              		.loc 1 1625 0
 867 0222 444B     		ldr	r3, .L58
 868 0224 1B78     		ldrb	r3, [r3]
 869 0226 DBB2     		uxtb	r3, r3
 870 0228 0822     		mov	r2, #8
 871 022a 9343     		bic	r3, r2
 872 022c DAB2     		uxtb	r2, r3
 873 022e 414B     		ldr	r3, .L58
 874 0230 1A70     		strb	r2, [r3]
 875 0232 13E0     		b	.L51
 876              	.L53:
1626:.\Generated_Source\PSoC4/CYBLE_eventHandler.c ****                 }
1627:.\Generated_Source\PSoC4/CYBLE_eventHandler.c ****                 else /* Following event indicates that advertising has been stopped */
ARM GAS  C:\Users\igreg\AppData\Local\Temp\ccnO9ZHN.s 			page 45


1628:.\Generated_Source\PSoC4/CYBLE_eventHandler.c ****                 {
1629:.\Generated_Source\PSoC4/CYBLE_eventHandler.c ****                     if(CYBLE_STATE_ADVERTISING == CyBle_GetState())
 877              		.loc 1 1629 0
 878 0234 474B     		ldr	r3, .L58+32
 879 0236 1B78     		ldrb	r3, [r3]
 880 0238 032B     		cmp	r3, #3
 881 023a 0FD1     		bne	.L51
1630:.\Generated_Source\PSoC4/CYBLE_eventHandler.c ****                     {
1631:.\Generated_Source\PSoC4/CYBLE_eventHandler.c ****                         CyBle_SetState(CYBLE_STATE_DISCONNECTED);
 882              		.loc 1 1631 0
 883 023c 454B     		ldr	r3, .L58+32
 884 023e 0422     		mov	r2, #4
 885 0240 1A70     		strb	r2, [r3]
1632:.\Generated_Source\PSoC4/CYBLE_eventHandler.c ****                     #if ((CYBLE_SLOW_ADV_ENABLED != 0u) && (CYBLE_FAST_ADV_TIMEOUT != 0u))
1633:.\Generated_Source\PSoC4/CYBLE_eventHandler.c ****                         if(cyBle_advertisingIntervalType == CYBLE_ADVERTISING_FAST)
 886              		.loc 1 1633 0
 887 0242 4A4B     		ldr	r3, .L58+56
 888 0244 1B78     		ldrb	r3, [r3]
 889 0246 002B     		cmp	r3, #0
 890 0248 08D1     		bne	.L51
1634:.\Generated_Source\PSoC4/CYBLE_eventHandler.c ****                         {
1635:.\Generated_Source\PSoC4/CYBLE_eventHandler.c ****                             /* When fast advertising time out occur: Start slow advertising */
1636:.\Generated_Source\PSoC4/CYBLE_eventHandler.c ****                             if(CYBLE_ERROR_OK == CyBle_GappStartAdvertisement(CYBLE_ADVERTISING_SLO
 891              		.loc 1 1636 0
 892 024a 0120     		mov	r0, #1
 893 024c FFF7FEFF 		bl	CyBle_GappStartAdvertisement
 894 0250 031E     		sub	r3, r0, #0
 895 0252 03D1     		bne	.L51
1637:.\Generated_Source\PSoC4/CYBLE_eventHandler.c ****                             {
1638:.\Generated_Source\PSoC4/CYBLE_eventHandler.c ****                                 CyBle_SetState(CYBLE_STATE_ADVERTISING);
 896              		.loc 1 1638 0
 897 0254 3F4B     		ldr	r3, .L58+32
 898 0256 0322     		mov	r2, #3
 899 0258 1A70     		strb	r2, [r3]
1639:.\Generated_Source\PSoC4/CYBLE_eventHandler.c ****                             }
1640:.\Generated_Source\PSoC4/CYBLE_eventHandler.c ****                         }
1641:.\Generated_Source\PSoC4/CYBLE_eventHandler.c ****                     #endif /* CYBLE_SLOW_ADV_ENABLED */
1642:.\Generated_Source\PSoC4/CYBLE_eventHandler.c ****                     }
1643:.\Generated_Source\PSoC4/CYBLE_eventHandler.c ****                 }
1644:.\Generated_Source\PSoC4/CYBLE_eventHandler.c ****             }
1645:.\Generated_Source\PSoC4/CYBLE_eventHandler.c ****             break;
 900              		.loc 1 1645 0
 901 025a 51E0     		b	.L46
 902              	.L51:
 903 025c 50E0     		b	.L46
 904              	.L43:
1646:.\Generated_Source\PSoC4/CYBLE_eventHandler.c ****         #endif /* CYBLE_GAP_ROLE_PERIPHERAL || CYBLE_GAP_ROLE_BROADCASTER */
1647:.\Generated_Source\PSoC4/CYBLE_eventHandler.c ****         
1648:.\Generated_Source\PSoC4/CYBLE_eventHandler.c ****         #if(CYBLE_GAP_ROLE_CENTRAL || CYBLE_GAP_ROLE_OBSERVER)    
1649:.\Generated_Source\PSoC4/CYBLE_eventHandler.c ****         case CYBLE_EVT_GAPC_SCAN_START_STOP:
1650:.\Generated_Source\PSoC4/CYBLE_eventHandler.c ****             #ifdef CYBLE_CPS_CLIENT
1651:.\Generated_Source\PSoC4/CYBLE_eventHandler.c ****                 CyBle_CpscScanStartStopEventHandler();
1652:.\Generated_Source\PSoC4/CYBLE_eventHandler.c ****             #endif /* CYBLE_CPS_CLIENT */
1653:.\Generated_Source\PSoC4/CYBLE_eventHandler.c ****             
1654:.\Generated_Source\PSoC4/CYBLE_eventHandler.c ****             if((CYBLE_STATE_CONNECTED != CyBle_GetState()) && ((cyBle_eventHandlerFlag & CYBLE_CALL
1655:.\Generated_Source\PSoC4/CYBLE_eventHandler.c ****             {
1656:.\Generated_Source\PSoC4/CYBLE_eventHandler.c ****                 /* After CyBle_GapcStartScan first event indicates that scanning has been started *
ARM GAS  C:\Users\igreg\AppData\Local\Temp\ccnO9ZHN.s 			page 46


1657:.\Generated_Source\PSoC4/CYBLE_eventHandler.c ****                 if(0u != (cyBle_eventHandlerFlag & CYBLE_START_FLAG))
1658:.\Generated_Source\PSoC4/CYBLE_eventHandler.c ****                 {
1659:.\Generated_Source\PSoC4/CYBLE_eventHandler.c ****                     CyBle_SetState(CYBLE_STATE_SCANNING);
1660:.\Generated_Source\PSoC4/CYBLE_eventHandler.c ****                     cyBle_eventHandlerFlag &= (uint8)~CYBLE_START_FLAG;
1661:.\Generated_Source\PSoC4/CYBLE_eventHandler.c ****                 }
1662:.\Generated_Source\PSoC4/CYBLE_eventHandler.c ****                 /* When application initiated stop scanning */
1663:.\Generated_Source\PSoC4/CYBLE_eventHandler.c ****                 else if(0u != (cyBle_eventHandlerFlag & CYBLE_STOP_FLAG))
1664:.\Generated_Source\PSoC4/CYBLE_eventHandler.c ****                 {
1665:.\Generated_Source\PSoC4/CYBLE_eventHandler.c ****                     CyBle_SetState(CYBLE_STATE_DISCONNECTED);  
1666:.\Generated_Source\PSoC4/CYBLE_eventHandler.c ****                     cyBle_eventHandlerFlag &= (uint8)~CYBLE_STOP_FLAG;
1667:.\Generated_Source\PSoC4/CYBLE_eventHandler.c ****                 }
1668:.\Generated_Source\PSoC4/CYBLE_eventHandler.c ****                 else /* Following event indicates that scanning has been stopped by stack */
1669:.\Generated_Source\PSoC4/CYBLE_eventHandler.c ****                 {
1670:.\Generated_Source\PSoC4/CYBLE_eventHandler.c ****                     if(CYBLE_STATE_SCANNING == CyBle_GetState())
1671:.\Generated_Source\PSoC4/CYBLE_eventHandler.c ****                     {
1672:.\Generated_Source\PSoC4/CYBLE_eventHandler.c ****                         CyBle_SetState(CYBLE_STATE_DISCONNECTED);  
1673:.\Generated_Source\PSoC4/CYBLE_eventHandler.c ****                     #if ((CYBLE_SLOW_SCAN_ENABLED != 0u) && (CYBLE_FAST_SCAN_TIMEOUT != 0u))
1674:.\Generated_Source\PSoC4/CYBLE_eventHandler.c ****                         if(cyBle_scanningIntervalType == CYBLE_SCANNING_FAST)
1675:.\Generated_Source\PSoC4/CYBLE_eventHandler.c ****                         {
1676:.\Generated_Source\PSoC4/CYBLE_eventHandler.c ****                             /* When fast scanning time out occur: Start slow scanning */
1677:.\Generated_Source\PSoC4/CYBLE_eventHandler.c ****                             if(CYBLE_ERROR_OK == CyBle_GapcStartScan(CYBLE_SCANNING_SLOW))
1678:.\Generated_Source\PSoC4/CYBLE_eventHandler.c ****                             {
1679:.\Generated_Source\PSoC4/CYBLE_eventHandler.c ****                                 CyBle_SetState(CYBLE_STATE_SCANNING);
1680:.\Generated_Source\PSoC4/CYBLE_eventHandler.c ****                             }
1681:.\Generated_Source\PSoC4/CYBLE_eventHandler.c ****                         }
1682:.\Generated_Source\PSoC4/CYBLE_eventHandler.c ****                     #endif /* CYBLE_SLOW_SCAN_ENABLED */
1683:.\Generated_Source\PSoC4/CYBLE_eventHandler.c ****                     }
1684:.\Generated_Source\PSoC4/CYBLE_eventHandler.c ****                 }
1685:.\Generated_Source\PSoC4/CYBLE_eventHandler.c ****             }
1686:.\Generated_Source\PSoC4/CYBLE_eventHandler.c ****             break;
1687:.\Generated_Source\PSoC4/CYBLE_eventHandler.c ****         #endif /* CYBLE_GAP_ROLE_CENTRAL || CYBLE_GAP_ROLE_OBSERVER */
1688:.\Generated_Source\PSoC4/CYBLE_eventHandler.c **** 
1689:.\Generated_Source\PSoC4/CYBLE_eventHandler.c ****         /**********************************************************
1690:.\Generated_Source\PSoC4/CYBLE_eventHandler.c ****         * L2AP events 
1691:.\Generated_Source\PSoC4/CYBLE_eventHandler.c ****         ************************************************************/
1692:.\Generated_Source\PSoC4/CYBLE_eventHandler.c ****         case CYBLE_EVT_L2CAP_CONN_PARAM_UPDATE_RSP:
1693:.\Generated_Source\PSoC4/CYBLE_eventHandler.c ****             CyBle_L2Cap_ConnParamUpdateRspEventHandler(*(uint16 *)eventParam);
 905              		.loc 1 1693 0
 906 025e 3B68     		ldr	r3, [r7]
 907 0260 1B88     		ldrh	r3, [r3]
 908 0262 181C     		mov	r0, r3
 909 0264 FFF7FEFF 		bl	CyBle_L2Cap_ConnParamUpdateRspEventHandler
1694:.\Generated_Source\PSoC4/CYBLE_eventHandler.c ****             break;
 910              		.loc 1 1694 0
 911 0268 4AE0     		b	.L46
 912              	.L34:
1695:.\Generated_Source\PSoC4/CYBLE_eventHandler.c ****         
1696:.\Generated_Source\PSoC4/CYBLE_eventHandler.c ****         /**********************************************************
1697:.\Generated_Source\PSoC4/CYBLE_eventHandler.c ****         * GATT events
1698:.\Generated_Source\PSoC4/CYBLE_eventHandler.c ****         ************************************************************/        
1699:.\Generated_Source\PSoC4/CYBLE_eventHandler.c ****         case CYBLE_EVT_GATT_CONNECT_IND:
1700:.\Generated_Source\PSoC4/CYBLE_eventHandler.c ****             cyBle_connHandle = *(CYBLE_CONN_HANDLE_T *)eventParam;
 913              		.loc 1 1700 0
 914 026a 3F4A     		ldr	r2, .L58+52
 915 026c 3B68     		ldr	r3, [r7]
 916 026e 111C     		mov	r1, r2
 917 0270 1A1C     		mov	r2, r3
ARM GAS  C:\Users\igreg\AppData\Local\Temp\ccnO9ZHN.s 			page 47


 918 0272 0223     		mov	r3, #2
 919 0274 081C     		mov	r0, r1
 920 0276 111C     		mov	r1, r2
 921 0278 1A1C     		mov	r2, r3
 922 027a FFF7FEFF 		bl	memcpy
1701:.\Generated_Source\PSoC4/CYBLE_eventHandler.c ****             cyBle_busyStatus = CYBLE_STACK_STATE_FREE;
 923              		.loc 1 1701 0
 924 027e 364B     		ldr	r3, .L58+36
 925 0280 0022     		mov	r2, #0
 926 0282 1A70     		strb	r2, [r3]
1702:.\Generated_Source\PSoC4/CYBLE_eventHandler.c ****             
1703:.\Generated_Source\PSoC4/CYBLE_eventHandler.c ****         #if((CYBLE_GATT_ROLE_SERVER) && (CYBLE_GATT_DB_CCCD_COUNT != 0u))
1704:.\Generated_Source\PSoC4/CYBLE_eventHandler.c ****             /* Init CCCD values in RAM */
1705:.\Generated_Source\PSoC4/CYBLE_eventHandler.c ****         	(void) memcpy (cyBle_attValuesCCCD, cyBle_flashStorage.attValuesCCCDFlashMemory[cyBle_conn
 927              		.loc 1 1705 0
 928 0284 384B     		ldr	r3, .L58+52
 929 0286 1B78     		ldrb	r3, [r3]
 930 0288 5A33     		add	r3, r3, #90
 931 028a 9A00     		lsl	r2, r3, #2
 932 028c 384B     		ldr	r3, .L58+60
 933 028e D318     		add	r3, r2, r3
 934 0290 0533     		add	r3, r3, #5
 935 0292 384A     		ldr	r2, .L58+64
 936 0294 111C     		mov	r1, r2
 937 0296 1A1C     		mov	r2, r3
 938 0298 0423     		mov	r3, #4
 939 029a 081C     		mov	r0, r1
 940 029c 111C     		mov	r1, r2
 941 029e 1A1C     		mov	r2, r3
 942 02a0 FFF7FEFF 		bl	memcpy
1706:.\Generated_Source\PSoC4/CYBLE_eventHandler.c ****                             CYBLE_GATT_DB_CCCD_COUNT);
1707:.\Generated_Source\PSoC4/CYBLE_eventHandler.c ****         #endif /* CYBLE_GATT_ROLE_SERVER */
1708:.\Generated_Source\PSoC4/CYBLE_eventHandler.c ****         
1709:.\Generated_Source\PSoC4/CYBLE_eventHandler.c ****         #if (CYBLE_GATT_ROLE_CLIENT)
1710:.\Generated_Source\PSoC4/CYBLE_eventHandler.c ****             CyBle_SetClientState(CYBLE_CLIENT_STATE_CONNECTED);
1711:.\Generated_Source\PSoC4/CYBLE_eventHandler.c ****         #endif /* CYBLE_GATT_ROLE_CLIENT */
1712:.\Generated_Source\PSoC4/CYBLE_eventHandler.c ****         
1713:.\Generated_Source\PSoC4/CYBLE_eventHandler.c ****             CyBle_GattConnectReqHandler();
 943              		.loc 1 1713 0
 944 02a4 FFF7FEFF 		bl	CyBle_GattConnectReqHandler
1714:.\Generated_Source\PSoC4/CYBLE_eventHandler.c ****             break;
 945              		.loc 1 1714 0
 946 02a8 2AE0     		b	.L46
 947              	.L35:
1715:.\Generated_Source\PSoC4/CYBLE_eventHandler.c **** 
1716:.\Generated_Source\PSoC4/CYBLE_eventHandler.c ****         case CYBLE_EVT_GATT_DISCONNECT_IND:
1717:.\Generated_Source\PSoC4/CYBLE_eventHandler.c ****             CyBle_GattDisconnectEventHandler();
 948              		.loc 1 1717 0
 949 02aa FFF7FEFF 		bl	CyBle_GattDisconnectEventHandler
1718:.\Generated_Source\PSoC4/CYBLE_eventHandler.c ****             break;
 950              		.loc 1 1718 0
 951 02ae 27E0     		b	.L46
 952              	.L36:
 953              	.LBB8:
1719:.\Generated_Source\PSoC4/CYBLE_eventHandler.c **** 
1720:.\Generated_Source\PSoC4/CYBLE_eventHandler.c ****     #if((CYBLE_GATT_ROLE_SERVER) || (CYBLE_GATT_ROLE_CLIENT))
1721:.\Generated_Source\PSoC4/CYBLE_eventHandler.c ****         case CYBLE_EVT_GATTS_XCNHG_MTU_REQ:
ARM GAS  C:\Users\igreg\AppData\Local\Temp\ccnO9ZHN.s 			page 48


1722:.\Generated_Source\PSoC4/CYBLE_eventHandler.c ****             {
1723:.\Generated_Source\PSoC4/CYBLE_eventHandler.c ****                 uint16 cyBle_mtuSize;
1724:.\Generated_Source\PSoC4/CYBLE_eventHandler.c ****                 if(CYBLE_GATT_MTU > ((CYBLE_GATT_XCHG_MTU_PARAM_T *)eventParam)->mtu)
 954              		.loc 1 1724 0
 955 02b0 3B68     		ldr	r3, [r7]
 956 02b2 5B88     		ldrh	r3, [r3, #2]
 957 02b4 162B     		cmp	r3, #22
 958 02b6 05D8     		bhi	.L54
1725:.\Generated_Source\PSoC4/CYBLE_eventHandler.c ****                 {
1726:.\Generated_Source\PSoC4/CYBLE_eventHandler.c ****                     cyBle_mtuSize = ((CYBLE_GATT_XCHG_MTU_PARAM_T *)eventParam)->mtu;
 959              		.loc 1 1726 0
 960 02b8 1E23     		mov	r3, #30
 961 02ba FB18     		add	r3, r7, r3
 962 02bc 3A68     		ldr	r2, [r7]
 963 02be 5288     		ldrh	r2, [r2, #2]
 964 02c0 1A80     		strh	r2, [r3]
 965 02c2 03E0     		b	.L55
 966              	.L54:
1727:.\Generated_Source\PSoC4/CYBLE_eventHandler.c ****                 }
1728:.\Generated_Source\PSoC4/CYBLE_eventHandler.c ****                 else
1729:.\Generated_Source\PSoC4/CYBLE_eventHandler.c ****                 {
1730:.\Generated_Source\PSoC4/CYBLE_eventHandler.c ****                     cyBle_mtuSize = CYBLE_GATT_MTU;
 967              		.loc 1 1730 0
 968 02c4 1E23     		mov	r3, #30
 969 02c6 FB18     		add	r3, r7, r3
 970 02c8 1722     		mov	r2, #23
 971 02ca 1A80     		strh	r2, [r3]
 972              	.L55:
1731:.\Generated_Source\PSoC4/CYBLE_eventHandler.c ****                 }
1732:.\Generated_Source\PSoC4/CYBLE_eventHandler.c ****                 (void)CyBle_GattsExchangeMtuRsp(((CYBLE_GATT_XCHG_MTU_PARAM_T *)eventParam)->connHa
 973              		.loc 1 1732 0
 974 02cc 3B68     		ldr	r3, [r7]
 975 02ce 1E22     		mov	r2, #30
 976 02d0 BA18     		add	r2, r7, r2
 977 02d2 1188     		ldrh	r1, [r2]
 978 02d4 1A88     		ldrh	r2, [r3]
 979 02d6 0023     		mov	r3, #0
 980 02d8 1204     		lsl	r2, r2, #16
 981 02da 120C     		lsr	r2, r2, #16
 982 02dc 1B0C     		lsr	r3, r3, #16
 983 02de 1B04     		lsl	r3, r3, #16
 984 02e0 1343     		orr	r3, r2
 985 02e2 181C     		mov	r0, r3
 986 02e4 FFF7FEFF 		bl	CyBle_GattsExchangeMtuRsp
 987              	.LBE8:
1733:.\Generated_Source\PSoC4/CYBLE_eventHandler.c ****             }
1734:.\Generated_Source\PSoC4/CYBLE_eventHandler.c ****             break;
 988              		.loc 1 1734 0
 989 02e8 0AE0     		b	.L46
 990              	.L37:
1735:.\Generated_Source\PSoC4/CYBLE_eventHandler.c ****     #endif /* CYBLE_GATT_ROLE_SERVER || CYBLE_GATT_ROLE_CLIENT */
1736:.\Generated_Source\PSoC4/CYBLE_eventHandler.c ****     
1737:.\Generated_Source\PSoC4/CYBLE_eventHandler.c ****     #if (CYBLE_GATT_ROLE_CLIENT)
1738:.\Generated_Source\PSoC4/CYBLE_eventHandler.c ****         case CYBLE_EVT_GAPC_SCAN_PROGRESS_RESULT:
1739:.\Generated_Source\PSoC4/CYBLE_eventHandler.c ****         #ifdef CYBLE_CPS_CLIENT
1740:.\Generated_Source\PSoC4/CYBLE_eventHandler.c ****             CyBle_CpscScanProcessEventHandler((CYBLE_GAPC_ADV_REPORT_T *)eventParam);
1741:.\Generated_Source\PSoC4/CYBLE_eventHandler.c ****         #endif /* CYBLE_CPS_CLIENT */
ARM GAS  C:\Users\igreg\AppData\Local\Temp\ccnO9ZHN.s 			page 49


1742:.\Generated_Source\PSoC4/CYBLE_eventHandler.c ****             break;
1743:.\Generated_Source\PSoC4/CYBLE_eventHandler.c ****     #endif /* CYBLE_GATT_ROLE_CLIENT */
1744:.\Generated_Source\PSoC4/CYBLE_eventHandler.c **** 
1745:.\Generated_Source\PSoC4/CYBLE_eventHandler.c ****     #if(CYBLE_GATT_ROLE_SERVER)
1746:.\Generated_Source\PSoC4/CYBLE_eventHandler.c ****         case CYBLE_EVT_GATTS_WRITE_REQ:
1747:.\Generated_Source\PSoC4/CYBLE_eventHandler.c ****             CyBle_WriteReqHandler((CYBLE_GATTS_WRITE_REQ_PARAM_T *)eventParam);
 991              		.loc 1 1747 0
 992 02ea 3B68     		ldr	r3, [r7]
 993 02ec 181C     		mov	r0, r3
 994 02ee FFF7FEFF 		bl	CyBle_WriteReqHandler
1748:.\Generated_Source\PSoC4/CYBLE_eventHandler.c ****             break;
 995              		.loc 1 1748 0
 996 02f2 05E0     		b	.L46
 997              	.L41:
1749:.\Generated_Source\PSoC4/CYBLE_eventHandler.c **** 
1750:.\Generated_Source\PSoC4/CYBLE_eventHandler.c ****         case CYBLE_EVT_GATTS_WRITE_CMD_REQ:
1751:.\Generated_Source\PSoC4/CYBLE_eventHandler.c ****         #ifdef CYBLE_IAS_SERVER
1752:.\Generated_Source\PSoC4/CYBLE_eventHandler.c ****             if((cyBle_eventHandlerFlag & CYBLE_CALLBACK) != 0u)
1753:.\Generated_Source\PSoC4/CYBLE_eventHandler.c ****             {
1754:.\Generated_Source\PSoC4/CYBLE_eventHandler.c ****                 (void)CyBle_IassWriteCmdEventHandler((CYBLE_GATTS_WRITE_REQ_PARAM_T *)eventParam);
1755:.\Generated_Source\PSoC4/CYBLE_eventHandler.c ****             }
1756:.\Generated_Source\PSoC4/CYBLE_eventHandler.c ****         #endif /* CYBLE_IAS_SERVER */
1757:.\Generated_Source\PSoC4/CYBLE_eventHandler.c ****         #ifdef CYBLE_HIDS_SERVER
1758:.\Generated_Source\PSoC4/CYBLE_eventHandler.c ****             if((cyBle_eventHandlerFlag & CYBLE_CALLBACK) != 0u)
1759:.\Generated_Source\PSoC4/CYBLE_eventHandler.c ****             {
1760:.\Generated_Source\PSoC4/CYBLE_eventHandler.c ****                 (void)CyBle_HidssWriteEventHandler((CYBLE_GATTS_WRITE_REQ_PARAM_T *)eventParam);
1761:.\Generated_Source\PSoC4/CYBLE_eventHandler.c ****             }
1762:.\Generated_Source\PSoC4/CYBLE_eventHandler.c ****         #endif /* CYBLE_HIDS_SERVER */
1763:.\Generated_Source\PSoC4/CYBLE_eventHandler.c ****         #ifdef CYBLE_PASS_SERVER
1764:.\Generated_Source\PSoC4/CYBLE_eventHandler.c ****             if((cyBle_eventHandlerFlag & CYBLE_CALLBACK) != 0u)
1765:.\Generated_Source\PSoC4/CYBLE_eventHandler.c ****             {
1766:.\Generated_Source\PSoC4/CYBLE_eventHandler.c ****                 (void)CyBle_PasssWriteCmdEventHandler((CYBLE_GATTS_WRITE_REQ_PARAM_T *)eventParam);
1767:.\Generated_Source\PSoC4/CYBLE_eventHandler.c ****             }
1768:.\Generated_Source\PSoC4/CYBLE_eventHandler.c ****         #endif /* CYBLE_PASS_SERVER */
1769:.\Generated_Source\PSoC4/CYBLE_eventHandler.c ****         #ifdef CYBLE_RTUS_SERVER
1770:.\Generated_Source\PSoC4/CYBLE_eventHandler.c ****             if((cyBle_eventHandlerFlag & CYBLE_CALLBACK) != 0u)
1771:.\Generated_Source\PSoC4/CYBLE_eventHandler.c ****             {
1772:.\Generated_Source\PSoC4/CYBLE_eventHandler.c ****                 (void)CyBle_RtussWriteCmdEventHandler((CYBLE_GATTS_WRITE_REQ_PARAM_T *)eventParam);
1773:.\Generated_Source\PSoC4/CYBLE_eventHandler.c ****             }
1774:.\Generated_Source\PSoC4/CYBLE_eventHandler.c ****         #endif /* CYBLE_RTUS_SERVER */
1775:.\Generated_Source\PSoC4/CYBLE_eventHandler.c ****         #ifdef CYBLE_SCPS_SERVER
1776:.\Generated_Source\PSoC4/CYBLE_eventHandler.c ****             if((cyBle_eventHandlerFlag & CYBLE_CALLBACK) != 0u)
1777:.\Generated_Source\PSoC4/CYBLE_eventHandler.c ****             {
1778:.\Generated_Source\PSoC4/CYBLE_eventHandler.c ****                 (void)CyBle_ScpssWriteEventHandler((CYBLE_GATTS_WRITE_REQ_PARAM_T *)eventParam);
1779:.\Generated_Source\PSoC4/CYBLE_eventHandler.c ****             }
1780:.\Generated_Source\PSoC4/CYBLE_eventHandler.c ****         #endif /* CYBLE_SCPS_SERVER */
1781:.\Generated_Source\PSoC4/CYBLE_eventHandler.c ****             break;
1782:.\Generated_Source\PSoC4/CYBLE_eventHandler.c ****         
1783:.\Generated_Source\PSoC4/CYBLE_eventHandler.c ****         case CYBLE_EVT_GATTS_PREP_WRITE_REQ:
1784:.\Generated_Source\PSoC4/CYBLE_eventHandler.c ****         #ifdef CYBLE_BMS_SERVER
1785:.\Generated_Source\PSoC4/CYBLE_eventHandler.c ****             CyBle_BmssPrepareWriteRequestEventHandler((CYBLE_GATTS_PREP_WRITE_REQ_PARAM_T *)eventPa
1786:.\Generated_Source\PSoC4/CYBLE_eventHandler.c ****         #endif /* CYBLE_BMS_SERVER */
1787:.\Generated_Source\PSoC4/CYBLE_eventHandler.c ****         #ifdef CYBLE_BTS_SERVER
1788:.\Generated_Source\PSoC4/CYBLE_eventHandler.c ****             if((cyBle_eventHandlerFlag & CYBLE_CALLBACK) != 0u)
1789:.\Generated_Source\PSoC4/CYBLE_eventHandler.c ****             {
1790:.\Generated_Source\PSoC4/CYBLE_eventHandler.c ****                 CyBle_BtssPrepareWriteRequestEventHandler((CYBLE_GATTS_PREP_WRITE_REQ_PARAM_T *)eve
1791:.\Generated_Source\PSoC4/CYBLE_eventHandler.c ****             }
ARM GAS  C:\Users\igreg\AppData\Local\Temp\ccnO9ZHN.s 			page 50


1792:.\Generated_Source\PSoC4/CYBLE_eventHandler.c ****         #endif /* CYBLE_BTS_SERVER */
1793:.\Generated_Source\PSoC4/CYBLE_eventHandler.c ****         #ifdef CYBLE_ESS_SERVER
1794:.\Generated_Source\PSoC4/CYBLE_eventHandler.c ****             if((cyBle_eventHandlerFlag & CYBLE_CALLBACK) != 0u)
1795:.\Generated_Source\PSoC4/CYBLE_eventHandler.c ****             {
1796:.\Generated_Source\PSoC4/CYBLE_eventHandler.c ****                 CyBle_EsssPrepareWriteRequestEventHandler((CYBLE_GATTS_PREP_WRITE_REQ_PARAM_T *)eve
1797:.\Generated_Source\PSoC4/CYBLE_eventHandler.c ****             }
1798:.\Generated_Source\PSoC4/CYBLE_eventHandler.c ****         #endif /* CYBLE_ESS_SERVER */
1799:.\Generated_Source\PSoC4/CYBLE_eventHandler.c ****         #ifdef CYBLE_HPS_SERVER
1800:.\Generated_Source\PSoC4/CYBLE_eventHandler.c ****             if((cyBle_eventHandlerFlag & CYBLE_CALLBACK) != 0u)
1801:.\Generated_Source\PSoC4/CYBLE_eventHandler.c ****             {
1802:.\Generated_Source\PSoC4/CYBLE_eventHandler.c ****                 CyBle_HpssPrepareWriteRequestEventHandler((CYBLE_GATTS_PREP_WRITE_REQ_PARAM_T *)eve
1803:.\Generated_Source\PSoC4/CYBLE_eventHandler.c ****             }
1804:.\Generated_Source\PSoC4/CYBLE_eventHandler.c ****         #endif /* CYBLE_HPS_SERVER */
1805:.\Generated_Source\PSoC4/CYBLE_eventHandler.c **** 		#ifdef CYBLE_UDS_SERVER
1806:.\Generated_Source\PSoC4/CYBLE_eventHandler.c ****             if((cyBle_eventHandlerFlag & CYBLE_CALLBACK) != 0u)
1807:.\Generated_Source\PSoC4/CYBLE_eventHandler.c ****             {
1808:.\Generated_Source\PSoC4/CYBLE_eventHandler.c ****                 CyBle_UdssPrepareWriteRequestEventHandler((CYBLE_GATTS_PREP_WRITE_REQ_PARAM_T *)eve
1809:.\Generated_Source\PSoC4/CYBLE_eventHandler.c ****             }
1810:.\Generated_Source\PSoC4/CYBLE_eventHandler.c ****         #endif /* CYBLE_UDS_SERVER */
1811:.\Generated_Source\PSoC4/CYBLE_eventHandler.c ****             break;
1812:.\Generated_Source\PSoC4/CYBLE_eventHandler.c **** 
1813:.\Generated_Source\PSoC4/CYBLE_eventHandler.c ****         case CYBLE_EVT_GATTS_EXEC_WRITE_REQ:
1814:.\Generated_Source\PSoC4/CYBLE_eventHandler.c ****         #ifdef CYBLE_BMS_SERVER
1815:.\Generated_Source\PSoC4/CYBLE_eventHandler.c ****             CyBle_BmssExecuteWriteRequestEventHandler((CYBLE_GATTS_EXEC_WRITE_REQ_T *)eventParam);
1816:.\Generated_Source\PSoC4/CYBLE_eventHandler.c ****         #endif /* CYBLE_BMS_SERVER */
1817:.\Generated_Source\PSoC4/CYBLE_eventHandler.c ****         #ifdef CYBLE_BTS_SERVER
1818:.\Generated_Source\PSoC4/CYBLE_eventHandler.c ****             CyBle_BtssExecuteWriteRequestEventHandler((CYBLE_GATTS_EXEC_WRITE_REQ_T *)eventParam);
1819:.\Generated_Source\PSoC4/CYBLE_eventHandler.c ****         #endif /* CYBLE_BTS_SERVER */
1820:.\Generated_Source\PSoC4/CYBLE_eventHandler.c ****         #ifdef CYBLE_ESS_SERVER
1821:.\Generated_Source\PSoC4/CYBLE_eventHandler.c ****             CyBle_EsssExecuteWriteRequestEventHandler((CYBLE_GATTS_EXEC_WRITE_REQ_T *)eventParam);
1822:.\Generated_Source\PSoC4/CYBLE_eventHandler.c ****         #endif /* CYBLE_ESS_SERVER */
1823:.\Generated_Source\PSoC4/CYBLE_eventHandler.c ****         #ifdef CYBLE_HPS_SERVER
1824:.\Generated_Source\PSoC4/CYBLE_eventHandler.c ****             CyBle_HpssExecuteWriteRequestEventHandler((CYBLE_GATTS_EXEC_WRITE_REQ_T *)eventParam);
1825:.\Generated_Source\PSoC4/CYBLE_eventHandler.c ****         #endif /* CYBLE_HPS_SERVER */
1826:.\Generated_Source\PSoC4/CYBLE_eventHandler.c **** 		#ifdef CYBLE_UDS_SERVER
1827:.\Generated_Source\PSoC4/CYBLE_eventHandler.c ****             CyBle_UdssExecuteWriteRequestEventHandler((CYBLE_GATTS_EXEC_WRITE_REQ_T *)eventParam);
1828:.\Generated_Source\PSoC4/CYBLE_eventHandler.c ****         #endif /* CYBLE_UDS_SERVER */
1829:.\Generated_Source\PSoC4/CYBLE_eventHandler.c ****             break;
1830:.\Generated_Source\PSoC4/CYBLE_eventHandler.c ****         
1831:.\Generated_Source\PSoC4/CYBLE_eventHandler.c ****         case CYBLE_EVT_GATTS_HANDLE_VALUE_CNF:
1832:.\Generated_Source\PSoC4/CYBLE_eventHandler.c ****             CyBle_ValueConfirmation((CYBLE_CONN_HANDLE_T *)eventParam);
 998              		.loc 1 1832 0
 999 02f4 3B68     		ldr	r3, [r7]
 1000 02f6 181C     		mov	r0, r3
 1001 02f8 FFF7FEFF 		bl	CyBle_ValueConfirmation
1833:.\Generated_Source\PSoC4/CYBLE_eventHandler.c ****             break;
 1002              		.loc 1 1833 0
 1003 02fc 00E0     		b	.L46
 1004              	.L57:
1834:.\Generated_Source\PSoC4/CYBLE_eventHandler.c ****             
1835:.\Generated_Source\PSoC4/CYBLE_eventHandler.c ****         case CYBLE_EVT_GATTS_READ_CHAR_VAL_ACCESS_REQ:
1836:.\Generated_Source\PSoC4/CYBLE_eventHandler.c ****         #ifdef CYBLE_UDS_SERVER
1837:.\Generated_Source\PSoC4/CYBLE_eventHandler.c ****             CyBle_UdssReadRequestEventHandler((CYBLE_GATTS_CHAR_VAL_READ_REQ_T *)eventParam);
1838:.\Generated_Source\PSoC4/CYBLE_eventHandler.c ****         #endif /* CYBLE_UDS_SERVER */
1839:.\Generated_Source\PSoC4/CYBLE_eventHandler.c ****             break;
1840:.\Generated_Source\PSoC4/CYBLE_eventHandler.c ****             
1841:.\Generated_Source\PSoC4/CYBLE_eventHandler.c ****     #endif /* CYBLE_GATT_ROLE_SERVER */
ARM GAS  C:\Users\igreg\AppData\Local\Temp\ccnO9ZHN.s 			page 51


1842:.\Generated_Source\PSoC4/CYBLE_eventHandler.c **** 
1843:.\Generated_Source\PSoC4/CYBLE_eventHandler.c ****     #if (CYBLE_GATT_ROLE_CLIENT)
1844:.\Generated_Source\PSoC4/CYBLE_eventHandler.c ****         
1845:.\Generated_Source\PSoC4/CYBLE_eventHandler.c ****         case CYBLE_EVT_GATTC_READ_BY_GROUP_TYPE_RSP:
1846:.\Generated_Source\PSoC4/CYBLE_eventHandler.c ****             CyBle_ReadByGroupEventHandler((CYBLE_GATTC_READ_BY_GRP_RSP_PARAM_T *)eventParam);
1847:.\Generated_Source\PSoC4/CYBLE_eventHandler.c ****             break;
1848:.\Generated_Source\PSoC4/CYBLE_eventHandler.c **** 
1849:.\Generated_Source\PSoC4/CYBLE_eventHandler.c ****         case CYBLE_EVT_GATTC_READ_BY_TYPE_RSP:
1850:.\Generated_Source\PSoC4/CYBLE_eventHandler.c ****             CyBle_ReadByTypeEventHandler((CYBLE_GATTC_READ_BY_TYPE_RSP_PARAM_T *)eventParam);
1851:.\Generated_Source\PSoC4/CYBLE_eventHandler.c ****             break;
1852:.\Generated_Source\PSoC4/CYBLE_eventHandler.c **** 
1853:.\Generated_Source\PSoC4/CYBLE_eventHandler.c ****         case CYBLE_EVT_GATTC_READ_BLOB_RSP:
1854:.\Generated_Source\PSoC4/CYBLE_eventHandler.c ****         #ifdef CYBLE_ESS_CLIENT
1855:.\Generated_Source\PSoC4/CYBLE_eventHandler.c ****             CyBle_EsscReadLongRespEventHandler((CYBLE_GATTC_READ_RSP_PARAM_T *)eventParam);
1856:.\Generated_Source\PSoC4/CYBLE_eventHandler.c ****         #endif /* CYBLE_ESS_CLIENT */
1857:.\Generated_Source\PSoC4/CYBLE_eventHandler.c ****         #ifdef CYBLE_HPS_CLIENT
1858:.\Generated_Source\PSoC4/CYBLE_eventHandler.c ****             CyBle_HpscReadLongRespEventHandler((CYBLE_GATTC_READ_RSP_PARAM_T *)eventParam);
1859:.\Generated_Source\PSoC4/CYBLE_eventHandler.c ****         #endif /* CYBLE_HPS_CLIENT */
1860:.\Generated_Source\PSoC4/CYBLE_eventHandler.c ****         #ifdef CYBLE_UDS_CLIENT
1861:.\Generated_Source\PSoC4/CYBLE_eventHandler.c ****             if((cyBle_eventHandlerFlag & CYBLE_CALLBACK) != 0u)
1862:.\Generated_Source\PSoC4/CYBLE_eventHandler.c ****             {
1863:.\Generated_Source\PSoC4/CYBLE_eventHandler.c ****                 CyBle_UdscReadLongRespEventHandler((CYBLE_GATTC_READ_RSP_PARAM_T *)eventParam);
1864:.\Generated_Source\PSoC4/CYBLE_eventHandler.c ****             }
1865:.\Generated_Source\PSoC4/CYBLE_eventHandler.c ****         #endif /* CYBLE_UDS_CLIENT */
1866:.\Generated_Source\PSoC4/CYBLE_eventHandler.c ****             break;
1867:.\Generated_Source\PSoC4/CYBLE_eventHandler.c ****         
1868:.\Generated_Source\PSoC4/CYBLE_eventHandler.c ****         case CYBLE_EVT_GATTC_LONG_PROCEDURE_END:
1869:.\Generated_Source\PSoC4/CYBLE_eventHandler.c ****             if((cyBle_eventHandlerFlag & CYBLE_AUTO_DISCOVERY) != 0u)
1870:.\Generated_Source\PSoC4/CYBLE_eventHandler.c ****             {   /* Do not propagate this event to application level during automatic discovery proc
1871:.\Generated_Source\PSoC4/CYBLE_eventHandler.c ****                 cyBle_eventHandlerFlag &= (uint8)~CYBLE_CALLBACK;
1872:.\Generated_Source\PSoC4/CYBLE_eventHandler.c ****             }
1873:.\Generated_Source\PSoC4/CYBLE_eventHandler.c ****             break;
1874:.\Generated_Source\PSoC4/CYBLE_eventHandler.c ****         
1875:.\Generated_Source\PSoC4/CYBLE_eventHandler.c ****         case CYBLE_EVT_GATTC_FIND_INFO_RSP:
1876:.\Generated_Source\PSoC4/CYBLE_eventHandler.c ****             CyBle_FindInfoEventHandler((CYBLE_GATTC_FIND_INFO_RSP_PARAM_T *)eventParam);
1877:.\Generated_Source\PSoC4/CYBLE_eventHandler.c ****             break;
1878:.\Generated_Source\PSoC4/CYBLE_eventHandler.c **** 
1879:.\Generated_Source\PSoC4/CYBLE_eventHandler.c ****         case CYBLE_EVT_GATTC_ERROR_RSP:
1880:.\Generated_Source\PSoC4/CYBLE_eventHandler.c ****             CyBle_ErrorResponseEventHandler((CYBLE_GATTC_ERR_RSP_PARAM_T *)eventParam);
1881:.\Generated_Source\PSoC4/CYBLE_eventHandler.c ****             break;
1882:.\Generated_Source\PSoC4/CYBLE_eventHandler.c **** 
1883:.\Generated_Source\PSoC4/CYBLE_eventHandler.c ****         case CYBLE_EVT_GATTC_HANDLE_VALUE_NTF:
1884:.\Generated_Source\PSoC4/CYBLE_eventHandler.c ****             CyBle_NotificationEventHandler((CYBLE_GATTC_HANDLE_VALUE_NTF_PARAM_T *)eventParam);
1885:.\Generated_Source\PSoC4/CYBLE_eventHandler.c ****             break;
1886:.\Generated_Source\PSoC4/CYBLE_eventHandler.c **** 
1887:.\Generated_Source\PSoC4/CYBLE_eventHandler.c ****         case CYBLE_EVT_GATTC_HANDLE_VALUE_IND:
1888:.\Generated_Source\PSoC4/CYBLE_eventHandler.c ****             CyBle_GattcIndicationEventHandler((CYBLE_GATTC_HANDLE_VALUE_IND_PARAM_T *)eventParam);
1889:.\Generated_Source\PSoC4/CYBLE_eventHandler.c ****             CyBle_IndicationEventHandler((CYBLE_GATTC_HANDLE_VALUE_IND_PARAM_T *)eventParam);
1890:.\Generated_Source\PSoC4/CYBLE_eventHandler.c ****         
1891:.\Generated_Source\PSoC4/CYBLE_eventHandler.c ****             /* Respond with a Handle Value Confirmation when request handled */
1892:.\Generated_Source\PSoC4/CYBLE_eventHandler.c ****             if((cyBle_eventHandlerFlag & CYBLE_CALLBACK) == 0u)
1893:.\Generated_Source\PSoC4/CYBLE_eventHandler.c ****             {
1894:.\Generated_Source\PSoC4/CYBLE_eventHandler.c ****                 (void)CyBle_GattcConfirmation(((CYBLE_GATTC_HANDLE_VALUE_IND_PARAM_T *)eventParam)-
1895:.\Generated_Source\PSoC4/CYBLE_eventHandler.c ****             }
1896:.\Generated_Source\PSoC4/CYBLE_eventHandler.c ****             break;
1897:.\Generated_Source\PSoC4/CYBLE_eventHandler.c ****         
1898:.\Generated_Source\PSoC4/CYBLE_eventHandler.c ****         case CYBLE_EVT_GATTC_READ_RSP:
ARM GAS  C:\Users\igreg\AppData\Local\Temp\ccnO9ZHN.s 			page 52


1899:.\Generated_Source\PSoC4/CYBLE_eventHandler.c ****             CyBle_ReadResponseEventHandler((CYBLE_GATTC_READ_RSP_PARAM_T *)eventParam);
1900:.\Generated_Source\PSoC4/CYBLE_eventHandler.c ****             break;
1901:.\Generated_Source\PSoC4/CYBLE_eventHandler.c **** 
1902:.\Generated_Source\PSoC4/CYBLE_eventHandler.c ****         case CYBLE_EVT_GATTC_WRITE_RSP:
1903:.\Generated_Source\PSoC4/CYBLE_eventHandler.c ****             CyBle_GattcWriteResponseEventHandler((CYBLE_CONN_HANDLE_T *)eventParam);
1904:.\Generated_Source\PSoC4/CYBLE_eventHandler.c ****             break;
1905:.\Generated_Source\PSoC4/CYBLE_eventHandler.c ****             
1906:.\Generated_Source\PSoC4/CYBLE_eventHandler.c ****         case CYBLE_EVT_GATTC_EXEC_WRITE_RSP:
1907:.\Generated_Source\PSoC4/CYBLE_eventHandler.c ****         #ifdef CYBLE_BMS_CLIENT
1908:.\Generated_Source\PSoC4/CYBLE_eventHandler.c ****             CyBle_BmscExecuteWriteResponseEventHandler((CYBLE_GATTC_EXEC_WRITE_RSP_T *)eventParam);
1909:.\Generated_Source\PSoC4/CYBLE_eventHandler.c ****         #endif /* CYBLE_BMS_CLIENT */
1910:.\Generated_Source\PSoC4/CYBLE_eventHandler.c ****         #ifdef CYBLE_ESS_CLIENT
1911:.\Generated_Source\PSoC4/CYBLE_eventHandler.c ****             if((cyBle_eventHandlerFlag & CYBLE_CALLBACK) != 0u)
1912:.\Generated_Source\PSoC4/CYBLE_eventHandler.c ****             {
1913:.\Generated_Source\PSoC4/CYBLE_eventHandler.c ****                 CyBle_EsscExecuteWriteResponseEventHandler((CYBLE_GATTC_EXEC_WRITE_RSP_T *)eventPar
1914:.\Generated_Source\PSoC4/CYBLE_eventHandler.c ****             }
1915:.\Generated_Source\PSoC4/CYBLE_eventHandler.c ****         #endif /* CYBLE_ESS_CLIENT */
1916:.\Generated_Source\PSoC4/CYBLE_eventHandler.c ****         #ifdef CYBLE_HPS_CLIENT
1917:.\Generated_Source\PSoC4/CYBLE_eventHandler.c ****             if((cyBle_eventHandlerFlag & CYBLE_CALLBACK) != 0u)
1918:.\Generated_Source\PSoC4/CYBLE_eventHandler.c ****             {
1919:.\Generated_Source\PSoC4/CYBLE_eventHandler.c ****                 CyBle_HpscExecuteWriteResponseEventHandler((CYBLE_GATTC_EXEC_WRITE_RSP_T *)eventPar
1920:.\Generated_Source\PSoC4/CYBLE_eventHandler.c ****             }
1921:.\Generated_Source\PSoC4/CYBLE_eventHandler.c ****         #endif /* CYBLE_HPS_CLIENT */
1922:.\Generated_Source\PSoC4/CYBLE_eventHandler.c ****         #ifdef CYBLE_UDS_CLIENT
1923:.\Generated_Source\PSoC4/CYBLE_eventHandler.c ****             if((cyBle_eventHandlerFlag & CYBLE_CALLBACK) != 0u)
1924:.\Generated_Source\PSoC4/CYBLE_eventHandler.c ****             {
1925:.\Generated_Source\PSoC4/CYBLE_eventHandler.c ****                 CyBle_UdscExecuteWriteResponseEventHandler((CYBLE_GATTC_EXEC_WRITE_RSP_T *)eventPar
1926:.\Generated_Source\PSoC4/CYBLE_eventHandler.c ****             }
1927:.\Generated_Source\PSoC4/CYBLE_eventHandler.c ****         #endif /* CYBLE_UDS_CLIENT */
1928:.\Generated_Source\PSoC4/CYBLE_eventHandler.c ****             break;
1929:.\Generated_Source\PSoC4/CYBLE_eventHandler.c ****             
1930:.\Generated_Source\PSoC4/CYBLE_eventHandler.c ****     #endif /* CYBLE_GATT_ROLE_CLIENT */
1931:.\Generated_Source\PSoC4/CYBLE_eventHandler.c **** 
1932:.\Generated_Source\PSoC4/CYBLE_eventHandler.c ****     #if((CYBLE_GAP_ROLE_PERIPHERAL || CYBLE_GAP_ROLE_CENTRAL) && (CYBLE_BONDING_REQUIREMENT == CYBL
1933:.\Generated_Source\PSoC4/CYBLE_eventHandler.c **** 
1934:.\Generated_Source\PSoC4/CYBLE_eventHandler.c ****         case CYBLE_EVT_PENDING_FLASH_WRITE:
1935:.\Generated_Source\PSoC4/CYBLE_eventHandler.c ****             cyBle_pendingFlashWrite |= CYBLE_PENDING_STACK_FLASH_WRITE_BIT;
1936:.\Generated_Source\PSoC4/CYBLE_eventHandler.c ****             break;
1937:.\Generated_Source\PSoC4/CYBLE_eventHandler.c ****         
1938:.\Generated_Source\PSoC4/CYBLE_eventHandler.c ****     #endif  /* (CYBLE_BONDING_REQUIREMENT == CYBLE_BONDING_YES) */
1939:.\Generated_Source\PSoC4/CYBLE_eventHandler.c ****     
1940:.\Generated_Source\PSoC4/CYBLE_eventHandler.c ****         default:
1941:.\Generated_Source\PSoC4/CYBLE_eventHandler.c ****             break;
 1005              		.loc 1 1941 0
 1006 02fe C046     		mov	r8, r8
 1007              	.L46:
1942:.\Generated_Source\PSoC4/CYBLE_eventHandler.c ****     }
1943:.\Generated_Source\PSoC4/CYBLE_eventHandler.c **** 
1944:.\Generated_Source\PSoC4/CYBLE_eventHandler.c ****     if(0u != (cyBle_eventHandlerFlag & (CYBLE_CALLBACK | CYBLE_ENABLE_ALL_EVENTS))) 
 1008              		.loc 1 1944 0
 1009 0300 0C4B     		ldr	r3, .L58
 1010 0302 1B78     		ldrb	r3, [r3]
 1011 0304 DBB2     		uxtb	r3, r3
 1012 0306 1A1C     		mov	r2, r3
 1013 0308 1123     		mov	r3, #17
 1014 030a 1340     		and	r3, r2
 1015 030c 0FD0     		beq	.L21
ARM GAS  C:\Users\igreg\AppData\Local\Temp\ccnO9ZHN.s 			page 53


1945:.\Generated_Source\PSoC4/CYBLE_eventHandler.c ****     {
1946:.\Generated_Source\PSoC4/CYBLE_eventHandler.c ****         cyBle_eventHandlerFlag &= (uint8)~CYBLE_CALLBACK;
 1016              		.loc 1 1946 0
 1017 030e 094B     		ldr	r3, .L58
 1018 0310 1B78     		ldrb	r3, [r3]
 1019 0312 DBB2     		uxtb	r3, r3
 1020 0314 0122     		mov	r2, #1
 1021 0316 9343     		bic	r3, r2
 1022 0318 DAB2     		uxtb	r2, r3
 1023 031a 064B     		ldr	r3, .L58
 1024 031c 1A70     		strb	r2, [r3]
1947:.\Generated_Source\PSoC4/CYBLE_eventHandler.c ****         CyBle_ApplCallback((uint32)eventCode, eventParam);
 1025              		.loc 1 1947 0
 1026 031e 164B     		ldr	r3, .L58+68
 1027 0320 1B68     		ldr	r3, [r3]
 1028 0322 FA1D     		add	r2, r7, #7
 1029 0324 1178     		ldrb	r1, [r2]
 1030 0326 3A68     		ldr	r2, [r7]
 1031 0328 081C     		mov	r0, r1
 1032 032a 111C     		mov	r1, r2
 1033 032c 9847     		blx	r3
 1034              	.L21:
1948:.\Generated_Source\PSoC4/CYBLE_eventHandler.c ****     }
1949:.\Generated_Source\PSoC4/CYBLE_eventHandler.c **** }
 1035              		.loc 1 1949 0
 1036 032e BD46     		mov	sp, r7
 1037 0330 08B0     		add	sp, sp, #32
 1038              		@ sp needed
 1039 0332 80BD     		pop	{r7, pc}
 1040              	.L59:
 1041              		.align	2
 1042              	.L58:
 1043 0334 00000000 		.word	cyBle_eventHandlerFlag
 1044 0338 00000000 		.word	.L24
 1045 033c 00000000 		.word	cyBle_sflashDeviceAddress
 1046 0340 7CF1FF0F 		.word	268431740
 1047 0344 7DF1FF0F 		.word	268431741
 1048 0348 7BF1FF0F 		.word	268431739
 1049 034c 78F1FF0F 		.word	268431736
 1050 0350 00000000 		.word	cyBle_deviceAddress
 1051 0354 00000000 		.word	cyBle_state
 1052 0358 00000000 		.word	cyBle_busyStatus
 1053 035c 00000000 		.word	gPrepWriteReqMem.6369
 1054 0360 E00A0000 		.word	cyBle_stackMemoryRam+2784
 1055 0364 00000000 		.word	cyBle_authInfo
 1056 0368 00000000 		.word	cyBle_connHandle
 1057 036c 00000000 		.word	cyBle_advertisingIntervalType
 1058 0370 00000000 		.word	cyBle_flashStorage
 1059 0374 00000000 		.word	cyBle_attValuesCCCD
 1060 0378 00000000 		.word	CyBle_ApplCallback
 1061              		.cfi_endproc
 1062              	.LFE10:
 1063              		.size	CyBle_EventHandler, .-CyBle_EventHandler
 1064              		.bss
 1065              		.align	2
 1066              	gPrepWriteReqMem.6369:
 1067 0000 00000000 		.space	8
ARM GAS  C:\Users\igreg\AppData\Local\Temp\ccnO9ZHN.s 			page 54


 1067      00000000 
 1068              		.text
 1069              	.Letext0:
 1070              		.file 2 ".\\Generated_Source\\PSoC4\\cytypes.h"
 1071              		.file 3 ".\\Generated_Source\\PSoC4\\CYBLE_Stack.h"
 1072              		.file 4 ".\\Generated_Source\\PSoC4\\CYBLE_StackHostMain.h"
 1073              		.file 5 ".\\Generated_Source\\PSoC4\\CYBLE_StackGap.h"
 1074              		.file 6 ".\\Generated_Source\\PSoC4\\CYBLE_StackGatt.h"
 1075              		.file 7 ".\\Generated_Source\\PSoC4\\CYBLE_StackGattServer.h"
 1076              		.file 8 ".\\Generated_Source\\PSoC4\\CYBLE.h"
 1077              		.file 9 ".\\Generated_Source\\PSoC4\\CYBLE_gatt.h"
 1078              		.file 10 ".\\Generated_Source\\PSoC4\\CYBLE_dis.h"
 1079              		.file 11 ".\\Generated_Source\\PSoC4\\CYBLE_hrs.h"
 1080              		.file 12 ".\\Generated_Source\\PSoC4\\CYBLE_eventHandler.h"
 1081              		.section	.debug_info,"",%progbits
 1082              	.Ldebug_info0:
 1083 0000 C20D0000 		.4byte	0xdc2
 1084 0004 0400     		.2byte	0x4
 1085 0006 00000000 		.4byte	.Ldebug_abbrev0
 1086 000a 04       		.byte	0x4
 1087 000b 01       		.uleb128 0x1
 1088 000c BF1A0000 		.4byte	.LASF329
 1089 0010 01       		.byte	0x1
 1090 0011 801B0000 		.4byte	.LASF330
 1091 0015 551D0000 		.4byte	.LASF331
 1092 0019 00000000 		.4byte	.Ldebug_ranges0+0
 1093 001d 00000000 		.4byte	0
 1094 0021 00000000 		.4byte	.Ldebug_line0
 1095 0025 02       		.uleb128 0x2
 1096 0026 01       		.byte	0x1
 1097 0027 06       		.byte	0x6
 1098 0028 1E070000 		.4byte	.LASF0
 1099 002c 02       		.uleb128 0x2
 1100 002d 01       		.byte	0x1
 1101 002e 08       		.byte	0x8
 1102 002f 70080000 		.4byte	.LASF1
 1103 0033 02       		.uleb128 0x2
 1104 0034 02       		.byte	0x2
 1105 0035 05       		.byte	0x5
 1106 0036 431D0000 		.4byte	.LASF2
 1107 003a 02       		.uleb128 0x2
 1108 003b 02       		.byte	0x2
 1109 003c 07       		.byte	0x7
 1110 003d EF210000 		.4byte	.LASF3
 1111 0041 02       		.uleb128 0x2
 1112 0042 04       		.byte	0x4
 1113 0043 05       		.byte	0x5
 1114 0044 00050000 		.4byte	.LASF4
 1115 0048 02       		.uleb128 0x2
 1116 0049 04       		.byte	0x4
 1117 004a 07       		.byte	0x7
 1118 004b 050F0000 		.4byte	.LASF5
 1119 004f 02       		.uleb128 0x2
 1120 0050 08       		.byte	0x8
 1121 0051 05       		.byte	0x5
 1122 0052 2A120000 		.4byte	.LASF6
 1123 0056 02       		.uleb128 0x2
ARM GAS  C:\Users\igreg\AppData\Local\Temp\ccnO9ZHN.s 			page 55


 1124 0057 08       		.byte	0x8
 1125 0058 07       		.byte	0x7
 1126 0059 41190000 		.4byte	.LASF7
 1127 005d 03       		.uleb128 0x3
 1128 005e 04       		.byte	0x4
 1129 005f 05       		.byte	0x5
 1130 0060 696E7400 		.ascii	"int\000"
 1131 0064 02       		.uleb128 0x2
 1132 0065 04       		.byte	0x4
 1133 0066 07       		.byte	0x7
 1134 0067 DB140000 		.4byte	.LASF8
 1135 006b 04       		.uleb128 0x4
 1136 006c CA1C0000 		.4byte	.LASF9
 1137 0070 02       		.byte	0x2
 1138 0071 3801     		.2byte	0x138
 1139 0073 2C000000 		.4byte	0x2c
 1140 0077 04       		.uleb128 0x4
 1141 0078 67230000 		.4byte	.LASF10
 1142 007c 02       		.byte	0x2
 1143 007d 3901     		.2byte	0x139
 1144 007f 3A000000 		.4byte	0x3a
 1145 0083 04       		.uleb128 0x4
 1146 0084 20010000 		.4byte	.LASF11
 1147 0088 02       		.byte	0x2
 1148 0089 3A01     		.2byte	0x13a
 1149 008b 48000000 		.4byte	0x48
 1150 008f 02       		.uleb128 0x2
 1151 0090 04       		.byte	0x4
 1152 0091 04       		.byte	0x4
 1153 0092 25140000 		.4byte	.LASF12
 1154 0096 02       		.uleb128 0x2
 1155 0097 08       		.byte	0x8
 1156 0098 04       		.byte	0x4
 1157 0099 F5120000 		.4byte	.LASF13
 1158 009d 02       		.uleb128 0x2
 1159 009e 01       		.byte	0x1
 1160 009f 08       		.byte	0x8
 1161 00a0 AA090000 		.4byte	.LASF14
 1162 00a4 05       		.uleb128 0x5
 1163 00a5 6B000000 		.4byte	0x6b
 1164 00a9 02       		.uleb128 0x2
 1165 00aa 04       		.byte	0x4
 1166 00ab 07       		.byte	0x7
 1167 00ac 30000000 		.4byte	.LASF15
 1168 00b0 06       		.uleb128 0x6
 1169 00b1 04       		.byte	0x4
 1170 00b2 07       		.uleb128 0x7
 1171 00b3 01       		.byte	0x1
 1172 00b4 03       		.byte	0x3
 1173 00b5 3901     		.2byte	0x139
 1174 00b7 6F020000 		.4byte	0x26f
 1175 00bb 08       		.uleb128 0x8
 1176 00bc 320A0000 		.4byte	.LASF16
 1177 00c0 00       		.sleb128 0
 1178 00c1 08       		.uleb128 0x8
 1179 00c2 83050000 		.4byte	.LASF17
 1180 00c6 01       		.sleb128 1
ARM GAS  C:\Users\igreg\AppData\Local\Temp\ccnO9ZHN.s 			page 56


 1181 00c7 08       		.uleb128 0x8
 1182 00c8 76190000 		.4byte	.LASF18
 1183 00cc 02       		.sleb128 2
 1184 00cd 08       		.uleb128 0x8
 1185 00ce 5F070000 		.4byte	.LASF19
 1186 00d2 03       		.sleb128 3
 1187 00d3 08       		.uleb128 0x8
 1188 00d4 8A220000 		.4byte	.LASF20
 1189 00d8 04       		.sleb128 4
 1190 00d9 08       		.uleb128 0x8
 1191 00da 9D200000 		.4byte	.LASF21
 1192 00de 05       		.sleb128 5
 1193 00df 08       		.uleb128 0x8
 1194 00e0 0E180000 		.4byte	.LASF22
 1195 00e4 06       		.sleb128 6
 1196 00e5 08       		.uleb128 0x8
 1197 00e6 EF1E0000 		.4byte	.LASF23
 1198 00ea 20       		.sleb128 32
 1199 00eb 08       		.uleb128 0x8
 1200 00ec 5F030000 		.4byte	.LASF24
 1201 00f0 21       		.sleb128 33
 1202 00f1 08       		.uleb128 0x8
 1203 00f2 40110000 		.4byte	.LASF25
 1204 00f6 22       		.sleb128 34
 1205 00f7 08       		.uleb128 0x8
 1206 00f8 CF160000 		.4byte	.LASF26
 1207 00fc 23       		.sleb128 35
 1208 00fd 08       		.uleb128 0x8
 1209 00fe 490E0000 		.4byte	.LASF27
 1210 0102 24       		.sleb128 36
 1211 0103 08       		.uleb128 0x8
 1212 0104 650E0000 		.4byte	.LASF28
 1213 0108 25       		.sleb128 37
 1214 0109 08       		.uleb128 0x8
 1215 010a A21C0000 		.4byte	.LASF29
 1216 010e 26       		.sleb128 38
 1217 010f 08       		.uleb128 0x8
 1218 0110 B0000000 		.4byte	.LASF30
 1219 0114 27       		.sleb128 39
 1220 0115 08       		.uleb128 0x8
 1221 0116 24230000 		.4byte	.LASF31
 1222 011a 28       		.sleb128 40
 1223 011b 08       		.uleb128 0x8
 1224 011c 41180000 		.4byte	.LASF32
 1225 0120 29       		.sleb128 41
 1226 0121 08       		.uleb128 0x8
 1227 0122 97100000 		.4byte	.LASF33
 1228 0126 2A       		.sleb128 42
 1229 0127 08       		.uleb128 0x8
 1230 0128 5C160000 		.4byte	.LASF34
 1231 012c 2B       		.sleb128 43
 1232 012d 08       		.uleb128 0x8
 1233 012e 12210000 		.4byte	.LASF35
 1234 0132 2C       		.sleb128 44
 1235 0133 08       		.uleb128 0x8
 1236 0134 5E000000 		.4byte	.LASF36
 1237 0138 2D       		.sleb128 45
ARM GAS  C:\Users\igreg\AppData\Local\Temp\ccnO9ZHN.s 			page 57


 1238 0139 08       		.uleb128 0x8
 1239 013a DF1C0000 		.4byte	.LASF37
 1240 013e 2E       		.sleb128 46
 1241 013f 08       		.uleb128 0x8
 1242 0140 07040000 		.4byte	.LASF38
 1243 0144 2F       		.sleb128 47
 1244 0145 08       		.uleb128 0x8
 1245 0146 89090000 		.4byte	.LASF39
 1246 014a 30       		.sleb128 48
 1247 014b 08       		.uleb128 0x8
 1248 014c A7130000 		.4byte	.LASF40
 1249 0150 31       		.sleb128 49
 1250 0151 08       		.uleb128 0x8
 1251 0152 820A0000 		.4byte	.LASF41
 1252 0156 32       		.sleb128 50
 1253 0157 08       		.uleb128 0x8
 1254 0158 B8080000 		.4byte	.LASF42
 1255 015c 33       		.sleb128 51
 1256 015d 08       		.uleb128 0x8
 1257 015e 691E0000 		.4byte	.LASF43
 1258 0162 C000     		.sleb128 64
 1259 0164 08       		.uleb128 0x8
 1260 0165 F0000000 		.4byte	.LASF44
 1261 0169 C100     		.sleb128 65
 1262 016b 08       		.uleb128 0x8
 1263 016c 9F220000 		.4byte	.LASF45
 1264 0170 C200     		.sleb128 66
 1265 0172 08       		.uleb128 0x8
 1266 0173 6A180000 		.4byte	.LASF46
 1267 0177 C300     		.sleb128 67
 1268 0179 08       		.uleb128 0x8
 1269 017a 7E080000 		.4byte	.LASF47
 1270 017e C400     		.sleb128 68
 1271 0180 08       		.uleb128 0x8
 1272 0181 E0070000 		.4byte	.LASF48
 1273 0185 C500     		.sleb128 69
 1274 0187 08       		.uleb128 0x8
 1275 0188 081C0000 		.4byte	.LASF49
 1276 018c C600     		.sleb128 70
 1277 018e 08       		.uleb128 0x8
 1278 018f EA1B0000 		.4byte	.LASF50
 1279 0193 C700     		.sleb128 71
 1280 0195 08       		.uleb128 0x8
 1281 0196 62090000 		.4byte	.LASF51
 1282 019a C800     		.sleb128 72
 1283 019c 08       		.uleb128 0x8
 1284 019d 44170000 		.4byte	.LASF52
 1285 01a1 C900     		.sleb128 73
 1286 01a3 08       		.uleb128 0x8
 1287 01a4 D90A0000 		.4byte	.LASF53
 1288 01a8 CA00     		.sleb128 74
 1289 01aa 08       		.uleb128 0x8
 1290 01ab DF090000 		.4byte	.LASF54
 1291 01af CB00     		.sleb128 75
 1292 01b1 08       		.uleb128 0x8
 1293 01b2 B5160000 		.4byte	.LASF55
 1294 01b6 CC00     		.sleb128 76
ARM GAS  C:\Users\igreg\AppData\Local\Temp\ccnO9ZHN.s 			page 58


 1295 01b8 08       		.uleb128 0x8
 1296 01b9 681C0000 		.4byte	.LASF56
 1297 01bd CD00     		.sleb128 77
 1298 01bf 08       		.uleb128 0x8
 1299 01c0 E2040000 		.4byte	.LASF57
 1300 01c4 CE00     		.sleb128 78
 1301 01c6 08       		.uleb128 0x8
 1302 01c7 E8140000 		.4byte	.LASF58
 1303 01cb CF00     		.sleb128 79
 1304 01cd 08       		.uleb128 0x8
 1305 01ce D01E0000 		.4byte	.LASF59
 1306 01d2 D000     		.sleb128 80
 1307 01d4 08       		.uleb128 0x8
 1308 01d5 1C0B0000 		.4byte	.LASF60
 1309 01d9 D100     		.sleb128 81
 1310 01db 08       		.uleb128 0x8
 1311 01dc 3E030000 		.4byte	.LASF61
 1312 01e0 D200     		.sleb128 82
 1313 01e2 08       		.uleb128 0x8
 1314 01e3 5B200000 		.4byte	.LASF62
 1315 01e7 D300     		.sleb128 83
 1316 01e9 08       		.uleb128 0x8
 1317 01ea 46230000 		.4byte	.LASF63
 1318 01ee D400     		.sleb128 84
 1319 01f0 08       		.uleb128 0x8
 1320 01f1 0C020000 		.4byte	.LASF64
 1321 01f5 D500     		.sleb128 85
 1322 01f7 08       		.uleb128 0x8
 1323 01f8 C30B0000 		.4byte	.LASF65
 1324 01fc D600     		.sleb128 86
 1325 01fe 08       		.uleb128 0x8
 1326 01ff 50140000 		.4byte	.LASF66
 1327 0203 D700     		.sleb128 87
 1328 0205 08       		.uleb128 0x8
 1329 0206 01230000 		.4byte	.LASF67
 1330 020a D800     		.sleb128 88
 1331 020c 08       		.uleb128 0x8
 1332 020d 80210000 		.4byte	.LASF68
 1333 0211 F000     		.sleb128 112
 1334 0213 08       		.uleb128 0x8
 1335 0214 C00D0000 		.4byte	.LASF69
 1336 0218 F100     		.sleb128 113
 1337 021a 08       		.uleb128 0x8
 1338 021b 9C060000 		.4byte	.LASF70
 1339 021f F200     		.sleb128 114
 1340 0221 08       		.uleb128 0x8
 1341 0222 B21E0000 		.4byte	.LASF71
 1342 0226 F300     		.sleb128 115
 1343 0228 08       		.uleb128 0x8
 1344 0229 97170000 		.4byte	.LASF72
 1345 022d F400     		.sleb128 116
 1346 022f 08       		.uleb128 0x8
 1347 0230 1F110000 		.4byte	.LASF73
 1348 0234 F500     		.sleb128 117
 1349 0236 08       		.uleb128 0x8
 1350 0237 41090000 		.4byte	.LASF74
 1351 023b F600     		.sleb128 118
ARM GAS  C:\Users\igreg\AppData\Local\Temp\ccnO9ZHN.s 			page 59


 1352 023d 08       		.uleb128 0x8
 1353 023e E9190000 		.4byte	.LASF75
 1354 0242 F700     		.sleb128 119
 1355 0244 08       		.uleb128 0x8
 1356 0245 30020000 		.4byte	.LASF76
 1357 0249 F800     		.sleb128 120
 1358 024b 08       		.uleb128 0x8
 1359 024c DF080000 		.4byte	.LASF77
 1360 0250 F900     		.sleb128 121
 1361 0252 08       		.uleb128 0x8
 1362 0253 DD220000 		.4byte	.LASF78
 1363 0257 FA00     		.sleb128 122
 1364 0259 08       		.uleb128 0x8
 1365 025a 1E130000 		.4byte	.LASF79
 1366 025e FA01     		.sleb128 250
 1367 0260 08       		.uleb128 0x8
 1368 0261 28200000 		.4byte	.LASF80
 1369 0265 FB01     		.sleb128 251
 1370 0267 08       		.uleb128 0x8
 1371 0268 4E160000 		.4byte	.LASF81
 1372 026c FF01     		.sleb128 255
 1373 026e 00       		.byte	0
 1374 026f 07       		.uleb128 0x7
 1375 0270 02       		.byte	0x2
 1376 0271 03       		.byte	0x3
 1377 0272 F402     		.2byte	0x2f4
 1378 0274 32030000 		.4byte	0x332
 1379 0278 08       		.uleb128 0x8
 1380 0279 8B070000 		.4byte	.LASF82
 1381 027d 00       		.sleb128 0
 1382 027e 08       		.uleb128 0x8
 1383 027f 580C0000 		.4byte	.LASF83
 1384 0283 01       		.sleb128 1
 1385 0284 08       		.uleb128 0x8
 1386 0285 6C220000 		.4byte	.LASF84
 1387 0289 02       		.sleb128 2
 1388 028a 08       		.uleb128 0x8
 1389 028b DE0C0000 		.4byte	.LASF85
 1390 028f 03       		.sleb128 3
 1391 0290 08       		.uleb128 0x8
 1392 0291 A60E0000 		.4byte	.LASF86
 1393 0295 04       		.sleb128 4
 1394 0296 08       		.uleb128 0x8
 1395 0297 D7120000 		.4byte	.LASF87
 1396 029b 05       		.sleb128 5
 1397 029c 08       		.uleb128 0x8
 1398 029d E21F0000 		.4byte	.LASF88
 1399 02a1 06       		.sleb128 6
 1400 02a2 08       		.uleb128 0x8
 1401 02a3 BC0A0000 		.4byte	.LASF89
 1402 02a7 07       		.sleb128 7
 1403 02a8 08       		.uleb128 0x8
 1404 02a9 EF130000 		.4byte	.LASF90
 1405 02ad 08       		.sleb128 8
 1406 02ae 08       		.uleb128 0x8
 1407 02af 431F0000 		.4byte	.LASF91
 1408 02b3 09       		.sleb128 9
ARM GAS  C:\Users\igreg\AppData\Local\Temp\ccnO9ZHN.s 			page 60


 1409 02b4 08       		.uleb128 0x8
 1410 02b5 6E230000 		.4byte	.LASF92
 1411 02b9 0A       		.sleb128 10
 1412 02ba 08       		.uleb128 0x8
 1413 02bb 8A030000 		.4byte	.LASF93
 1414 02bf 0B       		.sleb128 11
 1415 02c0 08       		.uleb128 0x8
 1416 02c1 86200000 		.4byte	.LASF94
 1417 02c5 0C       		.sleb128 12
 1418 02c6 08       		.uleb128 0x8
 1419 02c7 DB150000 		.4byte	.LASF95
 1420 02cb 0D       		.sleb128 13
 1421 02cc 08       		.uleb128 0x8
 1422 02cd 0D100000 		.4byte	.LASF96
 1423 02d1 0E       		.sleb128 14
 1424 02d2 08       		.uleb128 0x8
 1425 02d3 B2120000 		.4byte	.LASF97
 1426 02d7 0F       		.sleb128 15
 1427 02d8 08       		.uleb128 0x8
 1428 02d9 C2010000 		.4byte	.LASF98
 1429 02dd 10       		.sleb128 16
 1430 02de 08       		.uleb128 0x8
 1431 02df CB130000 		.4byte	.LASF99
 1432 02e3 11       		.sleb128 17
 1433 02e4 08       		.uleb128 0x8
 1434 02e5 96050000 		.4byte	.LASF100
 1435 02e9 12       		.sleb128 18
 1436 02ea 08       		.uleb128 0x8
 1437 02eb F6060000 		.4byte	.LASF101
 1438 02ef 13       		.sleb128 19
 1439 02f0 08       		.uleb128 0x8
 1440 02f1 FC120000 		.4byte	.LASF102
 1441 02f5 27       		.sleb128 39
 1442 02f6 08       		.uleb128 0x8
 1443 02f7 2B140000 		.4byte	.LASF103
 1444 02fb 28       		.sleb128 40
 1445 02fc 08       		.uleb128 0x8
 1446 02fd F0010000 		.4byte	.LASF104
 1447 0301 29       		.sleb128 41
 1448 0302 08       		.uleb128 0x8
 1449 0303 DB1D0000 		.4byte	.LASF105
 1450 0307 2A       		.sleb128 42
 1451 0308 08       		.uleb128 0x8
 1452 0309 4D0F0000 		.4byte	.LASF106
 1453 030d 2B       		.sleb128 43
 1454 030e 08       		.uleb128 0x8
 1455 030f B00D0000 		.4byte	.LASF107
 1456 0313 FF01     		.sleb128 255
 1457 0315 08       		.uleb128 0x8
 1458 0316 0E170000 		.4byte	.LASF108
 1459 031a 8002     		.sleb128 256
 1460 031c 08       		.uleb128 0x8
 1461 031d F5160000 		.4byte	.LASF109
 1462 0321 8102     		.sleb128 257
 1463 0323 08       		.uleb128 0x8
 1464 0324 50060000 		.4byte	.LASF110
 1465 0328 8202     		.sleb128 258
ARM GAS  C:\Users\igreg\AppData\Local\Temp\ccnO9ZHN.s 			page 61


 1466 032a 08       		.uleb128 0x8
 1467 032b A3190000 		.4byte	.LASF111
 1468 032f 8302     		.sleb128 259
 1469 0331 00       		.byte	0
 1470 0332 07       		.uleb128 0x7
 1471 0333 01       		.byte	0x1
 1472 0334 03       		.byte	0x3
 1473 0335 8B03     		.2byte	0x38b
 1474 0337 72030000 		.4byte	0x372
 1475 033b 08       		.uleb128 0x8
 1476 033c 2A070000 		.4byte	.LASF112
 1477 0340 01       		.sleb128 1
 1478 0341 08       		.uleb128 0x8
 1479 0342 AD040000 		.4byte	.LASF113
 1480 0346 02       		.sleb128 2
 1481 0347 08       		.uleb128 0x8
 1482 0348 F3170000 		.4byte	.LASF114
 1483 034c 03       		.sleb128 3
 1484 034d 08       		.uleb128 0x8
 1485 034e C7030000 		.4byte	.LASF115
 1486 0352 04       		.sleb128 4
 1487 0353 08       		.uleb128 0x8
 1488 0354 AF090000 		.4byte	.LASF116
 1489 0358 05       		.sleb128 5
 1490 0359 08       		.uleb128 0x8
 1491 035a 320F0000 		.4byte	.LASF117
 1492 035e 06       		.sleb128 6
 1493 035f 08       		.uleb128 0x8
 1494 0360 FC1F0000 		.4byte	.LASF118
 1495 0364 07       		.sleb128 7
 1496 0365 08       		.uleb128 0x8
 1497 0366 EE0E0000 		.4byte	.LASF119
 1498 036a 08       		.sleb128 8
 1499 036b 08       		.uleb128 0x8
 1500 036c 65130000 		.4byte	.LASF120
 1501 0370 09       		.sleb128 9
 1502 0371 00       		.byte	0
 1503 0372 04       		.uleb128 0x4
 1504 0373 8C110000 		.4byte	.LASF121
 1505 0377 03       		.byte	0x3
 1506 0378 A203     		.2byte	0x3a2
 1507 037a 32030000 		.4byte	0x332
 1508 037e 07       		.uleb128 0x7
 1509 037f 01       		.byte	0x1
 1510 0380 03       		.byte	0x3
 1511 0381 A603     		.2byte	0x3a6
 1512 0383 9A030000 		.4byte	0x39a
 1513 0387 08       		.uleb128 0x8
 1514 0388 13200000 		.4byte	.LASF122
 1515 038c 00       		.sleb128 0
 1516 038d 08       		.uleb128 0x8
 1517 038e 77150000 		.4byte	.LASF123
 1518 0392 01       		.sleb128 1
 1519 0393 08       		.uleb128 0x8
 1520 0394 6B210000 		.4byte	.LASF124
 1521 0398 02       		.sleb128 2
 1522 0399 00       		.byte	0
ARM GAS  C:\Users\igreg\AppData\Local\Temp\ccnO9ZHN.s 			page 62


 1523 039a 04       		.uleb128 0x4
 1524 039b 9A070000 		.4byte	.LASF125
 1525 039f 03       		.byte	0x3
 1526 03a0 AD03     		.2byte	0x3ad
 1527 03a2 7E030000 		.4byte	0x37e
 1528 03a6 09       		.uleb128 0x9
 1529 03a7 02       		.byte	0x2
 1530 03a8 03       		.byte	0x3
 1531 03a9 B003     		.2byte	0x3b0
 1532 03ab CA030000 		.4byte	0x3ca
 1533 03af 0A       		.uleb128 0xa
 1534 03b0 27010000 		.4byte	.LASF126
 1535 03b4 03       		.byte	0x3
 1536 03b5 B303     		.2byte	0x3b3
 1537 03b7 72030000 		.4byte	0x372
 1538 03bb 00       		.byte	0
 1539 03bc 0A       		.uleb128 0xa
 1540 03bd 92060000 		.4byte	.LASF127
 1541 03c1 03       		.byte	0x3
 1542 03c2 B503     		.2byte	0x3b5
 1543 03c4 9A030000 		.4byte	0x39a
 1544 03c8 01       		.byte	0x1
 1545 03c9 00       		.byte	0
 1546 03ca 04       		.uleb128 0x4
 1547 03cb 53210000 		.4byte	.LASF128
 1548 03cf 03       		.byte	0x3
 1549 03d0 B603     		.2byte	0x3b6
 1550 03d2 A6030000 		.4byte	0x3a6
 1551 03d6 07       		.uleb128 0x7
 1552 03d7 01       		.byte	0x1
 1553 03d8 03       		.byte	0x3
 1554 03d9 D703     		.2byte	0x3d7
 1555 03db EC030000 		.4byte	0x3ec
 1556 03df 08       		.uleb128 0x8
 1557 03e0 DB180000 		.4byte	.LASF129
 1558 03e4 00       		.sleb128 0
 1559 03e5 08       		.uleb128 0x8
 1560 03e6 800F0000 		.4byte	.LASF130
 1561 03ea 01       		.sleb128 1
 1562 03eb 00       		.byte	0
 1563 03ec 04       		.uleb128 0x4
 1564 03ed A6210000 		.4byte	.LASF131
 1565 03f1 03       		.byte	0x3
 1566 03f2 DE03     		.2byte	0x3de
 1567 03f4 D6030000 		.4byte	0x3d6
 1568 03f8 09       		.uleb128 0x9
 1569 03f9 08       		.byte	0x8
 1570 03fa 03       		.byte	0x3
 1571 03fb E103     		.2byte	0x3e1
 1572 03fd 29040000 		.4byte	0x429
 1573 0401 0A       		.uleb128 0xa
 1574 0402 9D000000 		.4byte	.LASF132
 1575 0406 03       		.byte	0x3
 1576 0407 E403     		.2byte	0x3e4
 1577 0409 EC030000 		.4byte	0x3ec
 1578 040d 00       		.byte	0
 1579 040e 0A       		.uleb128 0xa
ARM GAS  C:\Users\igreg\AppData\Local\Temp\ccnO9ZHN.s 			page 63


 1580 040f 7F0E0000 		.4byte	.LASF133
 1581 0413 03       		.byte	0x3
 1582 0414 E903     		.2byte	0x3e9
 1583 0416 6B000000 		.4byte	0x6b
 1584 041a 01       		.byte	0x1
 1585 041b 0A       		.uleb128 0xa
 1586 041c 34090000 		.4byte	.LASF134
 1587 0420 03       		.byte	0x3
 1588 0421 F103     		.2byte	0x3f1
 1589 0423 B0000000 		.4byte	0xb0
 1590 0427 04       		.byte	0x4
 1591 0428 00       		.byte	0
 1592 0429 04       		.uleb128 0x4
 1593 042a 6A120000 		.4byte	.LASF135
 1594 042e 03       		.byte	0x3
 1595 042f F303     		.2byte	0x3f3
 1596 0431 F8030000 		.4byte	0x3f8
 1597 0435 09       		.uleb128 0x9
 1598 0436 07       		.byte	0x7
 1599 0437 03       		.byte	0x3
 1600 0438 1704     		.2byte	0x417
 1601 043a 59040000 		.4byte	0x459
 1602 043e 0A       		.uleb128 0xa
 1603 043f 8B1F0000 		.4byte	.LASF136
 1604 0443 03       		.byte	0x3
 1605 0444 1A04     		.2byte	0x41a
 1606 0446 59040000 		.4byte	0x459
 1607 044a 00       		.byte	0
 1608 044b 0A       		.uleb128 0xa
 1609 044c 8A020000 		.4byte	.LASF137
 1610 0450 03       		.byte	0x3
 1611 0451 1C04     		.2byte	0x41c
 1612 0453 6B000000 		.4byte	0x6b
 1613 0457 06       		.byte	0x6
 1614 0458 00       		.byte	0
 1615 0459 0B       		.uleb128 0xb
 1616 045a 6B000000 		.4byte	0x6b
 1617 045e 69040000 		.4byte	0x469
 1618 0462 0C       		.uleb128 0xc
 1619 0463 A9000000 		.4byte	0xa9
 1620 0467 05       		.byte	0x5
 1621 0468 00       		.byte	0
 1622 0469 04       		.uleb128 0x4
 1623 046a 921A0000 		.4byte	.LASF138
 1624 046e 03       		.byte	0x3
 1625 046f 1D04     		.2byte	0x41d
 1626 0471 35040000 		.4byte	0x435
 1627 0475 0D       		.uleb128 0xd
 1628 0476 01       		.byte	0x1
 1629 0477 04       		.byte	0x4
 1630 0478 2C       		.byte	0x2c
 1631 0479 96040000 		.4byte	0x496
 1632 047d 08       		.uleb128 0x8
 1633 047e BB150000 		.4byte	.LASF139
 1634 0482 01       		.sleb128 1
 1635 0483 08       		.uleb128 0x8
 1636 0484 601A0000 		.4byte	.LASF140
ARM GAS  C:\Users\igreg\AppData\Local\Temp\ccnO9ZHN.s 			page 64


 1637 0488 02       		.sleb128 2
 1638 0489 08       		.uleb128 0x8
 1639 048a CB220000 		.4byte	.LASF141
 1640 048e 03       		.sleb128 3
 1641 048f 08       		.uleb128 0x8
 1642 0490 D91B0000 		.4byte	.LASF142
 1643 0494 04       		.sleb128 4
 1644 0495 00       		.byte	0
 1645 0496 0E       		.uleb128 0xe
 1646 0497 8F020000 		.4byte	.LASF143
 1647 049b 04       		.byte	0x4
 1648 049c 39       		.byte	0x39
 1649 049d 75040000 		.4byte	0x475
 1650 04a1 0D       		.uleb128 0xd
 1651 04a2 01       		.byte	0x1
 1652 04a3 05       		.byte	0x5
 1653 04a4 EC       		.byte	0xec
 1654 04a5 C8040000 		.4byte	0x4c8
 1655 04a9 08       		.uleb128 0x8
 1656 04aa 09050000 		.4byte	.LASF144
 1657 04ae 00       		.sleb128 0
 1658 04af 08       		.uleb128 0x8
 1659 04b0 1F050000 		.4byte	.LASF145
 1660 04b4 01       		.sleb128 1
 1661 04b5 08       		.uleb128 0x8
 1662 04b6 35050000 		.4byte	.LASF146
 1663 04ba 02       		.sleb128 2
 1664 04bb 08       		.uleb128 0x8
 1665 04bc 4B050000 		.4byte	.LASF147
 1666 04c0 03       		.sleb128 3
 1667 04c1 08       		.uleb128 0x8
 1668 04c2 930B0000 		.4byte	.LASF148
 1669 04c6 0F       		.sleb128 15
 1670 04c7 00       		.byte	0
 1671 04c8 07       		.uleb128 0x7
 1672 04c9 01       		.byte	0x1
 1673 04ca 05       		.byte	0x5
 1674 04cb 0B01     		.2byte	0x10b
 1675 04cd F0040000 		.4byte	0x4f0
 1676 04d1 08       		.uleb128 0x8
 1677 04d2 AA030000 		.4byte	.LASF149
 1678 04d6 00       		.sleb128 0
 1679 04d7 08       		.uleb128 0x8
 1680 04d8 F4200000 		.4byte	.LASF150
 1681 04dc 01       		.sleb128 1
 1682 04dd 08       		.uleb128 0x8
 1683 04de 140A0000 		.4byte	.LASF151
 1684 04e2 02       		.sleb128 2
 1685 04e3 08       		.uleb128 0x8
 1686 04e4 CF000000 		.4byte	.LASF152
 1687 04e8 03       		.sleb128 3
 1688 04e9 08       		.uleb128 0x8
 1689 04ea 831E0000 		.4byte	.LASF153
 1690 04ee 04       		.sleb128 4
 1691 04ef 00       		.byte	0
 1692 04f0 07       		.uleb128 0x7
 1693 04f1 01       		.byte	0x1
ARM GAS  C:\Users\igreg\AppData\Local\Temp\ccnO9ZHN.s 			page 65


 1694 04f2 05       		.byte	0x5
 1695 04f3 2101     		.2byte	0x121
 1696 04f5 60050000 		.4byte	0x560
 1697 04f9 08       		.uleb128 0x8
 1698 04fa 27180000 		.4byte	.LASF154
 1699 04fe 00       		.sleb128 0
 1700 04ff 08       		.uleb128 0x8
 1701 0500 5F040000 		.4byte	.LASF155
 1702 0504 01       		.sleb128 1
 1703 0505 08       		.uleb128 0x8
 1704 0506 AF180000 		.4byte	.LASF156
 1705 050a 02       		.sleb128 2
 1706 050b 08       		.uleb128 0x8
 1707 050c C10F0000 		.4byte	.LASF157
 1708 0510 03       		.sleb128 3
 1709 0511 08       		.uleb128 0x8
 1710 0512 23060000 		.4byte	.LASF158
 1711 0516 04       		.sleb128 4
 1712 0517 08       		.uleb128 0x8
 1713 0518 AE1B0000 		.4byte	.LASF159
 1714 051c 05       		.sleb128 5
 1715 051d 08       		.uleb128 0x8
 1716 051e E6110000 		.4byte	.LASF160
 1717 0522 06       		.sleb128 6
 1718 0523 08       		.uleb128 0x8
 1719 0524 960F0000 		.4byte	.LASF161
 1720 0528 07       		.sleb128 7
 1721 0529 08       		.uleb128 0x8
 1722 052a D2020000 		.4byte	.LASF162
 1723 052e 08       		.sleb128 8
 1724 052f 08       		.uleb128 0x8
 1725 0530 F8100000 		.4byte	.LASF163
 1726 0534 09       		.sleb128 9
 1727 0535 08       		.uleb128 0x8
 1728 0536 0C090000 		.4byte	.LASF164
 1729 053a 0A       		.sleb128 10
 1730 053b 08       		.uleb128 0x8
 1731 053c 64110000 		.4byte	.LASF165
 1732 0540 0B       		.sleb128 11
 1733 0541 08       		.uleb128 0x8
 1734 0542 C5200000 		.4byte	.LASF166
 1735 0546 0C       		.sleb128 12
 1736 0547 08       		.uleb128 0x8
 1737 0548 AE0C0000 		.4byte	.LASF167
 1738 054c 0D       		.sleb128 13
 1739 054d 08       		.uleb128 0x8
 1740 054e 07080000 		.4byte	.LASF168
 1741 0552 0E       		.sleb128 14
 1742 0553 08       		.uleb128 0x8
 1743 0554 A6020000 		.4byte	.LASF169
 1744 0558 15       		.sleb128 21
 1745 0559 08       		.uleb128 0x8
 1746 055a E60D0000 		.4byte	.LASF170
 1747 055e 18       		.sleb128 24
 1748 055f 00       		.byte	0
 1749 0560 04       		.uleb128 0x4
 1750 0561 96160000 		.4byte	.LASF171
ARM GAS  C:\Users\igreg\AppData\Local\Temp\ccnO9ZHN.s 			page 66


 1751 0565 05       		.byte	0x5
 1752 0566 6001     		.2byte	0x160
 1753 0568 F0040000 		.4byte	0x4f0
 1754 056c 09       		.uleb128 0x9
 1755 056d 05       		.byte	0x5
 1756 056e 05       		.byte	0x5
 1757 056f A701     		.2byte	0x1a7
 1758 0571 B7050000 		.4byte	0x5b7
 1759 0575 0A       		.uleb128 0xa
 1760 0576 81120000 		.4byte	.LASF172
 1761 057a 05       		.byte	0x5
 1762 057b B101     		.2byte	0x1b1
 1763 057d 6B000000 		.4byte	0x6b
 1764 0581 00       		.byte	0
 1765 0582 0A       		.uleb128 0xa
 1766 0583 B5140000 		.4byte	.LASF173
 1767 0587 05       		.byte	0x5
 1768 0588 B701     		.2byte	0x1b7
 1769 058a 6B000000 		.4byte	0x6b
 1770 058e 01       		.byte	0x1
 1771 058f 0A       		.uleb128 0xa
 1772 0590 39000000 		.4byte	.LASF174
 1773 0594 05       		.byte	0x5
 1774 0595 BE01     		.2byte	0x1be
 1775 0597 6B000000 		.4byte	0x6b
 1776 059b 02       		.byte	0x2
 1777 059c 0A       		.uleb128 0xa
 1778 059d 4D1D0000 		.4byte	.LASF175
 1779 05a1 05       		.byte	0x5
 1780 05a2 C201     		.2byte	0x1c2
 1781 05a4 60050000 		.4byte	0x560
 1782 05a8 03       		.byte	0x3
 1783 05a9 0A       		.uleb128 0xa
 1784 05aa 561C0000 		.4byte	.LASF176
 1785 05ae 05       		.byte	0x5
 1786 05af CC01     		.2byte	0x1cc
 1787 05b1 6B000000 		.4byte	0x6b
 1788 05b5 04       		.byte	0x4
 1789 05b6 00       		.byte	0
 1790 05b7 04       		.uleb128 0x4
 1791 05b8 FE090000 		.4byte	.LASF177
 1792 05bc 05       		.byte	0x5
 1793 05bd CE01     		.2byte	0x1ce
 1794 05bf 6C050000 		.4byte	0x56c
 1795 05c3 0F       		.uleb128 0xf
 1796 05c4 04       		.byte	0x4
 1797 05c5 6B000000 		.4byte	0x6b
 1798 05c9 09       		.uleb128 0x9
 1799 05ca 08       		.byte	0x8
 1800 05cb 05       		.byte	0x5
 1801 05cc 4803     		.2byte	0x348
 1802 05ce 07060000 		.4byte	0x607
 1803 05d2 0A       		.uleb128 0xa
 1804 05d3 2B0F0000 		.4byte	.LASF178
 1805 05d7 05       		.byte	0x5
 1806 05d8 4C03     		.2byte	0x34c
 1807 05da 6B000000 		.4byte	0x6b
ARM GAS  C:\Users\igreg\AppData\Local\Temp\ccnO9ZHN.s 			page 67


 1808 05de 00       		.byte	0
 1809 05df 0A       		.uleb128 0xa
 1810 05e0 E6210000 		.4byte	.LASF179
 1811 05e4 05       		.byte	0x5
 1812 05e5 5203     		.2byte	0x352
 1813 05e7 77000000 		.4byte	0x77
 1814 05eb 02       		.byte	0x2
 1815 05ec 0A       		.uleb128 0xa
 1816 05ed B9200000 		.4byte	.LASF180
 1817 05f1 05       		.byte	0x5
 1818 05f2 5703     		.2byte	0x357
 1819 05f4 77000000 		.4byte	0x77
 1820 05f8 04       		.byte	0x4
 1821 05f9 0A       		.uleb128 0xa
 1822 05fa BD220000 		.4byte	.LASF181
 1823 05fe 05       		.byte	0x5
 1824 05ff 5D03     		.2byte	0x35d
 1825 0601 77000000 		.4byte	0x77
 1826 0605 06       		.byte	0x6
 1827 0606 00       		.byte	0
 1828 0607 04       		.uleb128 0x4
 1829 0608 F8180000 		.4byte	.LASF182
 1830 060c 05       		.byte	0x5
 1831 060d 5F03     		.2byte	0x35f
 1832 060f C9050000 		.4byte	0x5c9
 1833 0613 0D       		.uleb128 0xd
 1834 0614 01       		.byte	0x1
 1835 0615 06       		.byte	0x6
 1836 0616 4F       		.byte	0x4f
 1837 0617 CD060000 		.4byte	0x6cd
 1838 061b 08       		.uleb128 0x8
 1839 061c 430C0000 		.4byte	.LASF183
 1840 0620 01       		.sleb128 1
 1841 0621 08       		.uleb128 0x8
 1842 0622 A30A0000 		.4byte	.LASF184
 1843 0626 02       		.sleb128 2
 1844 0627 08       		.uleb128 0x8
 1845 0628 C9040000 		.4byte	.LASF185
 1846 062c 03       		.sleb128 3
 1847 062d 08       		.uleb128 0x8
 1848 062e 46070000 		.4byte	.LASF186
 1849 0632 04       		.sleb128 4
 1850 0633 08       		.uleb128 0x8
 1851 0634 96180000 		.4byte	.LASF187
 1852 0638 05       		.sleb128 5
 1853 0639 08       		.uleb128 0x8
 1854 063a D1170000 		.4byte	.LASF188
 1855 063e 06       		.sleb128 6
 1856 063f 08       		.uleb128 0x8
 1857 0640 61050000 		.4byte	.LASF189
 1858 0644 07       		.sleb128 7
 1859 0645 08       		.uleb128 0x8
 1860 0646 7B170000 		.4byte	.LASF190
 1861 064a 08       		.sleb128 8
 1862 064b 08       		.uleb128 0x8
 1863 064c FA020000 		.4byte	.LASF191
 1864 0650 09       		.sleb128 9
ARM GAS  C:\Users\igreg\AppData\Local\Temp\ccnO9ZHN.s 			page 68


 1865 0651 08       		.uleb128 0x8
 1866 0652 170F0000 		.4byte	.LASF192
 1867 0656 0A       		.sleb128 10
 1868 0657 08       		.uleb128 0x8
 1869 0658 C41F0000 		.4byte	.LASF193
 1870 065c 0B       		.sleb128 11
 1871 065d 08       		.uleb128 0x8
 1872 065e A61A0000 		.4byte	.LASF194
 1873 0662 0C       		.sleb128 12
 1874 0663 08       		.uleb128 0x8
 1875 0664 B8060000 		.4byte	.LASF195
 1876 0668 0D       		.sleb128 13
 1877 0669 08       		.uleb128 0x8
 1878 066a 27170000 		.4byte	.LASF196
 1879 066e 0E       		.sleb128 14
 1880 066f 08       		.uleb128 0x8
 1881 0670 6D020000 		.4byte	.LASF197
 1882 0674 0F       		.sleb128 15
 1883 0675 08       		.uleb128 0x8
 1884 0676 49220000 		.4byte	.LASF198
 1885 067a 10       		.sleb128 16
 1886 067b 08       		.uleb128 0x8
 1887 067c 890E0000 		.4byte	.LASF199
 1888 0680 11       		.sleb128 17
 1889 0681 08       		.uleb128 0x8
 1890 0682 2E1D0000 		.4byte	.LASF200
 1891 0686 12       		.sleb128 18
 1892 0687 08       		.uleb128 0x8
 1893 0688 CA090000 		.4byte	.LASF201
 1894 068c 13       		.sleb128 19
 1895 068d 08       		.uleb128 0x8
 1896 068e 0B010000 		.4byte	.LASF202
 1897 0692 D200     		.sleb128 82
 1898 0694 08       		.uleb128 0x8
 1899 0695 7F010000 		.4byte	.LASF203
 1900 0699 16       		.sleb128 22
 1901 069a 08       		.uleb128 0x8
 1902 069b 00160000 		.4byte	.LASF204
 1903 069f 17       		.sleb128 23
 1904 06a0 08       		.uleb128 0x8
 1905 06a1 36210000 		.4byte	.LASF205
 1906 06a5 18       		.sleb128 24
 1907 06a6 08       		.uleb128 0x8
 1908 06a7 930D0000 		.4byte	.LASF206
 1909 06ab 19       		.sleb128 25
 1910 06ac 08       		.uleb128 0x8
 1911 06ad F10F0000 		.4byte	.LASF207
 1912 06b1 1B       		.sleb128 27
 1913 06b2 08       		.uleb128 0x8
 1914 06b3 9C080000 		.4byte	.LASF208
 1915 06b7 1D       		.sleb128 29
 1916 06b8 08       		.uleb128 0x8
 1917 06b9 42000000 		.4byte	.LASF209
 1918 06bd 1E       		.sleb128 30
 1919 06be 08       		.uleb128 0x8
 1920 06bf 4C0D0000 		.4byte	.LASF210
 1921 06c3 D201     		.sleb128 210
ARM GAS  C:\Users\igreg\AppData\Local\Temp\ccnO9ZHN.s 			page 69


 1922 06c5 08       		.uleb128 0x8
 1923 06c6 88190000 		.4byte	.LASF211
 1924 06ca FF01     		.sleb128 255
 1925 06cc 00       		.byte	0
 1926 06cd 0D       		.uleb128 0xd
 1927 06ce 01       		.byte	0x1
 1928 06cf 06       		.byte	0x6
 1929 06d0 AB       		.byte	0xab
 1930 06d1 CE070000 		.4byte	0x7ce
 1931 06d5 08       		.uleb128 0x8
 1932 06d6 081A0000 		.4byte	.LASF212
 1933 06da 00       		.sleb128 0
 1934 06db 08       		.uleb128 0x8
 1935 06dc 58190000 		.4byte	.LASF213
 1936 06e0 01       		.sleb128 1
 1937 06e1 08       		.uleb128 0x8
 1938 06e2 38010000 		.4byte	.LASF214
 1939 06e6 02       		.sleb128 2
 1940 06e7 08       		.uleb128 0x8
 1941 06e8 C3210000 		.4byte	.LASF215
 1942 06ec 03       		.sleb128 3
 1943 06ed 08       		.uleb128 0x8
 1944 06ee 08060000 		.4byte	.LASF216
 1945 06f2 04       		.sleb128 4
 1946 06f3 08       		.uleb128 0x8
 1947 06f4 07150000 		.4byte	.LASF217
 1948 06f8 05       		.sleb128 5
 1949 06f9 08       		.uleb128 0x8
 1950 06fa 441E0000 		.4byte	.LASF218
 1951 06fe 06       		.sleb128 6
 1952 06ff 08       		.uleb128 0x8
 1953 0700 5D170000 		.4byte	.LASF219
 1954 0704 07       		.sleb128 7
 1955 0705 08       		.uleb128 0x8
 1956 0706 80140000 		.4byte	.LASF220
 1957 070a 08       		.sleb128 8
 1958 070b 08       		.uleb128 0x8
 1959 070c 8A120000 		.4byte	.LASF221
 1960 0710 09       		.sleb128 9
 1961 0711 08       		.uleb128 0x8
 1962 0712 2B160000 		.4byte	.LASF222
 1963 0716 0A       		.sleb128 10
 1964 0717 08       		.uleb128 0x8
 1965 0718 710B0000 		.4byte	.LASF223
 1966 071c 0B       		.sleb128 11
 1967 071d 08       		.uleb128 0x8
 1968 071e 3C130000 		.4byte	.LASF224
 1969 0722 0C       		.sleb128 12
 1970 0723 08       		.uleb128 0x8
 1971 0724 D1060000 		.4byte	.LASF225
 1972 0728 0D       		.sleb128 13
 1973 0729 08       		.uleb128 0x8
 1974 072a 640A0000 		.4byte	.LASF226
 1975 072e 0E       		.sleb128 14
 1976 072f 08       		.uleb128 0x8
 1977 0730 02220000 		.4byte	.LASF227
 1978 0734 0F       		.sleb128 15
ARM GAS  C:\Users\igreg\AppData\Local\Temp\ccnO9ZHN.s 			page 70


 1979 0735 08       		.uleb128 0x8
 1980 0736 9C010000 		.4byte	.LASF228
 1981 073a 10       		.sleb128 16
 1982 073b 08       		.uleb128 0x8
 1983 073c 5A010000 		.4byte	.LASF229
 1984 0740 11       		.sleb128 17
 1985 0741 08       		.uleb128 0x8
 1986 0742 3B0B0000 		.4byte	.LASF230
 1987 0746 8001     		.sleb128 128
 1988 0748 08       		.uleb128 0x8
 1989 0749 1B0E0000 		.4byte	.LASF231
 1990 074d 8001     		.sleb128 128
 1991 074f 08       		.uleb128 0x8
 1992 0750 F81D0000 		.4byte	.LASF232
 1993 0754 8001     		.sleb128 128
 1994 0756 08       		.uleb128 0x8
 1995 0757 721A0000 		.4byte	.LASF233
 1996 075b 8001     		.sleb128 128
 1997 075d 08       		.uleb128 0x8
 1998 075e 8D150000 		.4byte	.LASF234
 1999 0762 8001     		.sleb128 128
 2000 0764 08       		.uleb128 0x8
 2001 0765 C90E0000 		.4byte	.LASF235
 2002 0769 8001     		.sleb128 128
 2003 076b 08       		.uleb128 0x8
 2004 076c 490A0000 		.4byte	.LASF236
 2005 0770 8001     		.sleb128 128
 2006 0772 08       		.uleb128 0x8
 2007 0773 680D0000 		.4byte	.LASF237
 2008 0777 8101     		.sleb128 129
 2009 0779 08       		.uleb128 0x8
 2010 077a 291C0000 		.4byte	.LASF238
 2011 077e 8101     		.sleb128 129
 2012 0780 08       		.uleb128 0x8
 2013 0781 00000000 		.4byte	.LASF239
 2014 0785 8101     		.sleb128 129
 2015 0787 08       		.uleb128 0x8
 2016 0788 E4050000 		.4byte	.LASF240
 2017 078c 8101     		.sleb128 129
 2018 078e 08       		.uleb128 0x8
 2019 078f 39040000 		.4byte	.LASF241
 2020 0793 8201     		.sleb128 130
 2021 0795 08       		.uleb128 0x8
 2022 0796 921F0000 		.4byte	.LASF242
 2023 079a A001     		.sleb128 160
 2024 079c 08       		.uleb128 0x8
 2025 079d 36100000 		.4byte	.LASF243
 2026 07a1 A001     		.sleb128 160
 2027 07a3 08       		.uleb128 0x8
 2028 07a4 89040000 		.4byte	.LASF244
 2029 07a8 A101     		.sleb128 161
 2030 07aa 08       		.uleb128 0x8
 2031 07ab 1D1F0000 		.4byte	.LASF245
 2032 07af A201     		.sleb128 162
 2033 07b1 08       		.uleb128 0x8
 2034 07b2 E50B0000 		.4byte	.LASF246
 2035 07b6 A301     		.sleb128 163
ARM GAS  C:\Users\igreg\AppData\Local\Temp\ccnO9ZHN.s 			page 71


 2036 07b8 08       		.uleb128 0x8
 2037 07b9 B6070000 		.4byte	.LASF247
 2038 07bd FD01     		.sleb128 253
 2039 07bf 08       		.uleb128 0x8
 2040 07c0 7A130000 		.4byte	.LASF248
 2041 07c4 FE01     		.sleb128 254
 2042 07c6 08       		.uleb128 0x8
 2043 07c7 B5170000 		.4byte	.LASF249
 2044 07cb FF01     		.sleb128 255
 2045 07cd 00       		.byte	0
 2046 07ce 04       		.uleb128 0x4
 2047 07cf 4A1A0000 		.4byte	.LASF250
 2048 07d3 06       		.byte	0x6
 2049 07d4 6201     		.2byte	0x162
 2050 07d6 CD060000 		.4byte	0x6cd
 2051 07da 04       		.uleb128 0x4
 2052 07db BD190000 		.4byte	.LASF251
 2053 07df 06       		.byte	0x6
 2054 07e0 9101     		.2byte	0x191
 2055 07e2 77000000 		.4byte	0x77
 2056 07e6 09       		.uleb128 0x9
 2057 07e7 02       		.byte	0x2
 2058 07e8 06       		.byte	0x6
 2059 07e9 9B01     		.2byte	0x19b
 2060 07eb 0A080000 		.4byte	0x80a
 2061 07ef 0A       		.uleb128 0xa
 2062 07f0 30040000 		.4byte	.LASF252
 2063 07f4 06       		.byte	0x6
 2064 07f5 A201     		.2byte	0x1a2
 2065 07f7 6B000000 		.4byte	0x6b
 2066 07fb 00       		.byte	0
 2067 07fc 0A       		.uleb128 0xa
 2068 07fd 66220000 		.4byte	.LASF253
 2069 0801 06       		.byte	0x6
 2070 0802 A801     		.2byte	0x1a8
 2071 0804 6B000000 		.4byte	0x6b
 2072 0808 01       		.byte	0x1
 2073 0809 00       		.byte	0
 2074 080a 04       		.uleb128 0x4
 2075 080b 76030000 		.4byte	.LASF254
 2076 080f 06       		.byte	0x6
 2077 0810 AA01     		.2byte	0x1aa
 2078 0812 E6070000 		.4byte	0x7e6
 2079 0816 09       		.uleb128 0x9
 2080 0817 08       		.byte	0x8
 2081 0818 06       		.byte	0x6
 2082 0819 C601     		.2byte	0x1c6
 2083 081b 47080000 		.4byte	0x847
 2084 081f 10       		.uleb128 0x10
 2085 0820 76616C00 		.ascii	"val\000"
 2086 0824 06       		.byte	0x6
 2087 0825 C901     		.2byte	0x1c9
 2088 0827 C3050000 		.4byte	0x5c3
 2089 082b 00       		.byte	0
 2090 082c 10       		.uleb128 0x10
 2091 082d 6C656E00 		.ascii	"len\000"
 2092 0831 06       		.byte	0x6
ARM GAS  C:\Users\igreg\AppData\Local\Temp\ccnO9ZHN.s 			page 72


 2093 0832 CC01     		.2byte	0x1cc
 2094 0834 77000000 		.4byte	0x77
 2095 0838 04       		.byte	0x4
 2096 0839 0A       		.uleb128 0xa
 2097 083a 3F220000 		.4byte	.LASF255
 2098 083e 06       		.byte	0x6
 2099 083f D301     		.2byte	0x1d3
 2100 0841 77000000 		.4byte	0x77
 2101 0845 06       		.byte	0x6
 2102 0846 00       		.byte	0
 2103 0847 04       		.uleb128 0x4
 2104 0848 53020000 		.4byte	.LASF256
 2105 084c 06       		.byte	0x6
 2106 084d D501     		.2byte	0x1d5
 2107 084f 16080000 		.4byte	0x816
 2108 0853 09       		.uleb128 0x9
 2109 0854 0C       		.byte	0xc
 2110 0855 06       		.byte	0x6
 2111 0856 D801     		.2byte	0x1d8
 2112 0858 77080000 		.4byte	0x877
 2113 085c 0A       		.uleb128 0xa
 2114 085d 1C1A0000 		.4byte	.LASF257
 2115 0861 06       		.byte	0x6
 2116 0862 DB01     		.2byte	0x1db
 2117 0864 47080000 		.4byte	0x847
 2118 0868 00       		.byte	0
 2119 0869 0A       		.uleb128 0xa
 2120 086a AA140000 		.4byte	.LASF258
 2121 086e 06       		.byte	0x6
 2122 086f DE01     		.2byte	0x1de
 2123 0871 DA070000 		.4byte	0x7da
 2124 0875 08       		.byte	0x8
 2125 0876 00       		.byte	0
 2126 0877 04       		.uleb128 0x4
 2127 0878 73060000 		.4byte	.LASF259
 2128 087c 06       		.byte	0x6
 2129 087d E001     		.2byte	0x1e0
 2130 087f 53080000 		.4byte	0x853
 2131 0883 09       		.uleb128 0x9
 2132 0884 04       		.byte	0x4
 2133 0885 06       		.byte	0x6
 2134 0886 EE01     		.2byte	0x1ee
 2135 0888 A7080000 		.4byte	0x8a7
 2136 088c 0A       		.uleb128 0xa
 2137 088d 5B1B0000 		.4byte	.LASF260
 2138 0891 06       		.byte	0x6
 2139 0892 F101     		.2byte	0x1f1
 2140 0894 0A080000 		.4byte	0x80a
 2141 0898 00       		.byte	0
 2142 0899 10       		.uleb128 0x10
 2143 089a 6D747500 		.ascii	"mtu\000"
 2144 089e 06       		.byte	0x6
 2145 089f F401     		.2byte	0x1f4
 2146 08a1 77000000 		.4byte	0x77
 2147 08a5 02       		.byte	0x2
 2148 08a6 00       		.byte	0
 2149 08a7 04       		.uleb128 0x4
ARM GAS  C:\Users\igreg\AppData\Local\Temp\ccnO9ZHN.s 			page 73


 2150 08a8 32150000 		.4byte	.LASF261
 2151 08ac 06       		.byte	0x6
 2152 08ad F601     		.2byte	0x1f6
 2153 08af 83080000 		.4byte	0x883
 2154 08b3 09       		.uleb128 0x9
 2155 08b4 08       		.byte	0x8
 2156 08b5 06       		.byte	0x6
 2157 08b6 0402     		.2byte	0x204
 2158 08b8 E4080000 		.4byte	0x8e4
 2159 08bc 0A       		.uleb128 0xa
 2160 08bd 5E180000 		.4byte	.LASF262
 2161 08c1 06       		.byte	0x6
 2162 08c2 0902     		.2byte	0x209
 2163 08c4 C3050000 		.4byte	0x5c3
 2164 08c8 00       		.byte	0
 2165 08c9 0A       		.uleb128 0xa
 2166 08ca 221A0000 		.4byte	.LASF263
 2167 08ce 06       		.byte	0x6
 2168 08cf 0E02     		.2byte	0x20e
 2169 08d1 77000000 		.4byte	0x77
 2170 08d5 04       		.byte	0x4
 2171 08d6 0A       		.uleb128 0xa
 2172 08d7 030D0000 		.4byte	.LASF264
 2173 08db 06       		.byte	0x6
 2174 08dc 1302     		.2byte	0x213
 2175 08de 77000000 		.4byte	0x77
 2176 08e2 06       		.byte	0x6
 2177 08e3 00       		.byte	0
 2178 08e4 04       		.uleb128 0x4
 2179 08e5 72100000 		.4byte	.LASF265
 2180 08e9 06       		.byte	0x6
 2181 08ea 1502     		.2byte	0x215
 2182 08ec B3080000 		.4byte	0x8b3
 2183 08f0 11       		.uleb128 0x11
 2184 08f1 04       		.byte	0x4
 2185 08f2 07       		.byte	0x7
 2186 08f3 3A       		.byte	0x3a
 2187 08f4 1D090000 		.4byte	0x91d
 2188 08f8 12       		.uleb128 0x12
 2189 08f9 AA140000 		.4byte	.LASF258
 2190 08fd 07       		.byte	0x7
 2191 08fe 3D       		.byte	0x3d
 2192 08ff DA070000 		.4byte	0x7da
 2193 0903 00       		.byte	0
 2194 0904 12       		.uleb128 0x12
 2195 0905 79140000 		.4byte	.LASF266
 2196 0909 07       		.byte	0x7
 2197 090a 43       		.byte	0x43
 2198 090b 6B000000 		.4byte	0x6b
 2199 090f 02       		.byte	0x2
 2200 0910 12       		.uleb128 0x12
 2201 0911 02090000 		.4byte	.LASF267
 2202 0915 07       		.byte	0x7
 2203 0916 46       		.byte	0x46
 2204 0917 CE070000 		.4byte	0x7ce
 2205 091b 03       		.byte	0x3
 2206 091c 00       		.byte	0
ARM GAS  C:\Users\igreg\AppData\Local\Temp\ccnO9ZHN.s 			page 74


 2207 091d 0E       		.uleb128 0xe
 2208 091e 58080000 		.4byte	.LASF268
 2209 0922 07       		.byte	0x7
 2210 0923 48       		.byte	0x48
 2211 0924 F0080000 		.4byte	0x8f0
 2212 0928 11       		.uleb128 0x11
 2213 0929 10       		.byte	0x10
 2214 092a 07       		.byte	0x7
 2215 092b 8A       		.byte	0x8a
 2216 092c 49090000 		.4byte	0x949
 2217 0930 12       		.uleb128 0x12
 2218 0931 5B1B0000 		.4byte	.LASF260
 2219 0935 07       		.byte	0x7
 2220 0936 8D       		.byte	0x8d
 2221 0937 0A080000 		.4byte	0x80a
 2222 093b 00       		.byte	0
 2223 093c 12       		.uleb128 0x12
 2224 093d 4D1B0000 		.4byte	.LASF269
 2225 0941 07       		.byte	0x7
 2226 0942 90       		.byte	0x90
 2227 0943 77080000 		.4byte	0x877
 2228 0947 04       		.byte	0x4
 2229 0948 00       		.byte	0
 2230 0949 0E       		.uleb128 0xe
 2231 094a BD140000 		.4byte	.LASF270
 2232 094e 07       		.byte	0x7
 2233 094f 92       		.byte	0x92
 2234 0950 28090000 		.4byte	0x928
 2235 0954 04       		.uleb128 0x4
 2236 0955 16030000 		.4byte	.LASF271
 2237 0959 08       		.byte	0x8
 2238 095a E001     		.2byte	0x1e0
 2239 095c 60090000 		.4byte	0x960
 2240 0960 0F       		.uleb128 0xf
 2241 0961 04       		.byte	0x4
 2242 0962 66090000 		.4byte	0x966
 2243 0966 13       		.uleb128 0x13
 2244 0967 76090000 		.4byte	0x976
 2245 096b 14       		.uleb128 0x14
 2246 096c 83000000 		.4byte	0x83
 2247 0970 14       		.uleb128 0x14
 2248 0971 B0000000 		.4byte	0xb0
 2249 0975 00       		.byte	0
 2250 0976 15       		.uleb128 0x15
 2251 0977 8301     		.2byte	0x183
 2252 0979 09       		.byte	0x9
 2253 097a 9E       		.byte	0x9e
 2254 097b B3090000 		.4byte	0x9b3
 2255 097f 12       		.uleb128 0x12
 2256 0980 0D0E0000 		.4byte	.LASF272
 2257 0984 09       		.byte	0x9
 2258 0985 A1       		.byte	0xa1
 2259 0986 B3090000 		.4byte	0x9b3
 2260 098a 00       		.byte	0
 2261 098b 16       		.uleb128 0x16
 2262 098c 330D0000 		.4byte	.LASF273
 2263 0990 09       		.byte	0x9
ARM GAS  C:\Users\igreg\AppData\Local\Temp\ccnO9ZHN.s 			page 75


 2264 0991 A4       		.byte	0xa4
 2265 0992 C4090000 		.4byte	0x9c4
 2266 0996 6D01     		.2byte	0x16d
 2267 0998 16       		.uleb128 0x16
 2268 0999 131F0000 		.4byte	.LASF274
 2269 099d 09       		.byte	0x9
 2270 099e A7       		.byte	0xa7
 2271 099f 6B000000 		.4byte	0x6b
 2272 09a3 8101     		.2byte	0x181
 2273 09a5 16       		.uleb128 0x16
 2274 09a6 760C0000 		.4byte	.LASF275
 2275 09aa 09       		.byte	0x9
 2276 09ab AA       		.byte	0xaa
 2277 09ac 6B000000 		.4byte	0x6b
 2278 09b0 8201     		.2byte	0x182
 2279 09b2 00       		.byte	0
 2280 09b3 0B       		.uleb128 0xb
 2281 09b4 6B000000 		.4byte	0x6b
 2282 09b8 C4090000 		.4byte	0x9c4
 2283 09bc 17       		.uleb128 0x17
 2284 09bd A9000000 		.4byte	0xa9
 2285 09c1 6C01     		.2byte	0x16c
 2286 09c3 00       		.byte	0
 2287 09c4 0B       		.uleb128 0xb
 2288 09c5 6B000000 		.4byte	0x6b
 2289 09c9 DA090000 		.4byte	0x9da
 2290 09cd 0C       		.uleb128 0xc
 2291 09ce A9000000 		.4byte	0xa9
 2292 09d2 04       		.byte	0x4
 2293 09d3 0C       		.uleb128 0xc
 2294 09d4 A9000000 		.4byte	0xa9
 2295 09d8 03       		.byte	0x3
 2296 09d9 00       		.byte	0
 2297 09da 0E       		.uleb128 0xe
 2298 09db A2110000 		.4byte	.LASF276
 2299 09df 09       		.byte	0x9
 2300 09e0 AB       		.byte	0xab
 2301 09e1 76090000 		.4byte	0x976
 2302 09e5 0D       		.uleb128 0xd
 2303 09e6 01       		.byte	0x1
 2304 09e7 0A       		.byte	0xa
 2305 09e8 23       		.byte	0x23
 2306 09e9 2A0A0000 		.4byte	0xa2a
 2307 09ed 08       		.uleb128 0x8
 2308 09ee 25190000 		.4byte	.LASF277
 2309 09f2 00       		.sleb128 0
 2310 09f3 08       		.uleb128 0x8
 2311 09f4 070C0000 		.4byte	.LASF278
 2312 09f8 01       		.sleb128 1
 2313 09f9 08       		.uleb128 0x8
 2314 09fa 5A100000 		.4byte	.LASF279
 2315 09fe 02       		.sleb128 2
 2316 09ff 08       		.uleb128 0x8
 2317 0a00 B9050000 		.4byte	.LASF280
 2318 0a04 03       		.sleb128 3
 2319 0a05 08       		.uleb128 0x8
 2320 0a06 27030000 		.4byte	.LASF281
ARM GAS  C:\Users\igreg\AppData\Local\Temp\ccnO9ZHN.s 			page 76


 2321 0a0a 04       		.sleb128 4
 2322 0a0b 08       		.uleb128 0x8
 2323 0a0c AC0B0000 		.4byte	.LASF282
 2324 0a10 05       		.sleb128 5
 2325 0a11 08       		.uleb128 0x8
 2326 0a12 2F0C0000 		.4byte	.LASF283
 2327 0a16 06       		.sleb128 6
 2328 0a17 08       		.uleb128 0x8
 2329 0a18 4E150000 		.4byte	.LASF284
 2330 0a1c 07       		.sleb128 7
 2331 0a1d 08       		.uleb128 0x8
 2332 0a1e 59120000 		.4byte	.LASF285
 2333 0a22 08       		.sleb128 8
 2334 0a23 08       		.uleb128 0x8
 2335 0a24 1B000000 		.4byte	.LASF286
 2336 0a28 09       		.sleb128 9
 2337 0a29 00       		.byte	0
 2338 0a2a 0D       		.uleb128 0xd
 2339 0a2b 01       		.byte	0x1
 2340 0a2c 0B       		.byte	0xb
 2341 0a2d 28       		.byte	0x28
 2342 0a2e 4B0A0000 		.4byte	0xa4b
 2343 0a32 08       		.uleb128 0x8
 2344 0a33 88180000 		.4byte	.LASF287
 2345 0a37 00       		.sleb128 0
 2346 0a38 08       		.uleb128 0x8
 2347 0a39 1C120000 		.4byte	.LASF288
 2348 0a3d 01       		.sleb128 1
 2349 0a3e 08       		.uleb128 0x8
 2350 0a3f 1D160000 		.4byte	.LASF289
 2351 0a43 02       		.sleb128 2
 2352 0a44 08       		.uleb128 0x8
 2353 0a45 2F1E0000 		.4byte	.LASF290
 2354 0a49 03       		.sleb128 3
 2355 0a4a 00       		.byte	0
 2356 0a4b 07       		.uleb128 0x7
 2357 0a4c 01       		.byte	0x1
 2358 0a4d 0C       		.byte	0xc
 2359 0a4e 7B07     		.2byte	0x77b
 2360 0a50 730A0000 		.4byte	0xa73
 2361 0a54 08       		.uleb128 0x8
 2362 0a55 44080000 		.4byte	.LASF291
 2363 0a59 00       		.sleb128 0
 2364 0a5a 08       		.uleb128 0x8
 2365 0a5b D1100000 		.4byte	.LASF292
 2366 0a5f 01       		.sleb128 1
 2367 0a60 08       		.uleb128 0x8
 2368 0a61 29220000 		.4byte	.LASF293
 2369 0a65 02       		.sleb128 2
 2370 0a66 08       		.uleb128 0x8
 2371 0a67 EF030000 		.4byte	.LASF294
 2372 0a6b 03       		.sleb128 3
 2373 0a6c 08       		.uleb128 0x8
 2374 0a6d 821C0000 		.4byte	.LASF295
 2375 0a71 04       		.sleb128 4
 2376 0a72 00       		.byte	0
 2377 0a73 04       		.uleb128 0x4
ARM GAS  C:\Users\igreg\AppData\Local\Temp\ccnO9ZHN.s 			page 77


 2378 0a74 A41E0000 		.4byte	.LASF296
 2379 0a78 0C       		.byte	0xc
 2380 0a79 8907     		.2byte	0x789
 2381 0a7b 4B0A0000 		.4byte	0xa4b
 2382 0a7f 18       		.uleb128 0x18
 2383 0a80 87000000 		.4byte	.LASF299
 2384 0a84 01       		.byte	0x1
 2385 0a85 E1       		.byte	0xe1
 2386 0a86 00000000 		.4byte	.LFB2
 2387 0a8a 98000000 		.4byte	.LFE2-.LFB2
 2388 0a8e 01       		.uleb128 0x1
 2389 0a8f 9C       		.byte	0x9c
 2390 0a90 CA0A0000 		.4byte	0xaca
 2391 0a94 19       		.uleb128 0x19
 2392 0a95 A5000000 		.4byte	.LASF301
 2393 0a99 01       		.byte	0x1
 2394 0a9a E1       		.byte	0xe1
 2395 0a9b CA0A0000 		.4byte	0xaca
 2396 0a9f 02       		.uleb128 0x2
 2397 0aa0 91       		.byte	0x91
 2398 0aa1 64       		.sleb128 -28
 2399 0aa2 1A       		.uleb128 0x1a
 2400 0aa3 BB210000 		.4byte	.LASF297
 2401 0aa7 01       		.byte	0x1
 2402 0aa8 E3       		.byte	0xe3
 2403 0aa9 CE070000 		.4byte	0x7ce
 2404 0aad 02       		.uleb128 0x2
 2405 0aae 91       		.byte	0x91
 2406 0aaf 6F       		.sleb128 -17
 2407 0ab0 1B       		.uleb128 0x1b
 2408 0ab1 58000000 		.4byte	.LBB2
 2409 0ab5 2C000000 		.4byte	.LBE2-.LBB2
 2410 0ab9 1C       		.uleb128 0x1c
 2411 0aba D1150000 		.4byte	.LASF298
 2412 0abe 01       		.byte	0x1
 2413 0abf 8B01     		.2byte	0x18b
 2414 0ac1 1D090000 		.4byte	0x91d
 2415 0ac5 02       		.uleb128 0x2
 2416 0ac6 91       		.byte	0x91
 2417 0ac7 68       		.sleb128 -24
 2418 0ac8 00       		.byte	0
 2419 0ac9 00       		.byte	0
 2420 0aca 0F       		.uleb128 0xf
 2421 0acb 04       		.byte	0x4
 2422 0acc 49090000 		.4byte	0x949
 2423 0ad0 1D       		.uleb128 0x1d
 2424 0ad1 0D140000 		.4byte	.LASF300
 2425 0ad5 01       		.byte	0x1
 2426 0ad6 A801     		.2byte	0x1a8
 2427 0ad8 00000000 		.4byte	.LFB3
 2428 0adc 0E000000 		.4byte	.LFE3-.LFB3
 2429 0ae0 01       		.uleb128 0x1
 2430 0ae1 9C       		.byte	0x9c
 2431 0ae2 F60A0000 		.4byte	0xaf6
 2432 0ae6 1E       		.uleb128 0x1e
 2433 0ae7 A5000000 		.4byte	.LASF301
 2434 0aeb 01       		.byte	0x1
ARM GAS  C:\Users\igreg\AppData\Local\Temp\ccnO9ZHN.s 			page 78


 2435 0aec A801     		.2byte	0x1a8
 2436 0aee F60A0000 		.4byte	0xaf6
 2437 0af2 02       		.uleb128 0x2
 2438 0af3 91       		.byte	0x91
 2439 0af4 74       		.sleb128 -12
 2440 0af5 00       		.byte	0
 2441 0af6 0F       		.uleb128 0xf
 2442 0af7 04       		.byte	0x4
 2443 0af8 FC0A0000 		.4byte	0xafc
 2444 0afc 1F       		.uleb128 0x1f
 2445 0afd 0A080000 		.4byte	0x80a
 2446 0b01 20       		.uleb128 0x20
 2447 0b02 38120000 		.4byte	.LASF303
 2448 0b06 01       		.byte	0x1
 2449 0b07 9804     		.2byte	0x498
 2450 0b09 00000000 		.4byte	.LFB4
 2451 0b0d 18000000 		.4byte	.LFE4-.LFB4
 2452 0b11 01       		.uleb128 0x1
 2453 0b12 9C       		.byte	0x9c
 2454 0b13 1D       		.uleb128 0x1d
 2455 0b14 661B0000 		.4byte	.LASF302
 2456 0b18 01       		.byte	0x1
 2457 0b19 D004     		.2byte	0x4d0
 2458 0b1b 00000000 		.4byte	.LFB5
 2459 0b1f 0E000000 		.4byte	.LFE5-.LFB5
 2460 0b23 01       		.uleb128 0x1
 2461 0b24 9C       		.byte	0x9c
 2462 0b25 390B0000 		.4byte	0xb39
 2463 0b29 1E       		.uleb128 0x1e
 2464 0b2a A5000000 		.4byte	.LASF301
 2465 0b2e 01       		.byte	0x1
 2466 0b2f D004     		.2byte	0x4d0
 2467 0b31 390B0000 		.4byte	0xb39
 2468 0b35 02       		.uleb128 0x2
 2469 0b36 91       		.byte	0x91
 2470 0b37 74       		.sleb128 -12
 2471 0b38 00       		.byte	0
 2472 0b39 0F       		.uleb128 0xf
 2473 0b3a 04       		.byte	0x4
 2474 0b3b 3F0B0000 		.4byte	0xb3f
 2475 0b3f 1F       		.uleb128 0x1f
 2476 0b40 96040000 		.4byte	0x496
 2477 0b44 20       		.uleb128 0x20
 2478 0b45 B7110000 		.4byte	.LASF304
 2479 0b49 01       		.byte	0x1
 2480 0b4a 0805     		.2byte	0x508
 2481 0b4c 00000000 		.4byte	.LFB6
 2482 0b50 08000000 		.4byte	.LFE6-.LFB6
 2483 0b54 01       		.uleb128 0x1
 2484 0b55 9C       		.byte	0x9c
 2485 0b56 21       		.uleb128 0x21
 2486 0b57 7B160000 		.4byte	.LASF332
 2487 0b5b 01       		.byte	0x1
 2488 0b5c 3405     		.2byte	0x534
 2489 0b5e 6B000000 		.4byte	0x6b
 2490 0b62 00000000 		.4byte	.LFB7
 2491 0b66 60000000 		.4byte	.LFE7-.LFB7
ARM GAS  C:\Users\igreg\AppData\Local\Temp\ccnO9ZHN.s 			page 79


 2492 0b6a 01       		.uleb128 0x1
 2493 0b6b 9C       		.byte	0x9c
 2494 0b6c 9C0B0000 		.4byte	0xb9c
 2495 0b70 1E       		.uleb128 0x1e
 2496 0b71 F70A0000 		.4byte	.LASF305
 2497 0b75 01       		.byte	0x1
 2498 0b76 3405     		.2byte	0x534
 2499 0b78 9C0B0000 		.4byte	0xb9c
 2500 0b7c 02       		.uleb128 0x2
 2501 0b7d 91       		.byte	0x91
 2502 0b7e 6C       		.sleb128 -20
 2503 0b7f 22       		.uleb128 0x22
 2504 0b80 6900     		.ascii	"i\000"
 2505 0b82 01       		.byte	0x1
 2506 0b83 3605     		.2byte	0x536
 2507 0b85 6B000000 		.4byte	0x6b
 2508 0b89 02       		.uleb128 0x2
 2509 0b8a 91       		.byte	0x91
 2510 0b8b 77       		.sleb128 -9
 2511 0b8c 1C       		.uleb128 0x1c
 2512 0b8d E2030000 		.4byte	.LASF306
 2513 0b91 01       		.byte	0x1
 2514 0b92 3705     		.2byte	0x537
 2515 0b94 6B000000 		.4byte	0x6b
 2516 0b98 02       		.uleb128 0x2
 2517 0b99 91       		.byte	0x91
 2518 0b9a 76       		.sleb128 -10
 2519 0b9b 00       		.byte	0
 2520 0b9c 0F       		.uleb128 0xf
 2521 0b9d 04       		.byte	0x4
 2522 0b9e A20B0000 		.4byte	0xba2
 2523 0ba2 1F       		.uleb128 0x1f
 2524 0ba3 69040000 		.4byte	0x469
 2525 0ba7 1D       		.uleb128 0x1d
 2526 0ba8 031D0000 		.4byte	.LASF307
 2527 0bac 01       		.byte	0x1
 2528 0bad 5805     		.2byte	0x558
 2529 0baf 00000000 		.4byte	.LFB8
 2530 0bb3 12000000 		.4byte	.LFE8-.LFB8
 2531 0bb7 01       		.uleb128 0x1
 2532 0bb8 9C       		.byte	0x9c
 2533 0bb9 CD0B0000 		.4byte	0xbcd
 2534 0bbd 1E       		.uleb128 0x1e
 2535 0bbe BB1F0000 		.4byte	.LASF308
 2536 0bc2 01       		.byte	0x1
 2537 0bc3 5805     		.2byte	0x558
 2538 0bc5 77000000 		.4byte	0x77
 2539 0bc9 02       		.uleb128 0x2
 2540 0bca 91       		.byte	0x91
 2541 0bcb 76       		.sleb128 -10
 2542 0bcc 00       		.byte	0
 2543 0bcd 1D       		.uleb128 0x1d
 2544 0bce 860C0000 		.4byte	.LASF309
 2545 0bd2 01       		.byte	0x1
 2546 0bd3 7205     		.2byte	0x572
 2547 0bd5 00000000 		.4byte	.LFB9
 2548 0bd9 0E000000 		.4byte	.LFE9-.LFB9
ARM GAS  C:\Users\igreg\AppData\Local\Temp\ccnO9ZHN.s 			page 80


 2549 0bdd 01       		.uleb128 0x1
 2550 0bde 9C       		.byte	0x9c
 2551 0bdf F30B0000 		.4byte	0xbf3
 2552 0be3 1E       		.uleb128 0x1e
 2553 0be4 A5000000 		.4byte	.LASF301
 2554 0be8 01       		.byte	0x1
 2555 0be9 7205     		.2byte	0x572
 2556 0beb F30B0000 		.4byte	0xbf3
 2557 0bef 02       		.uleb128 0x2
 2558 0bf0 91       		.byte	0x91
 2559 0bf1 74       		.sleb128 -12
 2560 0bf2 00       		.byte	0
 2561 0bf3 0F       		.uleb128 0xf
 2562 0bf4 04       		.byte	0x4
 2563 0bf5 F90B0000 		.4byte	0xbf9
 2564 0bf9 1F       		.uleb128 0x1f
 2565 0bfa 07060000 		.4byte	0x607
 2566 0bfe 23       		.uleb128 0x23
 2567 0bff 78070000 		.4byte	.LASF333
 2568 0c03 01       		.byte	0x1
 2569 0c04 8C05     		.2byte	0x58c
 2570 0c06 00000000 		.4byte	.LFB10
 2571 0c0a 7C030000 		.4byte	.LFE10-.LFB10
 2572 0c0e 01       		.uleb128 0x1
 2573 0c0f 9C       		.byte	0x9c
 2574 0c10 DC0C0000 		.4byte	0xcdc
 2575 0c14 1E       		.uleb128 0x1e
 2576 0c15 7C200000 		.4byte	.LASF310
 2577 0c19 01       		.byte	0x1
 2578 0c1a 8C05     		.2byte	0x58c
 2579 0c1c 6B000000 		.4byte	0x6b
 2580 0c20 02       		.uleb128 0x2
 2581 0c21 91       		.byte	0x91
 2582 0c22 5F       		.sleb128 -33
 2583 0c23 1E       		.uleb128 0x1e
 2584 0c24 A5000000 		.4byte	.LASF301
 2585 0c28 01       		.byte	0x1
 2586 0c29 8C05     		.2byte	0x58c
 2587 0c2b B0000000 		.4byte	0xb0
 2588 0c2f 02       		.uleb128 0x2
 2589 0c30 91       		.byte	0x91
 2590 0c31 58       		.sleb128 -40
 2591 0c32 24       		.uleb128 0x24
 2592 0c33 32000000 		.4byte	.LBB3
 2593 0c37 34000000 		.4byte	.LBE3-.LBB3
 2594 0c3b 4F0C0000 		.4byte	0xc4f
 2595 0c3f 1C       		.uleb128 0x1c
 2596 0c40 D9190000 		.4byte	.LASF311
 2597 0c44 01       		.byte	0x1
 2598 0c45 9905     		.2byte	0x599
 2599 0c47 CA030000 		.4byte	0x3ca
 2600 0c4b 02       		.uleb128 0x2
 2601 0c4c 91       		.byte	0x91
 2602 0c4d 68       		.sleb128 -24
 2603 0c4e 00       		.byte	0
 2604 0c4f 24       		.uleb128 0x24
 2605 0c50 98000000 		.4byte	.LBB4
ARM GAS  C:\Users\igreg\AppData\Local\Temp\ccnO9ZHN.s 			page 81


 2606 0c54 52000000 		.4byte	.LBE4-.LBB4
 2607 0c58 6C0C0000 		.4byte	0xc6c
 2608 0c5c 1C       		.uleb128 0x1c
 2609 0c5d D81F0000 		.4byte	.LASF312
 2610 0c61 01       		.byte	0x1
 2611 0c62 B305     		.2byte	0x5b3
 2612 0c64 83000000 		.4byte	0x83
 2613 0c68 02       		.uleb128 0x2
 2614 0c69 91       		.byte	0x91
 2615 0c6a 70       		.sleb128 -16
 2616 0c6b 00       		.byte	0
 2617 0c6c 24       		.uleb128 0x24
 2618 0c6d 0C010000 		.4byte	.LBB5
 2619 0c71 1A000000 		.4byte	.LBE5-.LBB5
 2620 0c75 890C0000 		.4byte	0xc89
 2621 0c79 1C       		.uleb128 0x1c
 2622 0c7a 9B1C0000 		.4byte	.LASF313
 2623 0c7e 01       		.byte	0x1
 2624 0c7f CB05     		.2byte	0x5cb
 2625 0c81 DC0C0000 		.4byte	0xcdc
 2626 0c85 02       		.uleb128 0x2
 2627 0c86 91       		.byte	0x91
 2628 0c87 64       		.sleb128 -28
 2629 0c88 00       		.byte	0
 2630 0c89 24       		.uleb128 0x24
 2631 0c8a 42010000 		.4byte	.LBB6
 2632 0c8e 3C000000 		.4byte	.LBE6-.LBB6
 2633 0c92 C20C0000 		.4byte	0xcc2
 2634 0c96 1C       		.uleb128 0x1c
 2635 0c97 66020000 		.4byte	.LASF314
 2636 0c9b 01       		.byte	0x1
 2637 0c9c E305     		.2byte	0x5e3
 2638 0c9e EC0C0000 		.4byte	0xcec
 2639 0ca2 02       		.uleb128 0x2
 2640 0ca3 91       		.byte	0x91
 2641 0ca4 6C       		.sleb128 -20
 2642 0ca5 1B       		.uleb128 0x1b
 2643 0ca6 56010000 		.4byte	.LBB7
 2644 0caa 18000000 		.4byte	.LBE7-.LBB7
 2645 0cae 1C       		.uleb128 0x1c
 2646 0caf 66150000 		.4byte	.LASF315
 2647 0cb3 01       		.byte	0x1
 2648 0cb4 EA05     		.2byte	0x5ea
 2649 0cb6 E4080000 		.4byte	0x8e4
 2650 0cba 05       		.uleb128 0x5
 2651 0cbb 03       		.byte	0x3
 2652 0cbc 00000000 		.4byte	gPrepWriteReqMem.6369
 2653 0cc0 00       		.byte	0
 2654 0cc1 00       		.byte	0
 2655 0cc2 1B       		.uleb128 0x1b
 2656 0cc3 B0020000 		.4byte	.LBB8
 2657 0cc7 38000000 		.4byte	.LBE8-.LBB8
 2658 0ccb 1C       		.uleb128 0x1c
 2659 0ccc EA100000 		.4byte	.LASF316
 2660 0cd0 01       		.byte	0x1
 2661 0cd1 BB06     		.2byte	0x6bb
 2662 0cd3 77000000 		.4byte	0x77
ARM GAS  C:\Users\igreg\AppData\Local\Temp\ccnO9ZHN.s 			page 82


 2663 0cd7 02       		.uleb128 0x2
 2664 0cd8 91       		.byte	0x91
 2665 0cd9 76       		.sleb128 -10
 2666 0cda 00       		.byte	0
 2667 0cdb 00       		.byte	0
 2668 0cdc 0B       		.uleb128 0xb
 2669 0cdd 6B000000 		.4byte	0x6b
 2670 0ce1 EC0C0000 		.4byte	0xcec
 2671 0ce5 0C       		.uleb128 0xc
 2672 0ce6 A9000000 		.4byte	0xa9
 2673 0cea 01       		.byte	0x1
 2674 0ceb 00       		.byte	0
 2675 0cec 0F       		.uleb128 0xf
 2676 0ced 04       		.byte	0x4
 2677 0cee 29040000 		.4byte	0x429
 2678 0cf2 25       		.uleb128 0x25
 2679 0cf3 371A0000 		.4byte	.LASF317
 2680 0cf7 08       		.byte	0x8
 2681 0cf8 7902     		.2byte	0x279
 2682 0cfa 54090000 		.4byte	0x954
 2683 0cfe 0B       		.uleb128 0xb
 2684 0cff 6B000000 		.4byte	0x6b
 2685 0d03 0F0D0000 		.4byte	0xd0f
 2686 0d07 17       		.uleb128 0x17
 2687 0d08 A9000000 		.4byte	0xa9
 2688 0d0c DF0A     		.2byte	0xadf
 2689 0d0e 00       		.byte	0
 2690 0d0f 25       		.uleb128 0x25
 2691 0d10 581F0000 		.4byte	.LASF318
 2692 0d14 08       		.byte	0x8
 2693 0d15 7E02     		.2byte	0x27e
 2694 0d17 FE0C0000 		.4byte	0xcfe
 2695 0d1b 26       		.uleb128 0x26
 2696 0d1c 050B0000 		.4byte	.LASF319
 2697 0d20 01       		.byte	0x1
 2698 0d21 3C       		.byte	0x3c
 2699 0d22 A4000000 		.4byte	0xa4
 2700 0d26 05       		.uleb128 0x5
 2701 0d27 03       		.byte	0x3
 2702 0d28 00000000 		.4byte	cyBle_eventHandlerFlag
 2703 0d2c 25       		.uleb128 0x25
 2704 0d2d D0050000 		.4byte	.LASF320
 2705 0d31 08       		.byte	0x8
 2706 0d32 8102     		.2byte	0x281
 2707 0d34 69040000 		.4byte	0x469
 2708 0d38 25       		.uleb128 0x25
 2709 0d39 190D0000 		.4byte	.LASF321
 2710 0d3d 08       		.byte	0x8
 2711 0d3e 8202     		.2byte	0x282
 2712 0d40 440D0000 		.4byte	0xd44
 2713 0d44 0F       		.uleb128 0xf
 2714 0d45 04       		.byte	0x4
 2715 0d46 69040000 		.4byte	0x469
 2716 0d4a 26       		.uleb128 0x26
 2717 0d4b D01C0000 		.4byte	.LASF322
 2718 0d4f 01       		.byte	0x1
 2719 0d50 C9       		.byte	0xc9
ARM GAS  C:\Users\igreg\AppData\Local\Temp\ccnO9ZHN.s 			page 83


 2720 0d51 B7050000 		.4byte	0x5b7
 2721 0d55 05       		.uleb128 0x5
 2722 0d56 03       		.byte	0x3
 2723 0d57 00000000 		.4byte	cyBle_authInfo
 2724 0d5b 0B       		.uleb128 0xb
 2725 0d5c 6B000000 		.4byte	0x6b
 2726 0d60 6B0D0000 		.4byte	0xd6b
 2727 0d64 0C       		.uleb128 0xc
 2728 0d65 A9000000 		.4byte	0xa9
 2729 0d69 03       		.byte	0x3
 2730 0d6a 00       		.byte	0
 2731 0d6b 27       		.uleb128 0x27
 2732 0d6c 47200000 		.4byte	.LASF323
 2733 0d70 09       		.byte	0x9
 2734 0d71 EE       		.byte	0xee
 2735 0d72 5B0D0000 		.4byte	0xd5b
 2736 0d76 27       		.uleb128 0x27
 2737 0d77 D3110000 		.4byte	.LASF324
 2738 0d7b 09       		.byte	0x9
 2739 0d7c F6       		.byte	0xf6
 2740 0d7d 810D0000 		.4byte	0xd81
 2741 0d81 1F       		.uleb128 0x1f
 2742 0d82 DA090000 		.4byte	0x9da
 2743 0d86 25       		.uleb128 0x25
 2744 0d87 4A1C0000 		.4byte	.LASF325
 2745 0d8b 0C       		.byte	0xc
 2746 0d8c 8909     		.2byte	0x989
 2747 0d8e 730A0000 		.4byte	0xa73
 2748 0d92 26       		.uleb128 0x26
 2749 0d93 1E0C0000 		.4byte	.LASF326
 2750 0d97 01       		.byte	0x1
 2751 0d98 3A       		.byte	0x3a
 2752 0d99 0A080000 		.4byte	0x80a
 2753 0d9d 05       		.uleb128 0x5
 2754 0d9e 03       		.byte	0x3
 2755 0d9f 00000000 		.4byte	cyBle_connHandle
 2756 0da3 26       		.uleb128 0x26
 2757 0da4 C0100000 		.4byte	.LASF327
 2758 0da8 01       		.byte	0x1
 2759 0da9 3D       		.byte	0x3d
 2760 0daa A4000000 		.4byte	0xa4
 2761 0dae 05       		.uleb128 0x5
 2762 0daf 03       		.byte	0x3
 2763 0db0 00000000 		.4byte	cyBle_busyStatus
 2764 0db4 26       		.uleb128 0x26
 2765 0db5 6D1F0000 		.4byte	.LASF328
 2766 0db9 01       		.byte	0x1
 2767 0dba 40       		.byte	0x40
 2768 0dbb 6B000000 		.4byte	0x6b
 2769 0dbf 05       		.uleb128 0x5
 2770 0dc0 03       		.byte	0x3
 2771 0dc1 00000000 		.4byte	cyBle_advertisingIntervalType
 2772 0dc5 00       		.byte	0
 2773              		.section	.debug_abbrev,"",%progbits
 2774              	.Ldebug_abbrev0:
 2775 0000 01       		.uleb128 0x1
 2776 0001 11       		.uleb128 0x11
ARM GAS  C:\Users\igreg\AppData\Local\Temp\ccnO9ZHN.s 			page 84


 2777 0002 01       		.byte	0x1
 2778 0003 25       		.uleb128 0x25
 2779 0004 0E       		.uleb128 0xe
 2780 0005 13       		.uleb128 0x13
 2781 0006 0B       		.uleb128 0xb
 2782 0007 03       		.uleb128 0x3
 2783 0008 0E       		.uleb128 0xe
 2784 0009 1B       		.uleb128 0x1b
 2785 000a 0E       		.uleb128 0xe
 2786 000b 55       		.uleb128 0x55
 2787 000c 17       		.uleb128 0x17
 2788 000d 11       		.uleb128 0x11
 2789 000e 01       		.uleb128 0x1
 2790 000f 10       		.uleb128 0x10
 2791 0010 17       		.uleb128 0x17
 2792 0011 00       		.byte	0
 2793 0012 00       		.byte	0
 2794 0013 02       		.uleb128 0x2
 2795 0014 24       		.uleb128 0x24
 2796 0015 00       		.byte	0
 2797 0016 0B       		.uleb128 0xb
 2798 0017 0B       		.uleb128 0xb
 2799 0018 3E       		.uleb128 0x3e
 2800 0019 0B       		.uleb128 0xb
 2801 001a 03       		.uleb128 0x3
 2802 001b 0E       		.uleb128 0xe
 2803 001c 00       		.byte	0
 2804 001d 00       		.byte	0
 2805 001e 03       		.uleb128 0x3
 2806 001f 24       		.uleb128 0x24
 2807 0020 00       		.byte	0
 2808 0021 0B       		.uleb128 0xb
 2809 0022 0B       		.uleb128 0xb
 2810 0023 3E       		.uleb128 0x3e
 2811 0024 0B       		.uleb128 0xb
 2812 0025 03       		.uleb128 0x3
 2813 0026 08       		.uleb128 0x8
 2814 0027 00       		.byte	0
 2815 0028 00       		.byte	0
 2816 0029 04       		.uleb128 0x4
 2817 002a 16       		.uleb128 0x16
 2818 002b 00       		.byte	0
 2819 002c 03       		.uleb128 0x3
 2820 002d 0E       		.uleb128 0xe
 2821 002e 3A       		.uleb128 0x3a
 2822 002f 0B       		.uleb128 0xb
 2823 0030 3B       		.uleb128 0x3b
 2824 0031 05       		.uleb128 0x5
 2825 0032 49       		.uleb128 0x49
 2826 0033 13       		.uleb128 0x13
 2827 0034 00       		.byte	0
 2828 0035 00       		.byte	0
 2829 0036 05       		.uleb128 0x5
 2830 0037 35       		.uleb128 0x35
 2831 0038 00       		.byte	0
 2832 0039 49       		.uleb128 0x49
 2833 003a 13       		.uleb128 0x13
ARM GAS  C:\Users\igreg\AppData\Local\Temp\ccnO9ZHN.s 			page 85


 2834 003b 00       		.byte	0
 2835 003c 00       		.byte	0
 2836 003d 06       		.uleb128 0x6
 2837 003e 0F       		.uleb128 0xf
 2838 003f 00       		.byte	0
 2839 0040 0B       		.uleb128 0xb
 2840 0041 0B       		.uleb128 0xb
 2841 0042 00       		.byte	0
 2842 0043 00       		.byte	0
 2843 0044 07       		.uleb128 0x7
 2844 0045 04       		.uleb128 0x4
 2845 0046 01       		.byte	0x1
 2846 0047 0B       		.uleb128 0xb
 2847 0048 0B       		.uleb128 0xb
 2848 0049 3A       		.uleb128 0x3a
 2849 004a 0B       		.uleb128 0xb
 2850 004b 3B       		.uleb128 0x3b
 2851 004c 05       		.uleb128 0x5
 2852 004d 01       		.uleb128 0x1
 2853 004e 13       		.uleb128 0x13
 2854 004f 00       		.byte	0
 2855 0050 00       		.byte	0
 2856 0051 08       		.uleb128 0x8
 2857 0052 28       		.uleb128 0x28
 2858 0053 00       		.byte	0
 2859 0054 03       		.uleb128 0x3
 2860 0055 0E       		.uleb128 0xe
 2861 0056 1C       		.uleb128 0x1c
 2862 0057 0D       		.uleb128 0xd
 2863 0058 00       		.byte	0
 2864 0059 00       		.byte	0
 2865 005a 09       		.uleb128 0x9
 2866 005b 13       		.uleb128 0x13
 2867 005c 01       		.byte	0x1
 2868 005d 0B       		.uleb128 0xb
 2869 005e 0B       		.uleb128 0xb
 2870 005f 3A       		.uleb128 0x3a
 2871 0060 0B       		.uleb128 0xb
 2872 0061 3B       		.uleb128 0x3b
 2873 0062 05       		.uleb128 0x5
 2874 0063 01       		.uleb128 0x1
 2875 0064 13       		.uleb128 0x13
 2876 0065 00       		.byte	0
 2877 0066 00       		.byte	0
 2878 0067 0A       		.uleb128 0xa
 2879 0068 0D       		.uleb128 0xd
 2880 0069 00       		.byte	0
 2881 006a 03       		.uleb128 0x3
 2882 006b 0E       		.uleb128 0xe
 2883 006c 3A       		.uleb128 0x3a
 2884 006d 0B       		.uleb128 0xb
 2885 006e 3B       		.uleb128 0x3b
 2886 006f 05       		.uleb128 0x5
 2887 0070 49       		.uleb128 0x49
 2888 0071 13       		.uleb128 0x13
 2889 0072 38       		.uleb128 0x38
 2890 0073 0B       		.uleb128 0xb
ARM GAS  C:\Users\igreg\AppData\Local\Temp\ccnO9ZHN.s 			page 86


 2891 0074 00       		.byte	0
 2892 0075 00       		.byte	0
 2893 0076 0B       		.uleb128 0xb
 2894 0077 01       		.uleb128 0x1
 2895 0078 01       		.byte	0x1
 2896 0079 49       		.uleb128 0x49
 2897 007a 13       		.uleb128 0x13
 2898 007b 01       		.uleb128 0x1
 2899 007c 13       		.uleb128 0x13
 2900 007d 00       		.byte	0
 2901 007e 00       		.byte	0
 2902 007f 0C       		.uleb128 0xc
 2903 0080 21       		.uleb128 0x21
 2904 0081 00       		.byte	0
 2905 0082 49       		.uleb128 0x49
 2906 0083 13       		.uleb128 0x13
 2907 0084 2F       		.uleb128 0x2f
 2908 0085 0B       		.uleb128 0xb
 2909 0086 00       		.byte	0
 2910 0087 00       		.byte	0
 2911 0088 0D       		.uleb128 0xd
 2912 0089 04       		.uleb128 0x4
 2913 008a 01       		.byte	0x1
 2914 008b 0B       		.uleb128 0xb
 2915 008c 0B       		.uleb128 0xb
 2916 008d 3A       		.uleb128 0x3a
 2917 008e 0B       		.uleb128 0xb
 2918 008f 3B       		.uleb128 0x3b
 2919 0090 0B       		.uleb128 0xb
 2920 0091 01       		.uleb128 0x1
 2921 0092 13       		.uleb128 0x13
 2922 0093 00       		.byte	0
 2923 0094 00       		.byte	0
 2924 0095 0E       		.uleb128 0xe
 2925 0096 16       		.uleb128 0x16
 2926 0097 00       		.byte	0
 2927 0098 03       		.uleb128 0x3
 2928 0099 0E       		.uleb128 0xe
 2929 009a 3A       		.uleb128 0x3a
 2930 009b 0B       		.uleb128 0xb
 2931 009c 3B       		.uleb128 0x3b
 2932 009d 0B       		.uleb128 0xb
 2933 009e 49       		.uleb128 0x49
 2934 009f 13       		.uleb128 0x13
 2935 00a0 00       		.byte	0
 2936 00a1 00       		.byte	0
 2937 00a2 0F       		.uleb128 0xf
 2938 00a3 0F       		.uleb128 0xf
 2939 00a4 00       		.byte	0
 2940 00a5 0B       		.uleb128 0xb
 2941 00a6 0B       		.uleb128 0xb
 2942 00a7 49       		.uleb128 0x49
 2943 00a8 13       		.uleb128 0x13
 2944 00a9 00       		.byte	0
 2945 00aa 00       		.byte	0
 2946 00ab 10       		.uleb128 0x10
 2947 00ac 0D       		.uleb128 0xd
ARM GAS  C:\Users\igreg\AppData\Local\Temp\ccnO9ZHN.s 			page 87


 2948 00ad 00       		.byte	0
 2949 00ae 03       		.uleb128 0x3
 2950 00af 08       		.uleb128 0x8
 2951 00b0 3A       		.uleb128 0x3a
 2952 00b1 0B       		.uleb128 0xb
 2953 00b2 3B       		.uleb128 0x3b
 2954 00b3 05       		.uleb128 0x5
 2955 00b4 49       		.uleb128 0x49
 2956 00b5 13       		.uleb128 0x13
 2957 00b6 38       		.uleb128 0x38
 2958 00b7 0B       		.uleb128 0xb
 2959 00b8 00       		.byte	0
 2960 00b9 00       		.byte	0
 2961 00ba 11       		.uleb128 0x11
 2962 00bb 13       		.uleb128 0x13
 2963 00bc 01       		.byte	0x1
 2964 00bd 0B       		.uleb128 0xb
 2965 00be 0B       		.uleb128 0xb
 2966 00bf 3A       		.uleb128 0x3a
 2967 00c0 0B       		.uleb128 0xb
 2968 00c1 3B       		.uleb128 0x3b
 2969 00c2 0B       		.uleb128 0xb
 2970 00c3 01       		.uleb128 0x1
 2971 00c4 13       		.uleb128 0x13
 2972 00c5 00       		.byte	0
 2973 00c6 00       		.byte	0
 2974 00c7 12       		.uleb128 0x12
 2975 00c8 0D       		.uleb128 0xd
 2976 00c9 00       		.byte	0
 2977 00ca 03       		.uleb128 0x3
 2978 00cb 0E       		.uleb128 0xe
 2979 00cc 3A       		.uleb128 0x3a
 2980 00cd 0B       		.uleb128 0xb
 2981 00ce 3B       		.uleb128 0x3b
 2982 00cf 0B       		.uleb128 0xb
 2983 00d0 49       		.uleb128 0x49
 2984 00d1 13       		.uleb128 0x13
 2985 00d2 38       		.uleb128 0x38
 2986 00d3 0B       		.uleb128 0xb
 2987 00d4 00       		.byte	0
 2988 00d5 00       		.byte	0
 2989 00d6 13       		.uleb128 0x13
 2990 00d7 15       		.uleb128 0x15
 2991 00d8 01       		.byte	0x1
 2992 00d9 27       		.uleb128 0x27
 2993 00da 19       		.uleb128 0x19
 2994 00db 01       		.uleb128 0x1
 2995 00dc 13       		.uleb128 0x13
 2996 00dd 00       		.byte	0
 2997 00de 00       		.byte	0
 2998 00df 14       		.uleb128 0x14
 2999 00e0 05       		.uleb128 0x5
 3000 00e1 00       		.byte	0
 3001 00e2 49       		.uleb128 0x49
 3002 00e3 13       		.uleb128 0x13
 3003 00e4 00       		.byte	0
 3004 00e5 00       		.byte	0
ARM GAS  C:\Users\igreg\AppData\Local\Temp\ccnO9ZHN.s 			page 88


 3005 00e6 15       		.uleb128 0x15
 3006 00e7 13       		.uleb128 0x13
 3007 00e8 01       		.byte	0x1
 3008 00e9 0B       		.uleb128 0xb
 3009 00ea 05       		.uleb128 0x5
 3010 00eb 3A       		.uleb128 0x3a
 3011 00ec 0B       		.uleb128 0xb
 3012 00ed 3B       		.uleb128 0x3b
 3013 00ee 0B       		.uleb128 0xb
 3014 00ef 01       		.uleb128 0x1
 3015 00f0 13       		.uleb128 0x13
 3016 00f1 00       		.byte	0
 3017 00f2 00       		.byte	0
 3018 00f3 16       		.uleb128 0x16
 3019 00f4 0D       		.uleb128 0xd
 3020 00f5 00       		.byte	0
 3021 00f6 03       		.uleb128 0x3
 3022 00f7 0E       		.uleb128 0xe
 3023 00f8 3A       		.uleb128 0x3a
 3024 00f9 0B       		.uleb128 0xb
 3025 00fa 3B       		.uleb128 0x3b
 3026 00fb 0B       		.uleb128 0xb
 3027 00fc 49       		.uleb128 0x49
 3028 00fd 13       		.uleb128 0x13
 3029 00fe 38       		.uleb128 0x38
 3030 00ff 05       		.uleb128 0x5
 3031 0100 00       		.byte	0
 3032 0101 00       		.byte	0
 3033 0102 17       		.uleb128 0x17
 3034 0103 21       		.uleb128 0x21
 3035 0104 00       		.byte	0
 3036 0105 49       		.uleb128 0x49
 3037 0106 13       		.uleb128 0x13
 3038 0107 2F       		.uleb128 0x2f
 3039 0108 05       		.uleb128 0x5
 3040 0109 00       		.byte	0
 3041 010a 00       		.byte	0
 3042 010b 18       		.uleb128 0x18
 3043 010c 2E       		.uleb128 0x2e
 3044 010d 01       		.byte	0x1
 3045 010e 03       		.uleb128 0x3
 3046 010f 0E       		.uleb128 0xe
 3047 0110 3A       		.uleb128 0x3a
 3048 0111 0B       		.uleb128 0xb
 3049 0112 3B       		.uleb128 0x3b
 3050 0113 0B       		.uleb128 0xb
 3051 0114 27       		.uleb128 0x27
 3052 0115 19       		.uleb128 0x19
 3053 0116 11       		.uleb128 0x11
 3054 0117 01       		.uleb128 0x1
 3055 0118 12       		.uleb128 0x12
 3056 0119 06       		.uleb128 0x6
 3057 011a 40       		.uleb128 0x40
 3058 011b 18       		.uleb128 0x18
 3059 011c 9642     		.uleb128 0x2116
 3060 011e 19       		.uleb128 0x19
 3061 011f 01       		.uleb128 0x1
ARM GAS  C:\Users\igreg\AppData\Local\Temp\ccnO9ZHN.s 			page 89


 3062 0120 13       		.uleb128 0x13
 3063 0121 00       		.byte	0
 3064 0122 00       		.byte	0
 3065 0123 19       		.uleb128 0x19
 3066 0124 05       		.uleb128 0x5
 3067 0125 00       		.byte	0
 3068 0126 03       		.uleb128 0x3
 3069 0127 0E       		.uleb128 0xe
 3070 0128 3A       		.uleb128 0x3a
 3071 0129 0B       		.uleb128 0xb
 3072 012a 3B       		.uleb128 0x3b
 3073 012b 0B       		.uleb128 0xb
 3074 012c 49       		.uleb128 0x49
 3075 012d 13       		.uleb128 0x13
 3076 012e 02       		.uleb128 0x2
 3077 012f 18       		.uleb128 0x18
 3078 0130 00       		.byte	0
 3079 0131 00       		.byte	0
 3080 0132 1A       		.uleb128 0x1a
 3081 0133 34       		.uleb128 0x34
 3082 0134 00       		.byte	0
 3083 0135 03       		.uleb128 0x3
 3084 0136 0E       		.uleb128 0xe
 3085 0137 3A       		.uleb128 0x3a
 3086 0138 0B       		.uleb128 0xb
 3087 0139 3B       		.uleb128 0x3b
 3088 013a 0B       		.uleb128 0xb
 3089 013b 49       		.uleb128 0x49
 3090 013c 13       		.uleb128 0x13
 3091 013d 02       		.uleb128 0x2
 3092 013e 18       		.uleb128 0x18
 3093 013f 00       		.byte	0
 3094 0140 00       		.byte	0
 3095 0141 1B       		.uleb128 0x1b
 3096 0142 0B       		.uleb128 0xb
 3097 0143 01       		.byte	0x1
 3098 0144 11       		.uleb128 0x11
 3099 0145 01       		.uleb128 0x1
 3100 0146 12       		.uleb128 0x12
 3101 0147 06       		.uleb128 0x6
 3102 0148 00       		.byte	0
 3103 0149 00       		.byte	0
 3104 014a 1C       		.uleb128 0x1c
 3105 014b 34       		.uleb128 0x34
 3106 014c 00       		.byte	0
 3107 014d 03       		.uleb128 0x3
 3108 014e 0E       		.uleb128 0xe
 3109 014f 3A       		.uleb128 0x3a
 3110 0150 0B       		.uleb128 0xb
 3111 0151 3B       		.uleb128 0x3b
 3112 0152 05       		.uleb128 0x5
 3113 0153 49       		.uleb128 0x49
 3114 0154 13       		.uleb128 0x13
 3115 0155 02       		.uleb128 0x2
 3116 0156 18       		.uleb128 0x18
 3117 0157 00       		.byte	0
 3118 0158 00       		.byte	0
ARM GAS  C:\Users\igreg\AppData\Local\Temp\ccnO9ZHN.s 			page 90


 3119 0159 1D       		.uleb128 0x1d
 3120 015a 2E       		.uleb128 0x2e
 3121 015b 01       		.byte	0x1
 3122 015c 03       		.uleb128 0x3
 3123 015d 0E       		.uleb128 0xe
 3124 015e 3A       		.uleb128 0x3a
 3125 015f 0B       		.uleb128 0xb
 3126 0160 3B       		.uleb128 0x3b
 3127 0161 05       		.uleb128 0x5
 3128 0162 27       		.uleb128 0x27
 3129 0163 19       		.uleb128 0x19
 3130 0164 11       		.uleb128 0x11
 3131 0165 01       		.uleb128 0x1
 3132 0166 12       		.uleb128 0x12
 3133 0167 06       		.uleb128 0x6
 3134 0168 40       		.uleb128 0x40
 3135 0169 18       		.uleb128 0x18
 3136 016a 9742     		.uleb128 0x2117
 3137 016c 19       		.uleb128 0x19
 3138 016d 01       		.uleb128 0x1
 3139 016e 13       		.uleb128 0x13
 3140 016f 00       		.byte	0
 3141 0170 00       		.byte	0
 3142 0171 1E       		.uleb128 0x1e
 3143 0172 05       		.uleb128 0x5
 3144 0173 00       		.byte	0
 3145 0174 03       		.uleb128 0x3
 3146 0175 0E       		.uleb128 0xe
 3147 0176 3A       		.uleb128 0x3a
 3148 0177 0B       		.uleb128 0xb
 3149 0178 3B       		.uleb128 0x3b
 3150 0179 05       		.uleb128 0x5
 3151 017a 49       		.uleb128 0x49
 3152 017b 13       		.uleb128 0x13
 3153 017c 02       		.uleb128 0x2
 3154 017d 18       		.uleb128 0x18
 3155 017e 00       		.byte	0
 3156 017f 00       		.byte	0
 3157 0180 1F       		.uleb128 0x1f
 3158 0181 26       		.uleb128 0x26
 3159 0182 00       		.byte	0
 3160 0183 49       		.uleb128 0x49
 3161 0184 13       		.uleb128 0x13
 3162 0185 00       		.byte	0
 3163 0186 00       		.byte	0
 3164 0187 20       		.uleb128 0x20
 3165 0188 2E       		.uleb128 0x2e
 3166 0189 00       		.byte	0
 3167 018a 03       		.uleb128 0x3
 3168 018b 0E       		.uleb128 0xe
 3169 018c 3A       		.uleb128 0x3a
 3170 018d 0B       		.uleb128 0xb
 3171 018e 3B       		.uleb128 0x3b
 3172 018f 05       		.uleb128 0x5
 3173 0190 27       		.uleb128 0x27
 3174 0191 19       		.uleb128 0x19
 3175 0192 11       		.uleb128 0x11
ARM GAS  C:\Users\igreg\AppData\Local\Temp\ccnO9ZHN.s 			page 91


 3176 0193 01       		.uleb128 0x1
 3177 0194 12       		.uleb128 0x12
 3178 0195 06       		.uleb128 0x6
 3179 0196 40       		.uleb128 0x40
 3180 0197 18       		.uleb128 0x18
 3181 0198 9742     		.uleb128 0x2117
 3182 019a 19       		.uleb128 0x19
 3183 019b 00       		.byte	0
 3184 019c 00       		.byte	0
 3185 019d 21       		.uleb128 0x21
 3186 019e 2E       		.uleb128 0x2e
 3187 019f 01       		.byte	0x1
 3188 01a0 3F       		.uleb128 0x3f
 3189 01a1 19       		.uleb128 0x19
 3190 01a2 03       		.uleb128 0x3
 3191 01a3 0E       		.uleb128 0xe
 3192 01a4 3A       		.uleb128 0x3a
 3193 01a5 0B       		.uleb128 0xb
 3194 01a6 3B       		.uleb128 0x3b
 3195 01a7 05       		.uleb128 0x5
 3196 01a8 27       		.uleb128 0x27
 3197 01a9 19       		.uleb128 0x19
 3198 01aa 49       		.uleb128 0x49
 3199 01ab 13       		.uleb128 0x13
 3200 01ac 11       		.uleb128 0x11
 3201 01ad 01       		.uleb128 0x1
 3202 01ae 12       		.uleb128 0x12
 3203 01af 06       		.uleb128 0x6
 3204 01b0 40       		.uleb128 0x40
 3205 01b1 18       		.uleb128 0x18
 3206 01b2 9742     		.uleb128 0x2117
 3207 01b4 19       		.uleb128 0x19
 3208 01b5 01       		.uleb128 0x1
 3209 01b6 13       		.uleb128 0x13
 3210 01b7 00       		.byte	0
 3211 01b8 00       		.byte	0
 3212 01b9 22       		.uleb128 0x22
 3213 01ba 34       		.uleb128 0x34
 3214 01bb 00       		.byte	0
 3215 01bc 03       		.uleb128 0x3
 3216 01bd 08       		.uleb128 0x8
 3217 01be 3A       		.uleb128 0x3a
 3218 01bf 0B       		.uleb128 0xb
 3219 01c0 3B       		.uleb128 0x3b
 3220 01c1 05       		.uleb128 0x5
 3221 01c2 49       		.uleb128 0x49
 3222 01c3 13       		.uleb128 0x13
 3223 01c4 02       		.uleb128 0x2
 3224 01c5 18       		.uleb128 0x18
 3225 01c6 00       		.byte	0
 3226 01c7 00       		.byte	0
 3227 01c8 23       		.uleb128 0x23
 3228 01c9 2E       		.uleb128 0x2e
 3229 01ca 01       		.byte	0x1
 3230 01cb 3F       		.uleb128 0x3f
 3231 01cc 19       		.uleb128 0x19
 3232 01cd 03       		.uleb128 0x3
ARM GAS  C:\Users\igreg\AppData\Local\Temp\ccnO9ZHN.s 			page 92


 3233 01ce 0E       		.uleb128 0xe
 3234 01cf 3A       		.uleb128 0x3a
 3235 01d0 0B       		.uleb128 0xb
 3236 01d1 3B       		.uleb128 0x3b
 3237 01d2 05       		.uleb128 0x5
 3238 01d3 27       		.uleb128 0x27
 3239 01d4 19       		.uleb128 0x19
 3240 01d5 11       		.uleb128 0x11
 3241 01d6 01       		.uleb128 0x1
 3242 01d7 12       		.uleb128 0x12
 3243 01d8 06       		.uleb128 0x6
 3244 01d9 40       		.uleb128 0x40
 3245 01da 18       		.uleb128 0x18
 3246 01db 9642     		.uleb128 0x2116
 3247 01dd 19       		.uleb128 0x19
 3248 01de 01       		.uleb128 0x1
 3249 01df 13       		.uleb128 0x13
 3250 01e0 00       		.byte	0
 3251 01e1 00       		.byte	0
 3252 01e2 24       		.uleb128 0x24
 3253 01e3 0B       		.uleb128 0xb
 3254 01e4 01       		.byte	0x1
 3255 01e5 11       		.uleb128 0x11
 3256 01e6 01       		.uleb128 0x1
 3257 01e7 12       		.uleb128 0x12
 3258 01e8 06       		.uleb128 0x6
 3259 01e9 01       		.uleb128 0x1
 3260 01ea 13       		.uleb128 0x13
 3261 01eb 00       		.byte	0
 3262 01ec 00       		.byte	0
 3263 01ed 25       		.uleb128 0x25
 3264 01ee 34       		.uleb128 0x34
 3265 01ef 00       		.byte	0
 3266 01f0 03       		.uleb128 0x3
 3267 01f1 0E       		.uleb128 0xe
 3268 01f2 3A       		.uleb128 0x3a
 3269 01f3 0B       		.uleb128 0xb
 3270 01f4 3B       		.uleb128 0x3b
 3271 01f5 05       		.uleb128 0x5
 3272 01f6 49       		.uleb128 0x49
 3273 01f7 13       		.uleb128 0x13
 3274 01f8 3F       		.uleb128 0x3f
 3275 01f9 19       		.uleb128 0x19
 3276 01fa 3C       		.uleb128 0x3c
 3277 01fb 19       		.uleb128 0x19
 3278 01fc 00       		.byte	0
 3279 01fd 00       		.byte	0
 3280 01fe 26       		.uleb128 0x26
 3281 01ff 34       		.uleb128 0x34
 3282 0200 00       		.byte	0
 3283 0201 03       		.uleb128 0x3
 3284 0202 0E       		.uleb128 0xe
 3285 0203 3A       		.uleb128 0x3a
 3286 0204 0B       		.uleb128 0xb
 3287 0205 3B       		.uleb128 0x3b
 3288 0206 0B       		.uleb128 0xb
 3289 0207 49       		.uleb128 0x49
ARM GAS  C:\Users\igreg\AppData\Local\Temp\ccnO9ZHN.s 			page 93


 3290 0208 13       		.uleb128 0x13
 3291 0209 3F       		.uleb128 0x3f
 3292 020a 19       		.uleb128 0x19
 3293 020b 02       		.uleb128 0x2
 3294 020c 18       		.uleb128 0x18
 3295 020d 00       		.byte	0
 3296 020e 00       		.byte	0
 3297 020f 27       		.uleb128 0x27
 3298 0210 34       		.uleb128 0x34
 3299 0211 00       		.byte	0
 3300 0212 03       		.uleb128 0x3
 3301 0213 0E       		.uleb128 0xe
 3302 0214 3A       		.uleb128 0x3a
 3303 0215 0B       		.uleb128 0xb
 3304 0216 3B       		.uleb128 0x3b
 3305 0217 0B       		.uleb128 0xb
 3306 0218 49       		.uleb128 0x49
 3307 0219 13       		.uleb128 0x13
 3308 021a 3F       		.uleb128 0x3f
 3309 021b 19       		.uleb128 0x19
 3310 021c 3C       		.uleb128 0x3c
 3311 021d 19       		.uleb128 0x19
 3312 021e 00       		.byte	0
 3313 021f 00       		.byte	0
 3314 0220 00       		.byte	0
 3315              		.section	.debug_aranges,"",%progbits
 3316 0000 5C000000 		.4byte	0x5c
 3317 0004 0200     		.2byte	0x2
 3318 0006 00000000 		.4byte	.Ldebug_info0
 3319 000a 04       		.byte	0x4
 3320 000b 00       		.byte	0
 3321 000c 0000     		.2byte	0
 3322 000e 0000     		.2byte	0
 3323 0010 00000000 		.4byte	.LFB2
 3324 0014 98000000 		.4byte	.LFE2-.LFB2
 3325 0018 00000000 		.4byte	.LFB3
 3326 001c 0E000000 		.4byte	.LFE3-.LFB3
 3327 0020 00000000 		.4byte	.LFB4
 3328 0024 18000000 		.4byte	.LFE4-.LFB4
 3329 0028 00000000 		.4byte	.LFB5
 3330 002c 0E000000 		.4byte	.LFE5-.LFB5
 3331 0030 00000000 		.4byte	.LFB6
 3332 0034 08000000 		.4byte	.LFE6-.LFB6
 3333 0038 00000000 		.4byte	.LFB7
 3334 003c 60000000 		.4byte	.LFE7-.LFB7
 3335 0040 00000000 		.4byte	.LFB8
 3336 0044 12000000 		.4byte	.LFE8-.LFB8
 3337 0048 00000000 		.4byte	.LFB9
 3338 004c 0E000000 		.4byte	.LFE9-.LFB9
 3339 0050 00000000 		.4byte	.LFB10
 3340 0054 7C030000 		.4byte	.LFE10-.LFB10
 3341 0058 00000000 		.4byte	0
 3342 005c 00000000 		.4byte	0
 3343              		.section	.debug_ranges,"",%progbits
 3344              	.Ldebug_ranges0:
 3345 0000 00000000 		.4byte	.LFB2
 3346 0004 98000000 		.4byte	.LFE2
ARM GAS  C:\Users\igreg\AppData\Local\Temp\ccnO9ZHN.s 			page 94


 3347 0008 00000000 		.4byte	.LFB3
 3348 000c 0E000000 		.4byte	.LFE3
 3349 0010 00000000 		.4byte	.LFB4
 3350 0014 18000000 		.4byte	.LFE4
 3351 0018 00000000 		.4byte	.LFB5
 3352 001c 0E000000 		.4byte	.LFE5
 3353 0020 00000000 		.4byte	.LFB6
 3354 0024 08000000 		.4byte	.LFE6
 3355 0028 00000000 		.4byte	.LFB7
 3356 002c 60000000 		.4byte	.LFE7
 3357 0030 00000000 		.4byte	.LFB8
 3358 0034 12000000 		.4byte	.LFE8
 3359 0038 00000000 		.4byte	.LFB9
 3360 003c 0E000000 		.4byte	.LFE9
 3361 0040 00000000 		.4byte	.LFB10
 3362 0044 7C030000 		.4byte	.LFE10
 3363 0048 00000000 		.4byte	0
 3364 004c 00000000 		.4byte	0
 3365              		.section	.debug_line,"",%progbits
 3366              	.Ldebug_line0:
 3367 0000 5F020000 		.section	.debug_str,"MS",%progbits,1
 3367      02001001 
 3367      00000201 
 3367      FB0E0D00 
 3367      01010101 
 3368              	.LASF239:
 3369 0000 4359424C 		.ascii	"CYBLE_GATT_ERR_INVALID_CRC\000"
 3369      455F4741 
 3369      54545F45 
 3369      52525F49 
 3369      4E56414C 
 3370              	.LASF286:
 3371 001b 4359424C 		.ascii	"CYBLE_DIS_CHAR_COUNT\000"
 3371      455F4449 
 3371      535F4348 
 3371      41525F43 
 3371      4F554E54 
 3372              	.LASF15:
 3373 0030 73697A65 		.ascii	"sizetype\000"
 3373      74797065 
 3373      00
 3374              	.LASF174:
 3375 0039 656B6579 		.ascii	"ekeySize\000"
 3375      53697A65 
 3375      00
 3376              	.LASF209:
 3377 0042 4359424C 		.ascii	"CYBLE_GATT_HANDLE_VALUE_CNF\000"
 3377      455F4741 
 3377      54545F48 
 3377      414E444C 
 3377      455F5641 
 3378              	.LASF36:
 3379 005e 4359424C 		.ascii	"CYBLE_EVT_GAP_NUMERIC_COMPARISON_REQUEST\000"
 3379      455F4556 
 3379      545F4741 
 3379      505F4E55 
 3379      4D455249 
ARM GAS  C:\Users\igreg\AppData\Local\Temp\ccnO9ZHN.s 			page 95


 3380              	.LASF299:
 3381 0087 4379426C 		.ascii	"CyBle_WriteReqHandler\000"
 3381      655F5772 
 3381      69746552 
 3381      65714861 
 3381      6E646C65 
 3382              	.LASF132:
 3383 009d 72657175 		.ascii	"request\000"
 3383      65737400 
 3384              	.LASF301:
 3385 00a5 6576656E 		.ascii	"eventParam\000"
 3385      74506172 
 3385      616D00
 3386              	.LASF30:
 3387 00b0 4359424C 		.ascii	"CYBLE_EVT_GAP_DEVICE_CONNECTED\000"
 3387      455F4556 
 3387      545F4741 
 3387      505F4445 
 3387      56494345 
 3388              	.LASF152:
 3389 00cf 4359424C 		.ascii	"CYBLE_GAP_IOCAP_NOINPUT_NOOUTPUT\000"
 3389      455F4741 
 3389      505F494F 
 3389      4341505F 
 3389      4E4F494E 
 3390              	.LASF44:
 3391 00f0 4359424C 		.ascii	"CYBLE_EVT_GATT_CONNECT_IND\000"
 3391      455F4556 
 3391      545F4741 
 3391      54545F43 
 3391      4F4E4E45 
 3392              	.LASF202:
 3393 010b 4359424C 		.ascii	"CYBLE_GATT_WRITE_CMD\000"
 3393      455F4741 
 3393      54545F57 
 3393      52495445 
 3393      5F434D44 
 3394              	.LASF11:
 3395 0120 75696E74 		.ascii	"uint32\000"
 3395      333200
 3396              	.LASF126:
 3397 0127 626C6550 		.ascii	"blePwrLevelInDbm\000"
 3397      77724C65 
 3397      76656C49 
 3397      6E44626D 
 3397      00
 3398              	.LASF214:
 3399 0138 4359424C 		.ascii	"CYBLE_GATT_ERR_READ_NOT_PERMITTED\000"
 3399      455F4741 
 3399      54545F45 
 3399      52525F52 
 3399      4541445F 
 3400              	.LASF229:
 3401 015a 4359424C 		.ascii	"CYBLE_GATT_ERR_INSUFFICIENT_RESOURCE\000"
 3401      455F4741 
 3401      54545F45 
 3401      52525F49 
ARM GAS  C:\Users\igreg\AppData\Local\Temp\ccnO9ZHN.s 			page 96


 3401      4E535546 
 3402              	.LASF203:
 3403 017f 4359424C 		.ascii	"CYBLE_GATT_PREPARE_WRITE_REQ\000"
 3403      455F4741 
 3403      54545F50 
 3403      52455041 
 3403      52455F57 
 3404              	.LASF228:
 3405 019c 4359424C 		.ascii	"CYBLE_GATT_ERR_UNSUPPORTED_GROUP_TYPE\000"
 3405      455F4741 
 3405      54545F45 
 3405      52525F55 
 3405      4E535550 
 3406              	.LASF98:
 3407 01c2 4359424C 		.ascii	"CYBLE_ERROR_L2CAP_CONNECTION_ENTITY_NOT_FOUND\000"
 3407      455F4552 
 3407      524F525F 
 3407      4C324341 
 3407      505F434F 
 3408              	.LASF104:
 3409 01f0 4359424C 		.ascii	"CYBLE_ERROR_MIC_AUTH_FAILED\000"
 3409      455F4552 
 3409      524F525F 
 3409      4D49435F 
 3409      41555448 
 3410              	.LASF64:
 3411 020c 4359424C 		.ascii	"CYBLE_EVT_GATTS_DATA_SIGNED_CMD_REQ\000"
 3411      455F4556 
 3411      545F4741 
 3411      5454535F 
 3411      44415441 
 3412              	.LASF76:
 3413 0230 4359424C 		.ascii	"CYBLE_EVT_L2CAP_CBFC_RX_CREDIT_IND\000"
 3413      455F4556 
 3413      545F4C32 
 3413      4341505F 
 3413      43424643 
 3414              	.LASF256:
 3415 0253 4359424C 		.ascii	"CYBLE_GATT_VALUE_T\000"
 3415      455F4741 
 3415      54545F56 
 3415      414C5545 
 3415      5F5400
 3416              	.LASF314:
 3417 0266 6D656D52 		.ascii	"memReq\000"
 3417      657100
 3418              	.LASF197:
 3419 026d 4359424C 		.ascii	"CYBLE_GATT_READ_MULTIPLE_RSP\000"
 3419      455F4741 
 3419      54545F52 
 3419      4541445F 
 3419      4D554C54 
 3420              	.LASF137:
 3421 028a 74797065 		.ascii	"type\000"
 3421      00
 3422              	.LASF143:
 3423 028f 4359424C 		.ascii	"CYBLE_TO_REASON_CODE_T\000"
ARM GAS  C:\Users\igreg\AppData\Local\Temp\ccnO9ZHN.s 			page 97


 3423      455F544F 
 3423      5F524541 
 3423      534F4E5F 
 3423      434F4445 
 3424              	.LASF169:
 3425 02a6 4359424C 		.ascii	"CYBLE_GAP_AUTH_ERROR_AUTHENTICATION_TIMEOUT\000"
 3425      455F4741 
 3425      505F4155 
 3425      54485F45 
 3425      52524F52 
 3426              	.LASF162:
 3427 02d2 4359424C 		.ascii	"CYBLE_GAP_AUTH_ERROR_UNSPECIFIED_REASON\000"
 3427      455F4741 
 3427      505F4155 
 3427      54485F45 
 3427      52524F52 
 3428              	.LASF191:
 3429 02fa 4359424C 		.ascii	"CYBLE_GATT_READ_BY_TYPE_RSP\000"
 3429      455F4741 
 3429      54545F52 
 3429      4541445F 
 3429      42595F54 
 3430              	.LASF271:
 3431 0316 4359424C 		.ascii	"CYBLE_CALLBACK_T\000"
 3431      455F4341 
 3431      4C4C4241 
 3431      434B5F54 
 3431      00
 3432              	.LASF281:
 3433 0327 4359424C 		.ascii	"CYBLE_DIS_FIRMWARE_REV\000"
 3433      455F4449 
 3433      535F4649 
 3433      524D5741 
 3433      52455F52 
 3434              	.LASF61:
 3435 033e 4359424C 		.ascii	"CYBLE_EVT_GATTC_HANDLE_VALUE_NTF\000"
 3435      455F4556 
 3435      545F4741 
 3435      5454435F 
 3435      48414E44 
 3436              	.LASF24:
 3437 035f 4359424C 		.ascii	"CYBLE_EVT_GAP_AUTH_REQ\000"
 3437      455F4556 
 3437      545F4741 
 3437      505F4155 
 3437      54485F52 
 3438              	.LASF254:
 3439 0376 4359424C 		.ascii	"CYBLE_CONN_HANDLE_T\000"
 3439      455F434F 
 3439      4E4E5F48 
 3439      414E444C 
 3439      455F5400 
 3440              	.LASF93:
 3441 038a 4359424C 		.ascii	"CYBLE_ERROR_BT_ON_NOT_COMPLETED\000"
 3441      455F4552 
 3441      524F525F 
 3441      42545F4F 
ARM GAS  C:\Users\igreg\AppData\Local\Temp\ccnO9ZHN.s 			page 98


 3441      4E5F4E4F 
 3442              	.LASF149:
 3443 03aa 4359424C 		.ascii	"CYBLE_GAP_IOCAP_DISPLAY_ONLY\000"
 3443      455F4741 
 3443      505F494F 
 3443      4341505F 
 3443      44495350 
 3444              	.LASF115:
 3445 03c7 4359424C 		.ascii	"CYBLE_LL_PWR_LVL_NEG_3_DBM\000"
 3445      455F4C4C 
 3445      5F505752 
 3445      5F4C564C 
 3445      5F4E4547 
 3446              	.LASF306:
 3447 03e2 61646472 		.ascii	"addressValid\000"
 3447      65737356 
 3447      616C6964 
 3447      00
 3448              	.LASF294:
 3449 03ef 4359424C 		.ascii	"CYBLE_STATE_ADVERTISING\000"
 3449      455F5354 
 3449      4154455F 
 3449      41445645 
 3449      52544953 
 3450              	.LASF38:
 3451 0407 4359424C 		.ascii	"CYBLE_EVT_GAP_OOB_GENERATED_NOTIFICATION\000"
 3451      455F4556 
 3451      545F4741 
 3451      505F4F4F 
 3451      425F4745 
 3452              	.LASF252:
 3453 0430 62644861 		.ascii	"bdHandle\000"
 3453      6E646C65 
 3453      00
 3454              	.LASF241:
 3455 0439 4359424C 		.ascii	"CYBLE_GATTS_ERR_NETWORK_NOT_AVAILABLE\000"
 3455      455F4741 
 3455      5454535F 
 3455      4552525F 
 3455      4E455457 
 3456              	.LASF155:
 3457 045f 4359424C 		.ascii	"CYBLE_GAP_AUTH_ERROR_PASSKEY_ENTRY_FAILED\000"
 3457      455F4741 
 3457      505F4155 
 3457      54485F45 
 3457      52524F52 
 3458              	.LASF244:
 3459 0489 4359424C 		.ascii	"CYBLE_GATT_ERR_ANCS_INVALID_COMMAND\000"
 3459      455F4741 
 3459      54545F45 
 3459      52525F41 
 3459      4E43535F 
 3460              	.LASF113:
 3461 04ad 4359424C 		.ascii	"CYBLE_LL_PWR_LVL_NEG_12_DBM\000"
 3461      455F4C4C 
 3461      5F505752 
 3461      5F4C564C 
ARM GAS  C:\Users\igreg\AppData\Local\Temp\ccnO9ZHN.s 			page 99


 3461      5F4E4547 
 3462              	.LASF185:
 3463 04c9 4359424C 		.ascii	"CYBLE_GATT_XCHNG_MTU_RSP\000"
 3463      455F4741 
 3463      54545F58 
 3463      43484E47 
 3463      5F4D5455 
 3464              	.LASF57:
 3465 04e2 4359424C 		.ascii	"CYBLE_EVT_GATTS_WRITE_CMD_REQ\000"
 3465      455F4556 
 3465      545F4741 
 3465      5454535F 
 3465      57524954 
 3466              	.LASF4:
 3467 0500 6C6F6E67 		.ascii	"long int\000"
 3467      20696E74 
 3467      00
 3468              	.LASF144:
 3469 0509 4359424C 		.ascii	"CYBLE_GAP_SEC_LEVEL_1\000"
 3469      455F4741 
 3469      505F5345 
 3469      435F4C45 
 3469      56454C5F 
 3470              	.LASF145:
 3471 051f 4359424C 		.ascii	"CYBLE_GAP_SEC_LEVEL_2\000"
 3471      455F4741 
 3471      505F5345 
 3471      435F4C45 
 3471      56454C5F 
 3472              	.LASF146:
 3473 0535 4359424C 		.ascii	"CYBLE_GAP_SEC_LEVEL_3\000"
 3473      455F4741 
 3473      505F5345 
 3473      435F4C45 
 3473      56454C5F 
 3474              	.LASF147:
 3475 054b 4359424C 		.ascii	"CYBLE_GAP_SEC_LEVEL_4\000"
 3475      455F4741 
 3475      505F5345 
 3475      435F4C45 
 3475      56454C5F 
 3476              	.LASF189:
 3477 0561 4359424C 		.ascii	"CYBLE_GATT_FIND_BY_TYPE_VALUE_RSP\000"
 3477      455F4741 
 3477      54545F46 
 3477      494E445F 
 3477      42595F54 
 3478              	.LASF17:
 3479 0583 4359424C 		.ascii	"CYBLE_EVT_STACK_ON\000"
 3479      455F4556 
 3479      545F5354 
 3479      41434B5F 
 3479      4F4E00
 3480              	.LASF100:
 3481 0596 4359424C 		.ascii	"CYBLE_ERROR_L2CAP_PSM_NOT_IN_RANGE\000"
 3481      455F4552 
 3481      524F525F 
ARM GAS  C:\Users\igreg\AppData\Local\Temp\ccnO9ZHN.s 			page 100


 3481      4C324341 
 3481      505F5053 
 3482              	.LASF280:
 3483 05b9 4359424C 		.ascii	"CYBLE_DIS_HARDWARE_REV\000"
 3483      455F4449 
 3483      535F4841 
 3483      52445741 
 3483      52455F52 
 3484              	.LASF320:
 3485 05d0 6379426C 		.ascii	"cyBle_deviceAddress\000"
 3485      655F6465 
 3485      76696365 
 3485      41646472 
 3485      65737300 
 3486              	.LASF240:
 3487 05e4 4359424C 		.ascii	"CYBLE_GATTS_ERR_HPS_INVALID_REQUEST\000"
 3487      455F4741 
 3487      5454535F 
 3487      4552525F 
 3487      4850535F 
 3488              	.LASF216:
 3489 0608 4359424C 		.ascii	"CYBLE_GATT_ERR_INVALID_PDU\000"
 3489      455F4741 
 3489      54545F45 
 3489      52525F49 
 3489      4E56414C 
 3490              	.LASF158:
 3491 0623 4359424C 		.ascii	"CYBLE_GAP_AUTH_ERROR_CONFIRM_VALUE_NOT_MATCH\000"
 3491      455F4741 
 3491      505F4155 
 3491      54485F45 
 3491      52524F52 
 3492              	.LASF110:
 3493 0650 4359424C 		.ascii	"CYBLE_ERROR_CHAR_IS_NOT_DISCOVERED\000"
 3493      455F4552 
 3493      524F525F 
 3493      43484152 
 3493      5F49535F 
 3494              	.LASF259:
 3495 0673 4359424C 		.ascii	"CYBLE_GATT_HANDLE_VALUE_PAIR_T\000"
 3495      455F4741 
 3495      54545F48 
 3495      414E444C 
 3495      455F5641 
 3496              	.LASF127:
 3497 0692 626C6553 		.ascii	"bleSsChId\000"
 3497      73436849 
 3497      6400
 3498              	.LASF70:
 3499 069c 4359424C 		.ascii	"CYBLE_EVT_L2CAP_COMMAND_REJ\000"
 3499      455F4556 
 3499      545F4C32 
 3499      4341505F 
 3499      434F4D4D 
 3500              	.LASF195:
 3501 06b8 4359424C 		.ascii	"CYBLE_GATT_READ_BLOB_RSP\000"
 3501      455F4741 
ARM GAS  C:\Users\igreg\AppData\Local\Temp\ccnO9ZHN.s 			page 101


 3501      54545F52 
 3501      4541445F 
 3501      424C4F42 
 3502              	.LASF225:
 3503 06d1 4359424C 		.ascii	"CYBLE_GATT_ERR_INVALID_ATTRIBUTE_LEN\000"
 3503      455F4741 
 3503      54545F45 
 3503      52525F49 
 3503      4E56414C 
 3504              	.LASF101:
 3505 06f6 4359424C 		.ascii	"CYBLE_ERROR_GATT_DB_INVALID_ATTR_HANDLE\000"
 3505      455F4552 
 3505      524F525F 
 3505      47415454 
 3505      5F44425F 
 3506              	.LASF0:
 3507 071e 7369676E 		.ascii	"signed char\000"
 3507      65642063 
 3507      68617200 
 3508              	.LASF112:
 3509 072a 4359424C 		.ascii	"CYBLE_LL_PWR_LVL_NEG_18_DBM\000"
 3509      455F4C4C 
 3509      5F505752 
 3509      5F4C564C 
 3509      5F4E4547 
 3510              	.LASF186:
 3511 0746 4359424C 		.ascii	"CYBLE_GATT_FIND_INFO_REQ\000"
 3511      455F4741 
 3511      54545F46 
 3511      494E445F 
 3511      494E464F 
 3512              	.LASF19:
 3513 075f 4359424C 		.ascii	"CYBLE_EVT_HARDWARE_ERROR\000"
 3513      455F4556 
 3513      545F4841 
 3513      52445741 
 3513      52455F45 
 3514              	.LASF333:
 3515 0778 4379426C 		.ascii	"CyBle_EventHandler\000"
 3515      655F4576 
 3515      656E7448 
 3515      616E646C 
 3515      657200
 3516              	.LASF82:
 3517 078b 4359424C 		.ascii	"CYBLE_ERROR_OK\000"
 3517      455F4552 
 3517      524F525F 
 3517      4F4B00
 3518              	.LASF125:
 3519 079a 4359424C 		.ascii	"CYBLE_BLESS_PHY_CH_GRP_ID_T\000"
 3519      455F424C 
 3519      4553535F 
 3519      5048595F 
 3519      43485F47 
 3520              	.LASF247:
 3521 07b6 4359424C 		.ascii	"CYBLE_GATT_ERR_CCCD_IMPROPERLY_CONFIGURED\000"
 3521      455F4741 
ARM GAS  C:\Users\igreg\AppData\Local\Temp\ccnO9ZHN.s 			page 102


 3521      54545F45 
 3521      52525F43 
 3521      4343445F 
 3522              	.LASF48:
 3523 07e0 4359424C 		.ascii	"CYBLE_EVT_GATTC_READ_BY_GROUP_TYPE_RSP\000"
 3523      455F4556 
 3523      545F4741 
 3523      5454435F 
 3523      52454144 
 3524              	.LASF168:
 3525 0807 4359424C 		.ascii	"CYBLE_GAP_AUTH_ERROR_CROSS_TRANSPORT_KEY_GEN_DER_NO"
 3525      455F4741 
 3525      505F4155 
 3525      54485F45 
 3525      52524F52 
 3526 083a 545F414C 		.ascii	"T_ALLOWED\000"
 3526      4C4F5745 
 3526      4400
 3527              	.LASF291:
 3528 0844 4359424C 		.ascii	"CYBLE_STATE_STOPPED\000"
 3528      455F5354 
 3528      4154455F 
 3528      53544F50 
 3528      50454400 
 3529              	.LASF268:
 3530 0858 4359424C 		.ascii	"CYBLE_GATTS_ERR_PARAM_T\000"
 3530      455F4741 
 3530      5454535F 
 3530      4552525F 
 3530      50415241 
 3531              	.LASF1:
 3532 0870 756E7369 		.ascii	"unsigned char\000"
 3532      676E6564 
 3532      20636861 
 3532      7200
 3533              	.LASF47:
 3534 087e 4359424C 		.ascii	"CYBLE_EVT_GATTC_XCHNG_MTU_RSP\000"
 3534      455F4556 
 3534      545F4741 
 3534      5454435F 
 3534      5843484E 
 3535              	.LASF208:
 3536 089c 4359424C 		.ascii	"CYBLE_GATT_HANDLE_VALUE_IND\000"
 3536      455F4741 
 3536      54545F48 
 3536      414E444C 
 3536      455F5641 
 3537              	.LASF42:
 3538 08b8 4359424C 		.ascii	"CYBLE_EVT_GAP_SMP_NEGOTIATED_AUTH_INFO\000"
 3538      455F4556 
 3538      545F4741 
 3538      505F534D 
 3538      505F4E45 
 3539              	.LASF77:
 3540 08df 4359424C 		.ascii	"CYBLE_EVT_L2CAP_CBFC_TX_CREDIT_IND\000"
 3540      455F4556 
 3540      545F4C32 
ARM GAS  C:\Users\igreg\AppData\Local\Temp\ccnO9ZHN.s 			page 103


 3540      4341505F 
 3540      43424643 
 3541              	.LASF267:
 3542 0902 6572726F 		.ascii	"errorCode\000"
 3542      72436F64 
 3542      6500
 3543              	.LASF164:
 3544 090c 4359424C 		.ascii	"CYBLE_GAP_AUTH_ERROR_INVALID_PARAMETERS\000"
 3544      455F4741 
 3544      505F4155 
 3544      54485F45 
 3544      52524F52 
 3545              	.LASF134:
 3546 0934 636F6E66 		.ascii	"configMemory\000"
 3546      69674D65 
 3546      6D6F7279 
 3546      00
 3547              	.LASF74:
 3548 0941 4359424C 		.ascii	"CYBLE_EVT_L2CAP_CBFC_DISCONN_CNF\000"
 3548      455F4556 
 3548      545F4C32 
 3548      4341505F 
 3548      43424643 
 3549              	.LASF51:
 3550 0962 4359424C 		.ascii	"CYBLE_EVT_GATTC_FIND_BY_TYPE_VALUE_RSP\000"
 3550      455F4556 
 3550      545F4741 
 3550      5454435F 
 3550      46494E44 
 3551              	.LASF39:
 3552 0989 4359424C 		.ascii	"CYBLE_EVT_GAP_DATA_LENGTH_CHANGE\000"
 3552      455F4556 
 3552      545F4741 
 3552      505F4441 
 3552      54415F4C 
 3553              	.LASF14:
 3554 09aa 63686172 		.ascii	"char\000"
 3554      00
 3555              	.LASF116:
 3556 09af 4359424C 		.ascii	"CYBLE_LL_PWR_LVL_NEG_2_DBM\000"
 3556      455F4C4C 
 3556      5F505752 
 3556      5F4C564C 
 3556      5F4E4547 
 3557              	.LASF201:
 3558 09ca 4359424C 		.ascii	"CYBLE_GATT_WRITE_RSP\000"
 3558      455F4741 
 3558      54545F57 
 3558      52495445 
 3558      5F525350 
 3559              	.LASF54:
 3560 09df 4359424C 		.ascii	"CYBLE_EVT_GATTC_READ_MULTI_RSP\000"
 3560      455F4556 
 3560      545F4741 
 3560      5454435F 
 3560      52454144 
 3561              	.LASF177:
ARM GAS  C:\Users\igreg\AppData\Local\Temp\ccnO9ZHN.s 			page 104


 3562 09fe 4359424C 		.ascii	"CYBLE_GAP_AUTH_INFO_T\000"
 3562      455F4741 
 3562      505F4155 
 3562      54485F49 
 3562      4E464F5F 
 3563              	.LASF151:
 3564 0a14 4359424C 		.ascii	"CYBLE_GAP_IOCAP_KEYBOARD_ONLY\000"
 3564      455F4741 
 3564      505F494F 
 3564      4341505F 
 3564      4B455942 
 3565              	.LASF16:
 3566 0a32 4359424C 		.ascii	"CYBLE_EVT_HOST_INVALID\000"
 3566      455F4556 
 3566      545F484F 
 3566      53545F49 
 3566      4E56414C 
 3567              	.LASF236:
 3568 0a49 4359424C 		.ascii	"CYBLE_GATT_ERR_MISSING_CRC\000"
 3568      455F4741 
 3568      54545F45 
 3568      52525F4D 
 3568      49535349 
 3569              	.LASF226:
 3570 0a64 4359424C 		.ascii	"CYBLE_GATT_ERR_UNLIKELY_ERROR\000"
 3570      455F4741 
 3570      54545F45 
 3570      52525F55 
 3570      4E4C494B 
 3571              	.LASF41:
 3572 0a82 4359424C 		.ascii	"CYBLE_EVT_GAPC_DIRECT_ADV_REPORT\000"
 3572      455F4556 
 3572      545F4741 
 3572      50435F44 
 3572      49524543 
 3573              	.LASF184:
 3574 0aa3 4359424C 		.ascii	"CYBLE_GATT_XCNHG_MTU_REQ\000"
 3574      455F4741 
 3574      54545F58 
 3574      434E4847 
 3574      5F4D5455 
 3575              	.LASF89:
 3576 0abc 4359424C 		.ascii	"CYBLE_ERROR_NO_DEVICE_ENTITY\000"
 3576      455F4552 
 3576      524F525F 
 3576      4E4F5F44 
 3576      45564943 
 3577              	.LASF53:
 3578 0ad9 4359424C 		.ascii	"CYBLE_EVT_GATTC_READ_BLOB_RSP\000"
 3578      455F4556 
 3578      545F4741 
 3578      5454435F 
 3578      52454144 
 3579              	.LASF305:
 3580 0af7 64657669 		.ascii	"deviceAddress\000"
 3580      63654164 
 3580      64726573 
ARM GAS  C:\Users\igreg\AppData\Local\Temp\ccnO9ZHN.s 			page 105


 3580      7300
 3581              	.LASF319:
 3582 0b05 6379426C 		.ascii	"cyBle_eventHandlerFlag\000"
 3582      655F6576 
 3582      656E7448 
 3582      616E646C 
 3582      6572466C 
 3583              	.LASF60:
 3584 0b1c 4359424C 		.ascii	"CYBLE_EVT_GATTC_EXEC_WRITE_RSP\000"
 3584      455F4556 
 3584      545F4741 
 3584      5454435F 
 3584      45584543 
 3585              	.LASF230:
 3586 0b3b 4359424C 		.ascii	"CYBLE_GATT_ERR_HEART_RATE_CONTROL_POINT_NOT_SUPPORT"
 3586      455F4741 
 3586      54545F45 
 3586      52525F48 
 3586      45415254 
 3587 0b6e 454400   		.ascii	"ED\000"
 3588              	.LASF223:
 3589 0b71 4359424C 		.ascii	"CYBLE_GATT_ERR_ATTRIBUTE_NOT_LONG\000"
 3589      455F4741 
 3589      54545F45 
 3589      52525F41 
 3589      54545249 
 3590              	.LASF148:
 3591 0b93 4359424C 		.ascii	"CYBLE_GAP_SEC_LEVEL_MASK\000"
 3591      455F4741 
 3591      505F5345 
 3591      435F4C45 
 3591      56454C5F 
 3592              	.LASF282:
 3593 0bac 4359424C 		.ascii	"CYBLE_DIS_SOFTWARE_REV\000"
 3593      455F4449 
 3593      535F534F 
 3593      46545741 
 3593      52455F52 
 3594              	.LASF65:
 3595 0bc3 4359424C 		.ascii	"CYBLE_EVT_GATTC_STOP_CMD_COMPLETE\000"
 3595      455F4556 
 3595      545F4741 
 3595      5454435F 
 3595      53544F50 
 3596              	.LASF246:
 3597 0be5 4359424C 		.ascii	"CYBLE_GATT_ERR_ANCS_ACTION_FAILED\000"
 3597      455F4741 
 3597      54545F45 
 3597      52525F41 
 3597      4E43535F 
 3598              	.LASF278:
 3599 0c07 4359424C 		.ascii	"CYBLE_DIS_MODEL_NUMBER\000"
 3599      455F4449 
 3599      535F4D4F 
 3599      44454C5F 
 3599      4E554D42 
 3600              	.LASF326:
ARM GAS  C:\Users\igreg\AppData\Local\Temp\ccnO9ZHN.s 			page 106


 3601 0c1e 6379426C 		.ascii	"cyBle_connHandle\000"
 3601      655F636F 
 3601      6E6E4861 
 3601      6E646C65 
 3601      00
 3602              	.LASF283:
 3603 0c2f 4359424C 		.ascii	"CYBLE_DIS_SYSTEM_ID\000"
 3603      455F4449 
 3603      535F5359 
 3603      5354454D 
 3603      5F494400 
 3604              	.LASF183:
 3605 0c43 4359424C 		.ascii	"CYBLE_GATT_ERROR_RSP\000"
 3605      455F4741 
 3605      54545F45 
 3605      52524F52 
 3605      5F525350 
 3606              	.LASF83:
 3607 0c58 4359424C 		.ascii	"CYBLE_ERROR_INVALID_PARAMETER\000"
 3607      455F4552 
 3607      524F525F 
 3607      494E5641 
 3607      4C49445F 
 3608              	.LASF275:
 3609 0c76 626F756E 		.ascii	"boundedDevCount\000"
 3609      64656444 
 3609      6576436F 
 3609      756E7400 
 3610              	.LASF309:
 3611 0c86 4379426C 		.ascii	"CyBle_GapConnUpdateCompleteEventHandler\000"
 3611      655F4761 
 3611      70436F6E 
 3611      6E557064 
 3611      61746543 
 3612              	.LASF167:
 3613 0cae 4359424C 		.ascii	"CYBLE_GAP_AUTH_ERROR_BR_EDR_PAIRING_IN_PROGRESS\000"
 3613      455F4741 
 3613      505F4155 
 3613      54485F45 
 3613      52524F52 
 3614              	.LASF85:
 3615 0cde 4359424C 		.ascii	"CYBLE_ERROR_MEMORY_ALLOCATION_FAILED\000"
 3615      455F4552 
 3615      524F525F 
 3615      4D454D4F 
 3615      52595F41 
 3616              	.LASF264:
 3617 0d03 70726570 		.ascii	"prepareWriteQueueSize\000"
 3617      61726557 
 3617      72697465 
 3617      51756575 
 3617      6553697A 
 3618              	.LASF321:
 3619 0d19 6379426C 		.ascii	"cyBle_sflashDeviceAddress\000"
 3619      655F7366 
 3619      6C617368 
 3619      44657669 
ARM GAS  C:\Users\igreg\AppData\Local\Temp\ccnO9ZHN.s 			page 107


 3619      63654164 
 3620              	.LASF273:
 3621 0d33 61747456 		.ascii	"attValuesCCCDFlashMemory\000"
 3621      616C7565 
 3621      73434343 
 3621      44466C61 
 3621      73684D65 
 3622              	.LASF210:
 3623 0d4c 4359424C 		.ascii	"CYBLE_GATT_SIGNED_WRITE_CMD\000"
 3623      455F4741 
 3623      54545F53 
 3623      49474E45 
 3623      445F5752 
 3624              	.LASF237:
 3625 0d68 4359424C 		.ascii	"CYBLE_GATTS_ERR_CCCD_IMPROPERLY_CONFIGURED\000"
 3625      455F4741 
 3625      5454535F 
 3625      4552525F 
 3625      43434344 
 3626              	.LASF206:
 3627 0d93 4359424C 		.ascii	"CYBLE_GATT_EXECUTE_WRITE_RSP\000"
 3627      455F4741 
 3627      54545F45 
 3627      58454355 
 3627      54455F57 
 3628              	.LASF107:
 3629 0db0 4359424C 		.ascii	"CYBLE_ERROR_MAX\000"
 3629      455F4552 
 3629      524F525F 
 3629      4D415800 
 3630              	.LASF69:
 3631 0dc0 4359424C 		.ascii	"CYBLE_EVT_L2CAP_CONN_PARAM_UPDATE_RSP\000"
 3631      455F4556 
 3631      545F4C32 
 3631      4341505F 
 3631      434F4E4E 
 3632              	.LASF170:
 3633 0de6 4359424C 		.ascii	"CYBLE_GAP_AUTH_ERROR_LINK_DISCONNECTED\000"
 3633      455F4741 
 3633      505F4155 
 3633      54485F45 
 3633      52524F52 
 3634              	.LASF272:
 3635 0e0d 73746163 		.ascii	"stackFlashptr\000"
 3635      6B466C61 
 3635      73687074 
 3635      7200
 3636              	.LASF231:
 3637 0e1b 4359424C 		.ascii	"CYBLE_GATT_ERR_USER_DATA_ACCESS_NOT_PERMITTED\000"
 3637      455F4741 
 3637      54545F45 
 3637      52525F55 
 3637      5345525F 
 3638              	.LASF27:
 3639 0e49 4359424C 		.ascii	"CYBLE_EVT_GAP_AUTH_COMPLETE\000"
 3639      455F4556 
 3639      545F4741 
ARM GAS  C:\Users\igreg\AppData\Local\Temp\ccnO9ZHN.s 			page 108


 3639      505F4155 
 3639      54485F43 
 3640              	.LASF28:
 3641 0e65 4359424C 		.ascii	"CYBLE_EVT_GAP_AUTH_FAILED\000"
 3641      455F4556 
 3641      545F4741 
 3641      505F4155 
 3641      54485F46 
 3642              	.LASF133:
 3643 0e7f 616C6C6F 		.ascii	"allocFree\000"
 3643      63467265 
 3643      6500
 3644              	.LASF199:
 3645 0e89 4359424C 		.ascii	"CYBLE_GATT_READ_BY_GROUP_RSP\000"
 3645      455F4741 
 3645      54545F52 
 3645      4541445F 
 3645      42595F47 
 3646              	.LASF86:
 3647 0ea6 4359424C 		.ascii	"CYBLE_ERROR_INSUFFICIENT_RESOURCES\000"
 3647      455F4552 
 3647      524F525F 
 3647      494E5355 
 3647      46464943 
 3648              	.LASF235:
 3649 0ec9 4359424C 		.ascii	"CYBLE_GATT_ERR_OP_CODE_NOT_SUPPORTED\000"
 3649      455F4741 
 3649      54545F45 
 3649      52525F4F 
 3649      505F434F 
 3650              	.LASF119:
 3651 0eee 4359424C 		.ascii	"CYBLE_LL_PWR_LVL_3_DBM\000"
 3651      455F4C4C 
 3651      5F505752 
 3651      5F4C564C 
 3651      5F335F44 
 3652              	.LASF5:
 3653 0f05 6C6F6E67 		.ascii	"long unsigned int\000"
 3653      20756E73 
 3653      69676E65 
 3653      6420696E 
 3653      7400
 3654              	.LASF192:
 3655 0f17 4359424C 		.ascii	"CYBLE_GATT_READ_REQ\000"
 3655      455F4741 
 3655      54545F52 
 3655      4541445F 
 3655      52455100 
 3656              	.LASF178:
 3657 0f2b 73746174 		.ascii	"status\000"
 3657      757300
 3658              	.LASF117:
 3659 0f32 4359424C 		.ascii	"CYBLE_LL_PWR_LVL_NEG_1_DBM\000"
 3659      455F4C4C 
 3659      5F505752 
 3659      5F4C564C 
 3659      5F4E4547 
ARM GAS  C:\Users\igreg\AppData\Local\Temp\ccnO9ZHN.s 			page 109


 3660              	.LASF106:
 3661 0f4d 4359424C 		.ascii	"CYBLE_ERROR_UNSUPPORTED_FEATURE_OR_PARAMETER_VALUE\000"
 3661      455F4552 
 3661      524F525F 
 3661      554E5355 
 3661      50504F52 
 3662              	.LASF130:
 3663 0f80 4359424C 		.ascii	"CYBLE_INVALID_REQUEST\000"
 3663      455F494E 
 3663      56414C49 
 3663      445F5245 
 3663      51554553 
 3664              	.LASF161:
 3665 0f96 4359424C 		.ascii	"CYBLE_GAP_AUTH_ERROR_COMMAND_NOT_SUPPORTED\000"
 3665      455F4741 
 3665      505F4155 
 3665      54485F45 
 3665      52524F52 
 3666              	.LASF157:
 3667 0fc1 4359424C 		.ascii	"CYBLE_GAP_AUTH_ERROR_AUTHENTICATION_REQ_NOT_MET\000"
 3667      455F4741 
 3667      505F4155 
 3667      54485F45 
 3667      52524F52 
 3668              	.LASF207:
 3669 0ff1 4359424C 		.ascii	"CYBLE_GATT_HANDLE_VALUE_NTF\000"
 3669      455F4741 
 3669      54545F48 
 3669      414E444C 
 3669      455F5641 
 3670              	.LASF96:
 3671 100d 4359424C 		.ascii	"CYBLE_ERROR_L2CAP_PSM_ALREADY_REGISTERED\000"
 3671      455F4552 
 3671      524F525F 
 3671      4C324341 
 3671      505F5053 
 3672              	.LASF243:
 3673 1036 4359424C 		.ascii	"CYBLE_GATT_ERR_ANCS_UNKNOWN_COMMAND\000"
 3673      455F4741 
 3673      54545F45 
 3673      52525F41 
 3673      4E43535F 
 3674              	.LASF279:
 3675 105a 4359424C 		.ascii	"CYBLE_DIS_SERIAL_NUMBER\000"
 3675      455F4449 
 3675      535F5345 
 3675      5249414C 
 3675      5F4E554D 
 3676              	.LASF265:
 3677 1072 4359424C 		.ascii	"CYBLE_PREPARE_WRITE_REQUEST_MEMORY_T\000"
 3677      455F5052 
 3677      45504152 
 3677      455F5752 
 3677      4954455F 
 3678              	.LASF33:
 3679 1097 4359424C 		.ascii	"CYBLE_EVT_GAP_CONNECTION_UPDATE_COMPLETE\000"
 3679      455F4556 
ARM GAS  C:\Users\igreg\AppData\Local\Temp\ccnO9ZHN.s 			page 110


 3679      545F4741 
 3679      505F434F 
 3679      4E4E4543 
 3680              	.LASF327:
 3681 10c0 6379426C 		.ascii	"cyBle_busyStatus\000"
 3681      655F6275 
 3681      73795374 
 3681      61747573 
 3681      00
 3682              	.LASF292:
 3683 10d1 4359424C 		.ascii	"CYBLE_STATE_INITIALIZING\000"
 3683      455F5354 
 3683      4154455F 
 3683      494E4954 
 3683      49414C49 
 3684              	.LASF316:
 3685 10ea 6379426C 		.ascii	"cyBle_mtuSize\000"
 3685      655F6D74 
 3685      7553697A 
 3685      6500
 3686              	.LASF163:
 3687 10f8 4359424C 		.ascii	"CYBLE_GAP_AUTH_ERROR_REPEATED_ATTEMPTS\000"
 3687      455F4741 
 3687      505F4155 
 3687      54485F45 
 3687      52524F52 
 3688              	.LASF73:
 3689 111f 4359424C 		.ascii	"CYBLE_EVT_L2CAP_CBFC_DISCONN_IND\000"
 3689      455F4556 
 3689      545F4C32 
 3689      4341505F 
 3689      43424643 
 3690              	.LASF25:
 3691 1140 4359424C 		.ascii	"CYBLE_EVT_GAP_PASSKEY_ENTRY_REQUEST\000"
 3691      455F4556 
 3691      545F4741 
 3691      505F5041 
 3691      53534B45 
 3692              	.LASF165:
 3693 1164 4359424C 		.ascii	"CYBLE_GAP_AUTH_ERROR_DHKEY_CHECK_FAILED\000"
 3693      455F4741 
 3693      505F4155 
 3693      54485F45 
 3693      52524F52 
 3694              	.LASF121:
 3695 118c 4359424C 		.ascii	"CYBLE_BLESS_PWR_LVL_T\000"
 3695      455F424C 
 3695      4553535F 
 3695      5057525F 
 3695      4C564C5F 
 3696              	.LASF276:
 3697 11a2 43595F42 		.ascii	"CY_BLE_FLASH_STORAGE\000"
 3697      4C455F46 
 3697      4C415348 
 3697      5F53544F 
 3697      52414745 
 3698              	.LASF304:
ARM GAS  C:\Users\igreg\AppData\Local\Temp\ccnO9ZHN.s 			page 111


 3699 11b7 4379426C 		.ascii	"CyBle_GattConnectReqHandler\000"
 3699      655F4761 
 3699      7474436F 
 3699      6E6E6563 
 3699      74526571 
 3700              	.LASF324:
 3701 11d3 6379426C 		.ascii	"cyBle_flashStorage\000"
 3701      655F666C 
 3701      61736853 
 3701      746F7261 
 3701      676500
 3702              	.LASF160:
 3703 11e6 4359424C 		.ascii	"CYBLE_GAP_AUTH_ERROR_INSUFFICIENT_ENCRYPTION_KEY_SI"
 3703      455F4741 
 3703      505F4155 
 3703      54485F45 
 3703      52524F52 
 3704 1219 5A4500   		.ascii	"ZE\000"
 3705              	.LASF288:
 3706 121c 4359424C 		.ascii	"CYBLE_HRS_BSL\000"
 3706      455F4852 
 3706      535F4253 
 3706      4C00
 3707              	.LASF6:
 3708 122a 6C6F6E67 		.ascii	"long long int\000"
 3708      206C6F6E 
 3708      6720696E 
 3708      7400
 3709              	.LASF303:
 3710 1238 4379426C 		.ascii	"CyBle_GattDisconnectEventHandler\000"
 3710      655F4761 
 3710      74744469 
 3710      73636F6E 
 3710      6E656374 
 3711              	.LASF285:
 3712 1259 4359424C 		.ascii	"CYBLE_DIS_PNP_ID\000"
 3712      455F4449 
 3712      535F504E 
 3712      505F4944 
 3712      00
 3713              	.LASF135:
 3714 126a 4359424C 		.ascii	"CYBLE_MEMORY_REQUEST_T\000"
 3714      455F4D45 
 3714      4D4F5259 
 3714      5F524551 
 3714      55455354 
 3715              	.LASF172:
 3716 1281 73656375 		.ascii	"security\000"
 3716      72697479 
 3716      00
 3717              	.LASF221:
 3718 128a 4359424C 		.ascii	"CYBLE_GATT_ERR_PREPARE_WRITE_QUEUE_FULL\000"
 3718      455F4741 
 3718      54545F45 
 3718      52525F50 
 3718      52455041 
 3719              	.LASF97:
ARM GAS  C:\Users\igreg\AppData\Local\Temp\ccnO9ZHN.s 			page 112


 3720 12b2 4359424C 		.ascii	"CYBLE_ERROR_L2CAP_PSM_NOT_REGISTERED\000"
 3720      455F4552 
 3720      524F525F 
 3720      4C324341 
 3720      505F5053 
 3721              	.LASF87:
 3722 12d7 4359424C 		.ascii	"CYBLE_ERROR_OOB_NOT_AVAILABLE\000"
 3722      455F4552 
 3722      524F525F 
 3722      4F4F425F 
 3722      4E4F545F 
 3723              	.LASF13:
 3724 12f5 646F7562 		.ascii	"double\000"
 3724      6C6500
 3725              	.LASF102:
 3726 12fc 4359424C 		.ascii	"CYBLE_ERROR_DEVICE_ALREADY_EXISTS\000"
 3726      455F4552 
 3726      524F525F 
 3726      44455649 
 3726      43455F41 
 3727              	.LASF79:
 3728 131e 4359424C 		.ascii	"CYBLE_EVT_PENDING_FLASH_WRITE\000"
 3728      455F4556 
 3728      545F5045 
 3728      4E44494E 
 3728      475F464C 
 3729              	.LASF224:
 3730 133c 4359424C 		.ascii	"CYBLE_GATT_ERR_INSUFFICIENT_ENC_KEY_SIZE\000"
 3730      455F4741 
 3730      54545F45 
 3730      52525F49 
 3730      4E535546 
 3731              	.LASF120:
 3732 1365 4359424C 		.ascii	"CYBLE_LL_PWR_LVL_MAX\000"
 3732      455F4C4C 
 3732      5F505752 
 3732      5F4C564C 
 3732      5F4D4158 
 3733              	.LASF248:
 3734 137a 4359424C 		.ascii	"CYBLE_GATT_ERR_PROCEDURE_ALREADY_IN_PROGRESS\000"
 3734      455F4741 
 3734      54545F45 
 3734      52525F50 
 3734      524F4345 
 3735              	.LASF40:
 3736 13a7 4359424C 		.ascii	"CYBLE_EVT_GAP_ENHANCE_CONN_COMPLETE\000"
 3736      455F4556 
 3736      545F4741 
 3736      505F454E 
 3736      48414E43 
 3737              	.LASF99:
 3738 13cb 4359424C 		.ascii	"CYBLE_ERROR_L2CAP_CHANNEL_NOT_FOUND\000"
 3738      455F4552 
 3738      524F525F 
 3738      4C324341 
 3738      505F4348 
 3739              	.LASF90:
ARM GAS  C:\Users\igreg\AppData\Local\Temp\ccnO9ZHN.s 			page 113


 3740 13ef 4359424C 		.ascii	"CYBLE_ERROR_REPEATED_ATTEMPTS\000"
 3740      455F4552 
 3740      524F525F 
 3740      52455045 
 3740      41544544 
 3741              	.LASF300:
 3742 140d 4379426C 		.ascii	"CyBle_ValueConfirmation\000"
 3742      655F5661 
 3742      6C756543 
 3742      6F6E6669 
 3742      726D6174 
 3743              	.LASF12:
 3744 1425 666C6F61 		.ascii	"float\000"
 3744      7400
 3745              	.LASF103:
 3746 142b 4359424C 		.ascii	"CYBLE_ERROR_FLASH_WRITE_NOT_PERMITED\000"
 3746      455F4552 
 3746      524F525F 
 3746      464C4153 
 3746      485F5752 
 3747              	.LASF66:
 3748 1450 4359424C 		.ascii	"CYBLE_EVT_GATTS_READ_CHAR_VAL_ACCESS_REQ\000"
 3748      455F4556 
 3748      545F4741 
 3748      5454535F 
 3748      52454144 
 3749              	.LASF266:
 3750 1479 6F70636F 		.ascii	"opcode\000"
 3750      646500
 3751              	.LASF220:
 3752 1480 4359424C 		.ascii	"CYBLE_GATT_ERR_INSUFFICIENT_AUTHORIZATION\000"
 3752      455F4741 
 3752      54545F45 
 3752      52525F49 
 3752      4E535546 
 3753              	.LASF258:
 3754 14aa 61747472 		.ascii	"attrHandle\000"
 3754      48616E64 
 3754      6C6500
 3755              	.LASF173:
 3756 14b5 626F6E64 		.ascii	"bonding\000"
 3756      696E6700 
 3757              	.LASF270:
 3758 14bd 4359424C 		.ascii	"CYBLE_GATTS_WRITE_REQ_PARAM_T\000"
 3758      455F4741 
 3758      5454535F 
 3758      57524954 
 3758      455F5245 
 3759              	.LASF8:
 3760 14db 756E7369 		.ascii	"unsigned int\000"
 3760      676E6564 
 3760      20696E74 
 3760      00
 3761              	.LASF58:
 3762 14e8 4359424C 		.ascii	"CYBLE_EVT_GATTS_PREP_WRITE_REQ\000"
 3762      455F4556 
 3762      545F4741 
ARM GAS  C:\Users\igreg\AppData\Local\Temp\ccnO9ZHN.s 			page 114


 3762      5454535F 
 3762      50524550 
 3763              	.LASF217:
 3764 1507 4359424C 		.ascii	"CYBLE_GATT_ERR_INSUFFICIENT_AUTHENTICATION\000"
 3764      455F4741 
 3764      54545F45 
 3764      52525F49 
 3764      4E535546 
 3765              	.LASF261:
 3766 1532 4359424C 		.ascii	"CYBLE_GATT_XCHG_MTU_PARAM_T\000"
 3766      455F4741 
 3766      54545F58 
 3766      4348475F 
 3766      4D54555F 
 3767              	.LASF284:
 3768 154e 4359424C 		.ascii	"CYBLE_DIS_REG_CERT_DATA\000"
 3768      455F4449 
 3768      535F5245 
 3768      475F4345 
 3768      52545F44 
 3769              	.LASF315:
 3770 1566 67507265 		.ascii	"gPrepWriteReqMem\000"
 3770      70577269 
 3770      74655265 
 3770      714D656D 
 3770      00
 3771              	.LASF123:
 3772 1577 4359424C 		.ascii	"CYBLE_LL_CONN_CH_TYPE\000"
 3772      455F4C4C 
 3772      5F434F4E 
 3772      4E5F4348 
 3772      5F545950 
 3773              	.LASF234:
 3774 158d 4359424C 		.ascii	"CYBLE_GATTS_ERR_PROCEDURE_ALREADY_IN_PROGRESS\000"
 3774      455F4741 
 3774      5454535F 
 3774      4552525F 
 3774      50524F43 
 3775              	.LASF139:
 3776 15bb 4359424C 		.ascii	"CYBLE_GAP_ADV_MODE_TO\000"
 3776      455F4741 
 3776      505F4144 
 3776      565F4D4F 
 3776      44455F54 
 3777              	.LASF298:
 3778 15d1 6572725F 		.ascii	"err_param\000"
 3778      70617261 
 3778      6D00
 3779              	.LASF95:
 3780 15db 4359424C 		.ascii	"CYBLE_ERROR_L2CAP_PSM_WRONG_ENCODING\000"
 3780      455F4552 
 3780      524F525F 
 3780      4C324341 
 3780      505F5053 
 3781              	.LASF204:
 3782 1600 4359424C 		.ascii	"CYBLE_GATT_PREPARE_WRITE_RSP\000"
 3782      455F4741 
ARM GAS  C:\Users\igreg\AppData\Local\Temp\ccnO9ZHN.s 			page 115


 3782      54545F50 
 3782      52455041 
 3782      52455F57 
 3783              	.LASF289:
 3784 161d 4359424C 		.ascii	"CYBLE_HRS_CPT\000"
 3784      455F4852 
 3784      535F4350 
 3784      5400
 3785              	.LASF222:
 3786 162b 4359424C 		.ascii	"CYBLE_GATT_ERR_ATTRIBUTE_NOT_FOUND\000"
 3786      455F4741 
 3786      54545F45 
 3786      52525F41 
 3786      54545249 
 3787              	.LASF81:
 3788 164e 4359424C 		.ascii	"CYBLE_EVT_MAX\000"
 3788      455F4556 
 3788      545F4D41 
 3788      5800
 3789              	.LASF34:
 3790 165c 4359424C 		.ascii	"CYBLE_EVT_GAPC_SCAN_START_STOP\000"
 3790      455F4556 
 3790      545F4741 
 3790      50435F53 
 3790      43414E5F 
 3791              	.LASF332:
 3792 167b 4379426C 		.ascii	"CyBle_IsDeviceAddressValid\000"
 3792      655F4973 
 3792      44657669 
 3792      63654164 
 3792      64726573 
 3793              	.LASF171:
 3794 1696 4359424C 		.ascii	"CYBLE_GAP_AUTH_FAILED_REASON_T\000"
 3794      455F4741 
 3794      505F4155 
 3794      54485F46 
 3794      41494C45 
 3795              	.LASF55:
 3796 16b5 4359424C 		.ascii	"CYBLE_EVT_GATTS_WRITE_REQ\000"
 3796      455F4556 
 3796      545F4741 
 3796      5454535F 
 3796      57524954 
 3797              	.LASF26:
 3798 16cf 4359424C 		.ascii	"CYBLE_EVT_GAP_PASSKEY_DISPLAY_REQUEST\000"
 3798      455F4556 
 3798      545F4741 
 3798      505F5041 
 3798      53534B45 
 3799              	.LASF109:
 3800 16f5 4359424C 		.ascii	"CYBLE_ERROR_IND_DISABLED\000"
 3800      455F4552 
 3800      524F525F 
 3800      494E445F 
 3800      44495341 
 3801              	.LASF108:
 3802 170e 4359424C 		.ascii	"CYBLE_ERROR_NTF_DISABLED\000"
ARM GAS  C:\Users\igreg\AppData\Local\Temp\ccnO9ZHN.s 			page 116


 3802      455F4552 
 3802      524F525F 
 3802      4E54465F 
 3802      44495341 
 3803              	.LASF196:
 3804 1727 4359424C 		.ascii	"CYBLE_GATT_READ_MULTIPLE_REQ\000"
 3804      455F4741 
 3804      54545F52 
 3804      4541445F 
 3804      4D554C54 
 3805              	.LASF52:
 3806 1744 4359424C 		.ascii	"CYBLE_EVT_GATTC_READ_RSP\000"
 3806      455F4556 
 3806      545F4741 
 3806      5454435F 
 3806      52454144 
 3807              	.LASF219:
 3808 175d 4359424C 		.ascii	"CYBLE_GATT_ERR_INVALID_OFFSET\000"
 3808      455F4741 
 3808      54545F45 
 3808      52525F49 
 3808      4E56414C 
 3809              	.LASF190:
 3810 177b 4359424C 		.ascii	"CYBLE_GATT_READ_BY_TYPE_REQ\000"
 3810      455F4741 
 3810      54545F52 
 3810      4541445F 
 3810      42595F54 
 3811              	.LASF72:
 3812 1797 4359424C 		.ascii	"CYBLE_EVT_L2CAP_CBFC_CONN_CNF\000"
 3812      455F4556 
 3812      545F4C32 
 3812      4341505F 
 3812      43424643 
 3813              	.LASF249:
 3814 17b5 4359424C 		.ascii	"CYBLE_GATT_ERR_OUT_OF_RANGE\000"
 3814      455F4741 
 3814      54545F45 
 3814      52525F4F 
 3814      55545F4F 
 3815              	.LASF188:
 3816 17d1 4359424C 		.ascii	"CYBLE_GATT_FIND_BY_TYPE_VALUE_REQ\000"
 3816      455F4741 
 3816      54545F46 
 3816      494E445F 
 3816      42595F54 
 3817              	.LASF114:
 3818 17f3 4359424C 		.ascii	"CYBLE_LL_PWR_LVL_NEG_6_DBM\000"
 3818      455F4C4C 
 3818      5F505752 
 3818      5F4C564C 
 3818      5F4E4547 
 3819              	.LASF22:
 3820 180e 4359424C 		.ascii	"CYBLE_EVT_MEMORY_REQUEST\000"
 3820      455F4556 
 3820      545F4D45 
 3820      4D4F5259 
ARM GAS  C:\Users\igreg\AppData\Local\Temp\ccnO9ZHN.s 			page 117


 3820      5F524551 
 3821              	.LASF154:
 3822 1827 4359424C 		.ascii	"CYBLE_GAP_AUTH_ERROR_NONE\000"
 3822      455F4741 
 3822      505F4155 
 3822      54485F45 
 3822      52524F52 
 3823              	.LASF32:
 3824 1841 4359424C 		.ascii	"CYBLE_EVT_GAP_ENCRYPT_CHANGE\000"
 3824      455F4556 
 3824      545F4741 
 3824      505F454E 
 3824      43525950 
 3825              	.LASF262:
 3826 185e 71756575 		.ascii	"queueBuffer\000"
 3826      65427566 
 3826      66657200 
 3827              	.LASF46:
 3828 186a 4359424C 		.ascii	"CYBLE_EVT_GATTS_XCNHG_MTU_REQ\000"
 3828      455F4556 
 3828      545F4741 
 3828      5454535F 
 3828      58434E48 
 3829              	.LASF287:
 3830 1888 4359424C 		.ascii	"CYBLE_HRS_HRM\000"
 3830      455F4852 
 3830      535F4852 
 3830      4D00
 3831              	.LASF187:
 3832 1896 4359424C 		.ascii	"CYBLE_GATT_FIND_INFO_RSP\000"
 3832      455F4741 
 3832      54545F46 
 3832      494E445F 
 3832      494E464F 
 3833              	.LASF156:
 3834 18af 4359424C 		.ascii	"CYBLE_GAP_AUTH_ERROR_OOB_DATA_NOT_AVAILABLE\000"
 3834      455F4741 
 3834      505F4155 
 3834      54485F45 
 3834      52524F52 
 3835              	.LASF129:
 3836 18db 4359424C 		.ascii	"CYBLE_PREPARED_WRITE_REQUEST\000"
 3836      455F5052 
 3836      45504152 
 3836      45445F57 
 3836      52495445 
 3837              	.LASF182:
 3838 18f8 4359424C 		.ascii	"CYBLE_GAP_CONN_PARAM_UPDATED_IN_CONTROLLER_T\000"
 3838      455F4741 
 3838      505F434F 
 3838      4E4E5F50 
 3838      4152414D 
 3839              	.LASF277:
 3840 1925 4359424C 		.ascii	"CYBLE_DIS_MANUFACTURER_NAME\000"
 3840      455F4449 
 3840      535F4D41 
 3840      4E554641 
ARM GAS  C:\Users\igreg\AppData\Local\Temp\ccnO9ZHN.s 			page 118


 3840      43545552 
 3841              	.LASF7:
 3842 1941 6C6F6E67 		.ascii	"long long unsigned int\000"
 3842      206C6F6E 
 3842      6720756E 
 3842      7369676E 
 3842      65642069 
 3843              	.LASF213:
 3844 1958 4359424C 		.ascii	"CYBLE_GATT_ERR_INVALID_HANDLE\000"
 3844      455F4741 
 3844      54545F45 
 3844      52525F49 
 3844      4E56414C 
 3845              	.LASF18:
 3846 1976 4359424C 		.ascii	"CYBLE_EVT_TIMEOUT\000"
 3846      455F4556 
 3846      545F5449 
 3846      4D454F55 
 3846      5400
 3847              	.LASF211:
 3848 1988 4359424C 		.ascii	"CYBLE_GATT_UNKNOWN_PDU_IND\000"
 3848      455F4741 
 3848      54545F55 
 3848      4E4B4E4F 
 3848      574E5F50 
 3849              	.LASF111:
 3850 19a3 4359424C 		.ascii	"CYBLE_ERROR_INVALID_STATE\000"
 3850      455F4552 
 3850      524F525F 
 3850      494E5641 
 3850      4C49445F 
 3851              	.LASF251:
 3852 19bd 4359424C 		.ascii	"CYBLE_GATT_DB_ATTR_HANDLE_T\000"
 3852      455F4741 
 3852      54545F44 
 3852      425F4154 
 3852      54525F48 
 3853              	.LASF311:
 3854 19d9 626C6553 		.ascii	"bleSsPowerLevel\000"
 3854      73506F77 
 3854      65724C65 
 3854      76656C00 
 3855              	.LASF75:
 3856 19e9 4359424C 		.ascii	"CYBLE_EVT_L2CAP_CBFC_DATA_READ\000"
 3856      455F4556 
 3856      545F4C32 
 3856      4341505F 
 3856      43424643 
 3857              	.LASF212:
 3858 1a08 4359424C 		.ascii	"CYBLE_GATT_ERR_NONE\000"
 3858      455F4741 
 3858      54545F45 
 3858      52525F4E 
 3858      4F4E4500 
 3859              	.LASF257:
 3860 1a1c 76616C75 		.ascii	"value\000"
 3860      6500
ARM GAS  C:\Users\igreg\AppData\Local\Temp\ccnO9ZHN.s 			page 119


 3861              	.LASF263:
 3862 1a22 746F7461 		.ascii	"totalAttrValueLength\000"
 3862      6C417474 
 3862      7256616C 
 3862      75654C65 
 3862      6E677468 
 3863              	.LASF317:
 3864 1a37 4379426C 		.ascii	"CyBle_ApplCallback\000"
 3864      655F4170 
 3864      706C4361 
 3864      6C6C6261 
 3864      636B00
 3865              	.LASF250:
 3866 1a4a 4359424C 		.ascii	"CYBLE_GATT_ERR_CODE_T\000"
 3866      455F4741 
 3866      54545F45 
 3866      52525F43 
 3866      4F44455F 
 3867              	.LASF140:
 3868 1a60 4359424C 		.ascii	"CYBLE_GAP_SCAN_TO\000"
 3868      455F4741 
 3868      505F5343 
 3868      414E5F54 
 3868      4F00
 3869              	.LASF233:
 3870 1a72 4359424C 		.ascii	"CYBLE_GATT_ERR_HTS_OUT_OF_RANGE\000"
 3870      455F4741 
 3870      54545F45 
 3870      52525F48 
 3870      54535F4F 
 3871              	.LASF138:
 3872 1a92 4359424C 		.ascii	"CYBLE_GAP_BD_ADDR_T\000"
 3872      455F4741 
 3872      505F4244 
 3872      5F414444 
 3872      525F5400 
 3873              	.LASF194:
 3874 1aa6 4359424C 		.ascii	"CYBLE_GATT_READ_BLOB_REQ\000"
 3874      455F4741 
 3874      54545F52 
 3874      4541445F 
 3874      424C4F42 
 3875              	.LASF329:
 3876 1abf 474E5520 		.ascii	"GNU C 4.9.3 20150303 (release) [ARM/embedded-4_9-br"
 3876      4320342E 
 3876      392E3320 
 3876      32303135 
 3876      30333033 
 3877 1af2 616E6368 		.ascii	"anch revision 221220] -mcpu=cortex-m0 -mthumb -g -O"
 3877      20726576 
 3877      6973696F 
 3877      6E203232 
 3877      31323230 
 3878 1b25 30202D66 		.ascii	"0 -ffunction-sections -ffat-lto-objects\000"
 3878      66756E63 
 3878      74696F6E 
 3878      2D736563 
ARM GAS  C:\Users\igreg\AppData\Local\Temp\ccnO9ZHN.s 			page 120


 3878      74696F6E 
 3879              	.LASF269:
 3880 1b4d 68616E64 		.ascii	"handleValPair\000"
 3880      6C655661 
 3880      6C506169 
 3880      7200
 3881              	.LASF260:
 3882 1b5b 636F6E6E 		.ascii	"connHandle\000"
 3882      48616E64 
 3882      6C6500
 3883              	.LASF302:
 3884 1b66 4379426C 		.ascii	"CyBle_TimeOutEventHandler\000"
 3884      655F5469 
 3884      6D654F75 
 3884      74457665 
 3884      6E744861 
 3885              	.LASF330:
 3886 1b80 2E5C4765 		.ascii	".\\Generated_Source\\PSoC4\\CYBLE_eventHandler.c\000"
 3886      6E657261 
 3886      7465645F 
 3886      536F7572 
 3886      63655C50 
 3887              	.LASF159:
 3888 1bae 4359424C 		.ascii	"CYBLE_GAP_AUTH_ERROR_PAIRING_NOT_SUPPORTED\000"
 3888      455F4741 
 3888      505F4155 
 3888      54485F45 
 3888      52524F52 
 3889              	.LASF142:
 3890 1bd9 4359424C 		.ascii	"CYBLE_GENERIC_TO\000"
 3890      455F4745 
 3890      4E455249 
 3890      435F544F 
 3890      00
 3891              	.LASF50:
 3892 1bea 4359424C 		.ascii	"CYBLE_EVT_GATTC_FIND_INFO_RSP\000"
 3892      455F4556 
 3892      545F4741 
 3892      5454435F 
 3892      46494E44 
 3893              	.LASF49:
 3894 1c08 4359424C 		.ascii	"CYBLE_EVT_GATTC_READ_BY_TYPE_RSP\000"
 3894      455F4556 
 3894      545F4741 
 3894      5454435F 
 3894      52454144 
 3895              	.LASF238:
 3896 1c29 4359424C 		.ascii	"CYBLE_GATTS_ERR_OPERATION_FAILED\000"
 3896      455F4741 
 3896      5454535F 
 3896      4552525F 
 3896      4F504552 
 3897              	.LASF325:
 3898 1c4a 6379426C 		.ascii	"cyBle_state\000"
 3898      655F7374 
 3898      61746500 
 3899              	.LASF176:
ARM GAS  C:\Users\igreg\AppData\Local\Temp\ccnO9ZHN.s 			page 121


 3900 1c56 70616972 		.ascii	"pairingProperties\000"
 3900      696E6750 
 3900      726F7065 
 3900      72746965 
 3900      7300
 3901              	.LASF56:
 3902 1c68 4359424C 		.ascii	"CYBLE_EVT_GATTC_WRITE_RSP\000"
 3902      455F4556 
 3902      545F4741 
 3902      5454435F 
 3902      57524954 
 3903              	.LASF295:
 3904 1c82 4359424C 		.ascii	"CYBLE_STATE_DISCONNECTED\000"
 3904      455F5354 
 3904      4154455F 
 3904      44495343 
 3904      4F4E4E45 
 3905              	.LASF313:
 3906 1c9b 6C654D61 		.ascii	"leMask\000"
 3906      736B00
 3907              	.LASF29:
 3908 1ca2 4359424C 		.ascii	"CYBLE_EVT_GAPP_ADVERTISEMENT_START_STOP\000"
 3908      455F4556 
 3908      545F4741 
 3908      50505F41 
 3908      44564552 
 3909              	.LASF9:
 3910 1cca 75696E74 		.ascii	"uint8\000"
 3910      3800
 3911              	.LASF322:
 3912 1cd0 6379426C 		.ascii	"cyBle_authInfo\000"
 3912      655F6175 
 3912      7468496E 
 3912      666F00
 3913              	.LASF37:
 3914 1cdf 4359424C 		.ascii	"CYBLE_EVT_GAP_KEYPRESS_NOTIFICATION\000"
 3914      455F4556 
 3914      545F4741 
 3914      505F4B45 
 3914      59505245 
 3915              	.LASF307:
 3916 1d03 4379426C 		.ascii	"CyBle_L2Cap_ConnParamUpdateRspEventHandler\000"
 3916      655F4C32 
 3916      4361705F 
 3916      436F6E6E 
 3916      50617261 
 3917              	.LASF200:
 3918 1d2e 4359424C 		.ascii	"CYBLE_GATT_WRITE_REQ\000"
 3918      455F4741 
 3918      54545F57 
 3918      52495445 
 3918      5F524551 
 3919              	.LASF2:
 3920 1d43 73686F72 		.ascii	"short int\000"
 3920      7420696E 
 3920      7400
 3921              	.LASF175:
ARM GAS  C:\Users\igreg\AppData\Local\Temp\ccnO9ZHN.s 			page 122


 3922 1d4d 61757468 		.ascii	"authErr\000"
 3922      45727200 
 3923              	.LASF331:
 3924 1d55 433A5C55 		.ascii	"C:\\Users\\igreg\\Documents\\PSoC4BLE_projects\\Day"
 3924      73657273 
 3924      5C696772 
 3924      65675C44 
 3924      6F63756D 
 3925 1d83 3030325F 		.ascii	"002_Heart_Rate_Sensor\\PSoC 4 BLE - Heart Rate Sens"
 3925      48656172 
 3925      745F5261 
 3925      74655F53 
 3925      656E736F 
 3926 1db5 6F725C50 		.ascii	"or\\PSoC 4 BLE_Heart_Rate_Sensor.cydsn\000"
 3926      536F4320 
 3926      3420424C 
 3926      455F4865 
 3926      6172745F 
 3927              	.LASF105:
 3928 1ddb 4359424C 		.ascii	"CYBLE_ERROR_HARDWARE_FAILURE\000"
 3928      455F4552 
 3928      524F525F 
 3928      48415244 
 3928      57415245 
 3929              	.LASF232:
 3930 1df8 4359424C 		.ascii	"CYBLE_GATT_ERR_CPS_INAPPROPRIATE_CONNECTION_PARAMET"
 3930      455F4741 
 3930      54545F45 
 3930      52525F43 
 3930      50535F49 
 3931 1e2b 45525300 		.ascii	"ERS\000"
 3932              	.LASF290:
 3933 1e2f 4359424C 		.ascii	"CYBLE_HRS_CHAR_COUNT\000"
 3933      455F4852 
 3933      535F4348 
 3933      41525F43 
 3933      4F554E54 
 3934              	.LASF218:
 3935 1e44 4359424C 		.ascii	"CYBLE_GATT_ERR_REQUEST_NOT_SUPPORTED\000"
 3935      455F4741 
 3935      54545F45 
 3935      52525F52 
 3935      45515545 
 3936              	.LASF43:
 3937 1e69 4359424C 		.ascii	"CYBLE_EVT_GATTC_ERROR_RSP\000"
 3937      455F4556 
 3937      545F4741 
 3937      5454435F 
 3937      4552524F 
 3938              	.LASF153:
 3939 1e83 4359424C 		.ascii	"CYBLE_GAP_IOCAP_KEYBOARD_DISPLAY\000"
 3939      455F4741 
 3939      505F494F 
 3939      4341505F 
 3939      4B455942 
 3940              	.LASF296:
 3941 1ea4 4359424C 		.ascii	"CYBLE_STATE_T\000"
ARM GAS  C:\Users\igreg\AppData\Local\Temp\ccnO9ZHN.s 			page 123


 3941      455F5354 
 3941      4154455F 
 3941      5400
 3942              	.LASF71:
 3943 1eb2 4359424C 		.ascii	"CYBLE_EVT_L2CAP_CBFC_CONN_IND\000"
 3943      455F4556 
 3943      545F4C32 
 3943      4341505F 
 3943      43424643 
 3944              	.LASF59:
 3945 1ed0 4359424C 		.ascii	"CYBLE_EVT_GATTS_EXEC_WRITE_REQ\000"
 3945      455F4556 
 3945      545F4741 
 3945      5454535F 
 3945      45584543 
 3946              	.LASF23:
 3947 1eef 4359424C 		.ascii	"CYBLE_EVT_GAPC_SCAN_PROGRESS_RESULT\000"
 3947      455F4556 
 3947      545F4741 
 3947      50435F53 
 3947      43414E5F 
 3948              	.LASF274:
 3949 1f13 63636364 		.ascii	"cccdCount\000"
 3949      436F756E 
 3949      7400
 3950              	.LASF245:
 3951 1f1d 4359424C 		.ascii	"CYBLE_GATT_ERR_ANCS_INVALID_PARAMETER\000"
 3951      455F4741 
 3951      54545F45 
 3951      52525F41 
 3951      4E43535F 
 3952              	.LASF91:
 3953 1f43 4359424C 		.ascii	"CYBLE_ERROR_GAP_ROLE\000"
 3953      455F4552 
 3953      524F525F 
 3953      4741505F 
 3953      524F4C45 
 3954              	.LASF318:
 3955 1f58 6379426C 		.ascii	"cyBle_stackMemoryRam\000"
 3955      655F7374 
 3955      61636B4D 
 3955      656D6F72 
 3955      7952616D 
 3956              	.LASF328:
 3957 1f6d 6379426C 		.ascii	"cyBle_advertisingIntervalType\000"
 3957      655F6164 
 3957      76657274 
 3957      6973696E 
 3957      67496E74 
 3958              	.LASF136:
 3959 1f8b 62644164 		.ascii	"bdAddr\000"
 3959      647200
 3960              	.LASF242:
 3961 1f92 4359424C 		.ascii	"CYBLE_GATT_ERR_ANS_COMMAND_NOT_SUPPORTED\000"
 3961      455F4741 
 3961      54545F45 
 3961      52525F41 
ARM GAS  C:\Users\igreg\AppData\Local\Temp\ccnO9ZHN.s 			page 124


 3961      4E535F43 
 3962              	.LASF308:
 3963 1fbb 72657370 		.ascii	"response\000"
 3963      6F6E7365 
 3963      00
 3964              	.LASF193:
 3965 1fc4 4359424C 		.ascii	"CYBLE_GATT_READ_RSP\000"
 3965      455F4741 
 3965      54545F52 
 3965      4541445F 
 3965      52535000 
 3966              	.LASF312:
 3967 1fd8 62644164 		.ascii	"bdAddrLoc\000"
 3967      64724C6F 
 3967      6300
 3968              	.LASF88:
 3969 1fe2 4359424C 		.ascii	"CYBLE_ERROR_NO_CONNECTION\000"
 3969      455F4552 
 3969      524F525F 
 3969      4E4F5F43 
 3969      4F4E4E45 
 3970              	.LASF118:
 3971 1ffc 4359424C 		.ascii	"CYBLE_LL_PWR_LVL_0_DBM\000"
 3971      455F4C4C 
 3971      5F505752 
 3971      5F4C564C 
 3971      5F305F44 
 3972              	.LASF122:
 3973 2013 4359424C 		.ascii	"CYBLE_LL_ADV_CH_TYPE\000"
 3973      455F4C4C 
 3973      5F414456 
 3973      5F43485F 
 3973      54595045 
 3974              	.LASF80:
 3975 2028 4359424C 		.ascii	"CYBLE_EVT_LE_PING_AUTH_TIMEOUT\000"
 3975      455F4556 
 3975      545F4C45 
 3975      5F50494E 
 3975      475F4155 
 3976              	.LASF323:
 3977 2047 6379426C 		.ascii	"cyBle_attValuesCCCD\000"
 3977      655F6174 
 3977      7456616C 
 3977      75657343 
 3977      43434400 
 3978              	.LASF62:
 3979 205b 4359424C 		.ascii	"CYBLE_EVT_GATTC_HANDLE_VALUE_IND\000"
 3979      455F4556 
 3979      545F4741 
 3979      5454435F 
 3979      48414E44 
 3980              	.LASF310:
 3981 207c 6576656E 		.ascii	"eventCode\000"
 3981      74436F64 
 3981      6500
 3982              	.LASF94:
 3983 2086 4359424C 		.ascii	"CYBLE_ERROR_SEC_FAILED\000"
ARM GAS  C:\Users\igreg\AppData\Local\Temp\ccnO9ZHN.s 			page 125


 3983      455F4552 
 3983      524F525F 
 3983      5345435F 
 3983      4641494C 
 3984              	.LASF21:
 3985 209d 4359424C 		.ascii	"CYBLE_EVT_STACK_BUSY_STATUS\000"
 3985      455F4556 
 3985      545F5354 
 3985      41434B5F 
 3985      42555359 
 3986              	.LASF180:
 3987 20b9 636F6E6E 		.ascii	"connLatency\000"
 3987      4C617465 
 3987      6E637900 
 3988              	.LASF166:
 3989 20c5 4359424C 		.ascii	"CYBLE_GAP_AUTH_ERROR_NUMERIC_COMPARISON_FAILED\000"
 3989      455F4741 
 3989      505F4155 
 3989      54485F45 
 3989      52524F52 
 3990              	.LASF150:
 3991 20f4 4359424C 		.ascii	"CYBLE_GAP_IOCAP_DISPLAY_YESNO\000"
 3991      455F4741 
 3991      505F494F 
 3991      4341505F 
 3991      44495350 
 3992              	.LASF35:
 3993 2112 4359424C 		.ascii	"CYBLE_EVT_GAP_KEYINFO_EXCHNGE_CMPLT\000"
 3993      455F4556 
 3993      545F4741 
 3993      505F4B45 
 3993      59494E46 
 3994              	.LASF205:
 3995 2136 4359424C 		.ascii	"CYBLE_GATT_EXECUTE_WRITE_REQ\000"
 3995      455F4741 
 3995      54545F45 
 3995      58454355 
 3995      54455F57 
 3996              	.LASF128:
 3997 2153 4359424C 		.ascii	"CYBLE_BLESS_PWR_IN_DB_T\000"
 3997      455F424C 
 3997      4553535F 
 3997      5057525F 
 3997      494E5F44 
 3998              	.LASF124:
 3999 216b 4359424C 		.ascii	"CYBLE_LL_MAX_CH_TYPE\000"
 3999      455F4C4C 
 3999      5F4D4158 
 3999      5F43485F 
 3999      54595045 
 4000              	.LASF68:
 4001 2180 4359424C 		.ascii	"CYBLE_EVT_L2CAP_CONN_PARAM_UPDATE_REQ\000"
 4001      455F4556 
 4001      545F4C32 
 4001      4341505F 
 4001      434F4E4E 
 4002              	.LASF131:
ARM GAS  C:\Users\igreg\AppData\Local\Temp\ccnO9ZHN.s 			page 126


 4003 21a6 4359424C 		.ascii	"CYBLE_PROTOCOL_REQ_T\000"
 4003      455F5052 
 4003      4F544F43 
 4003      4F4C5F52 
 4003      45515F54 
 4004              	.LASF297:
 4005 21bb 67617474 		.ascii	"gattErr\000"
 4005      45727200 
 4006              	.LASF215:
 4007 21c3 4359424C 		.ascii	"CYBLE_GATT_ERR_WRITE_NOT_PERMITTED\000"
 4007      455F4741 
 4007      54545F45 
 4007      52525F57 
 4007      52495445 
 4008              	.LASF179:
 4009 21e6 636F6E6E 		.ascii	"connIntv\000"
 4009      496E7476 
 4009      00
 4010              	.LASF3:
 4011 21ef 73686F72 		.ascii	"short unsigned int\000"
 4011      7420756E 
 4011      7369676E 
 4011      65642069 
 4011      6E7400
 4012              	.LASF227:
 4013 2202 4359424C 		.ascii	"CYBLE_GATT_ERR_INSUFFICIENT_ENCRYPTION\000"
 4013      455F4741 
 4013      54545F45 
 4013      52525F49 
 4013      4E535546 
 4014              	.LASF293:
 4015 2229 4359424C 		.ascii	"CYBLE_STATE_CONNECTED\000"
 4015      455F5354 
 4015      4154455F 
 4015      434F4E4E 
 4015      45435445 
 4016              	.LASF255:
 4017 223f 61637475 		.ascii	"actualLen\000"
 4017      616C4C65 
 4017      6E00
 4018              	.LASF198:
 4019 2249 4359424C 		.ascii	"CYBLE_GATT_READ_BY_GROUP_REQ\000"
 4019      455F4741 
 4019      54545F52 
 4019      4541445F 
 4019      42595F47 
 4020              	.LASF253:
 4021 2266 61747449 		.ascii	"attId\000"
 4021      6400
 4022              	.LASF84:
 4023 226c 4359424C 		.ascii	"CYBLE_ERROR_INVALID_OPERATION\000"
 4023      455F4552 
 4023      524F525F 
 4023      494E5641 
 4023      4C49445F 
 4024              	.LASF20:
 4025 228a 4359424C 		.ascii	"CYBLE_EVT_HCI_STATUS\000"
ARM GAS  C:\Users\igreg\AppData\Local\Temp\ccnO9ZHN.s 			page 127


 4025      455F4556 
 4025      545F4843 
 4025      495F5354 
 4025      41545553 
 4026              	.LASF45:
 4027 229f 4359424C 		.ascii	"CYBLE_EVT_GATT_DISCONNECT_IND\000"
 4027      455F4556 
 4027      545F4741 
 4027      54545F44 
 4027      4953434F 
 4028              	.LASF181:
 4029 22bd 73757065 		.ascii	"supervisionTO\000"
 4029      72766973 
 4029      696F6E54 
 4029      4F00
 4030              	.LASF141:
 4031 22cb 4359424C 		.ascii	"CYBLE_GATT_RSP_TO\000"
 4031      455F4741 
 4031      54545F52 
 4031      53505F54 
 4031      4F00
 4032              	.LASF78:
 4033 22dd 4359424C 		.ascii	"CYBLE_EVT_L2CAP_CBFC_DATA_WRITE_IND\000"
 4033      455F4556 
 4033      545F4C32 
 4033      4341505F 
 4033      43424643 
 4034              	.LASF67:
 4035 2301 4359424C 		.ascii	"CYBLE_EVT_GATTC_LONG_PROCEDURE_END\000"
 4035      455F4556 
 4035      545F4741 
 4035      5454435F 
 4035      4C4F4E47 
 4036              	.LASF31:
 4037 2324 4359424C 		.ascii	"CYBLE_EVT_GAP_DEVICE_DISCONNECTED\000"
 4037      455F4556 
 4037      545F4741 
 4037      505F4445 
 4037      56494345 
 4038              	.LASF63:
 4039 2346 4359424C 		.ascii	"CYBLE_EVT_GATTS_HANDLE_VALUE_CNF\000"
 4039      455F4556 
 4039      545F4741 
 4039      5454535F 
 4039      48414E44 
 4040              	.LASF10:
 4041 2367 75696E74 		.ascii	"uint16\000"
 4041      313600
 4042              	.LASF92:
 4043 236e 4359424C 		.ascii	"CYBLE_ERROR_TX_POWER_READ\000"
 4043      455F4552 
 4043      524F525F 
 4043      54585F50 
 4043      4F574552 
 4044              		.ident	"GCC: (GNU Tools for ARM Embedded Processors) 4.9.3 20150303 (release) [ARM/embedded-4_9-br
