ARM GAS  C:\Users\igreg\AppData\Local\Temp\ccnO9ZHN.s 			page 1


   1              		.cpu cortex-m0
   2              		.fpu softvfp
   3              		.eabi_attribute 20, 1
   4              		.eabi_attribute 21, 1
   5              		.eabi_attribute 23, 3
   6              		.eabi_attribute 24, 1
   7              		.eabi_attribute 25, 1
   8              		.eabi_attribute 26, 1
   9              		.eabi_attribute 30, 6
  10              		.eabi_attribute 34, 0
  11              		.eabi_attribute 18, 4
  12              		.code	16
  13              		.file	"CYBLE_eventHandler.c"
  14              		.text
  15              	.Ltext0:
  16              		.cfi_sections	.debug_frame
  17              		.comm	cyBle_connHandle,2,4
  18              		.comm	cyBle_eventHandlerFlag,1,1
  19              		.comm	cyBle_busyStatus,1,1
  20              		.comm	cyBle_advertisingIntervalType,1,1
  21              		.global	cyBle_authInfo
  22              		.data
  23              		.align	2
  24              		.type	cyBle_authInfo, %object
  25              		.size	cyBle_authInfo, 5
  26              	cyBle_authInfo:
  27 0000 10       		.byte	16
  28 0001 00       		.byte	0
  29 0002 10       		.byte	16
  30 0003 00       		.byte	0
  31 0004 00       		.byte	0
  32 0005 000000   		.section	.text.CyBle_WriteReqHandler,"ax",%progbits
  33              		.align	2
  34              		.code	16
  35              		.thumb_func
  36              		.type	CyBle_WriteReqHandler, %function
  37              	CyBle_WriteReqHandler:
  38              	.LFB2:
  39              		.file 1 ".\\Generated_Source\\PSoC4\\CYBLE_eventHandler.c"
   1:.\Generated_Source\PSoC4/CYBLE_eventHandler.c **** /***************************************************************************//**
   2:.\Generated_Source\PSoC4/CYBLE_eventHandler.c **** * \file CYBLE_eventHandler.c
   3:.\Generated_Source\PSoC4/CYBLE_eventHandler.c **** * \version 3.0
   4:.\Generated_Source\PSoC4/CYBLE_eventHandler.c **** * 
   5:.\Generated_Source\PSoC4/CYBLE_eventHandler.c **** * \brief
   6:.\Generated_Source\PSoC4/CYBLE_eventHandler.c **** *  This file contains the source code for the Event Handler State Machine
   7:.\Generated_Source\PSoC4/CYBLE_eventHandler.c **** *  of the BLE Component.
   8:.\Generated_Source\PSoC4/CYBLE_eventHandler.c **** * 
   9:.\Generated_Source\PSoC4/CYBLE_eventHandler.c **** ********************************************************************************
  10:.\Generated_Source\PSoC4/CYBLE_eventHandler.c **** * \copyright
  11:.\Generated_Source\PSoC4/CYBLE_eventHandler.c **** * Copyright 2014-2015, Cypress Semiconductor Corporation.  All rights reserved.
  12:.\Generated_Source\PSoC4/CYBLE_eventHandler.c **** * You may use this file only in accordance with the license, terms, conditions,
  13:.\Generated_Source\PSoC4/CYBLE_eventHandler.c **** * disclaimers, and limitations in the end user license agreement accompanying
  14:.\Generated_Source\PSoC4/CYBLE_eventHandler.c **** * the software package with which this file was provided.
  15:.\Generated_Source\PSoC4/CYBLE_eventHandler.c **** *******************************************************************************/
  16:.\Generated_Source\PSoC4/CYBLE_eventHandler.c **** 
  17:.\Generated_Source\PSoC4/CYBLE_eventHandler.c **** #include "CYBLE_eventHandler.h"
  18:.\Generated_Source\PSoC4/CYBLE_eventHandler.c **** 
ARM GAS  C:\Users\igreg\AppData\Local\Temp\ccnO9ZHN.s 			page 2


  19:.\Generated_Source\PSoC4/CYBLE_eventHandler.c **** 
  20:.\Generated_Source\PSoC4/CYBLE_eventHandler.c **** /***************************************
  21:.\Generated_Source\PSoC4/CYBLE_eventHandler.c **** * Private Function Prototypes
  22:.\Generated_Source\PSoC4/CYBLE_eventHandler.c **** ***************************************/
  23:.\Generated_Source\PSoC4/CYBLE_eventHandler.c **** 
  24:.\Generated_Source\PSoC4/CYBLE_eventHandler.c **** static void CyBle_GattDisconnectEventHandler(void);
  25:.\Generated_Source\PSoC4/CYBLE_eventHandler.c **** static void CyBle_TimeOutEventHandler(const CYBLE_TO_REASON_CODE_T *eventParam);
  26:.\Generated_Source\PSoC4/CYBLE_eventHandler.c **** static void CyBle_GattConnectReqHandler(void);
  27:.\Generated_Source\PSoC4/CYBLE_eventHandler.c **** static void CyBle_L2Cap_ConnParamUpdateRspEventHandler(uint16 response);
  28:.\Generated_Source\PSoC4/CYBLE_eventHandler.c **** static void CyBle_GapConnUpdateCompleteEventHandler(const CYBLE_GAP_CONN_PARAM_UPDATED_IN_CONTROLLE
  29:.\Generated_Source\PSoC4/CYBLE_eventHandler.c **** 
  30:.\Generated_Source\PSoC4/CYBLE_eventHandler.c **** 
  31:.\Generated_Source\PSoC4/CYBLE_eventHandler.c **** #if (CYBLE_GATT_ROLE_SERVER)
  32:.\Generated_Source\PSoC4/CYBLE_eventHandler.c **** 
  33:.\Generated_Source\PSoC4/CYBLE_eventHandler.c **** static void CyBle_WriteReqHandler(CYBLE_GATTS_WRITE_REQ_PARAM_T *eventParam);
  34:.\Generated_Source\PSoC4/CYBLE_eventHandler.c **** static void CyBle_ValueConfirmation(const CYBLE_CONN_HANDLE_T *eventParam);
  35:.\Generated_Source\PSoC4/CYBLE_eventHandler.c **** 
  36:.\Generated_Source\PSoC4/CYBLE_eventHandler.c **** #endif /* CYBLE_GATT_ROLE_SERVER */
  37:.\Generated_Source\PSoC4/CYBLE_eventHandler.c **** 
  38:.\Generated_Source\PSoC4/CYBLE_eventHandler.c **** #if (CYBLE_GATT_ROLE_CLIENT)
  39:.\Generated_Source\PSoC4/CYBLE_eventHandler.c **** 
  40:.\Generated_Source\PSoC4/CYBLE_eventHandler.c **** static void CyBle_GapcDiscoverCharacteristicsEventHandler(CYBLE_DISC_CHAR_INFO_T *discCharInfo);
  41:.\Generated_Source\PSoC4/CYBLE_eventHandler.c **** static CYBLE_GATT_ATTR_HANDLE_RANGE_T CyBle_GetCharRange(void);
  42:.\Generated_Source\PSoC4/CYBLE_eventHandler.c **** static void CyBle_GattcWriteResponseEventHandler(const CYBLE_CONN_HANDLE_T *eventParam);
  43:.\Generated_Source\PSoC4/CYBLE_eventHandler.c **** static void CyBle_NotificationEventHandler(CYBLE_GATTC_HANDLE_VALUE_NTF_PARAM_T *eventParam);
  44:.\Generated_Source\PSoC4/CYBLE_eventHandler.c **** static void CyBle_IndicationEventHandler(CYBLE_GATTC_HANDLE_VALUE_IND_PARAM_T *eventParam);
  45:.\Generated_Source\PSoC4/CYBLE_eventHandler.c **** static void CyBle_ReadResponseEventHandler(CYBLE_GATTC_READ_RSP_PARAM_T *eventParam);
  46:.\Generated_Source\PSoC4/CYBLE_eventHandler.c **** 
  47:.\Generated_Source\PSoC4/CYBLE_eventHandler.c **** #endif /* CYBLE_GATT_ROLE_CLIENT */
  48:.\Generated_Source\PSoC4/CYBLE_eventHandler.c **** 
  49:.\Generated_Source\PSoC4/CYBLE_eventHandler.c **** 
  50:.\Generated_Source\PSoC4/CYBLE_eventHandler.c **** /***************************************
  51:.\Generated_Source\PSoC4/CYBLE_eventHandler.c **** * Global Variables
  52:.\Generated_Source\PSoC4/CYBLE_eventHandler.c **** ***************************************/
  53:.\Generated_Source\PSoC4/CYBLE_eventHandler.c **** 
  54:.\Generated_Source\PSoC4/CYBLE_eventHandler.c **** /* This global variable is initialized after connection with peer device, 
  55:.\Generated_Source\PSoC4/CYBLE_eventHandler.c ****    after CYBLE_EVT_GATT_CONNECT_IND event, and could be used by application code
  56:.\Generated_Source\PSoC4/CYBLE_eventHandler.c ****    to send data to peer device. 
  57:.\Generated_Source\PSoC4/CYBLE_eventHandler.c **** */
  58:.\Generated_Source\PSoC4/CYBLE_eventHandler.c **** CYBLE_CONN_HANDLE_T cyBle_connHandle;
  59:.\Generated_Source\PSoC4/CYBLE_eventHandler.c **** 
  60:.\Generated_Source\PSoC4/CYBLE_eventHandler.c **** volatile uint8 cyBle_eventHandlerFlag;
  61:.\Generated_Source\PSoC4/CYBLE_eventHandler.c **** volatile uint8 cyBle_busyStatus;
  62:.\Generated_Source\PSoC4/CYBLE_eventHandler.c **** 
  63:.\Generated_Source\PSoC4/CYBLE_eventHandler.c **** #if(CYBLE_GAP_ROLE_PERIPHERAL || CYBLE_GAP_ROLE_BROADCASTER) 
  64:.\Generated_Source\PSoC4/CYBLE_eventHandler.c ****     uint8 cyBle_advertisingIntervalType;
  65:.\Generated_Source\PSoC4/CYBLE_eventHandler.c **** #endif /* CYBLE_GAP_ROLE_PERIPHERAL || CYBLE_GAP_ROLE_BROADCASTER) */
  66:.\Generated_Source\PSoC4/CYBLE_eventHandler.c **** 
  67:.\Generated_Source\PSoC4/CYBLE_eventHandler.c **** #if(CYBLE_GAP_ROLE_CENTRAL || CYBLE_GAP_ROLE_OBSERVER) 
  68:.\Generated_Source\PSoC4/CYBLE_eventHandler.c ****     uint8 cyBle_scanningIntervalType;
  69:.\Generated_Source\PSoC4/CYBLE_eventHandler.c **** #endif /* CYBLE_GAP_ROLE_CENTRAL || CYBLE_GAP_ROLE_OBSERVER */
  70:.\Generated_Source\PSoC4/CYBLE_eventHandler.c **** 
  71:.\Generated_Source\PSoC4/CYBLE_eventHandler.c **** #if(CYBLE_GATT_ROLE_SERVER)
  72:.\Generated_Source\PSoC4/CYBLE_eventHandler.c **** #if defined CYBLE_CTS_SERVER || defined CYBLE_ESS_SERVER
  73:.\Generated_Source\PSoC4/CYBLE_eventHandler.c **** CYBLE_GATT_ERR_CODE_T cyBle_gattError;
  74:.\Generated_Source\PSoC4/CYBLE_eventHandler.c **** #endif /* defined CYBLE_CTS_SERVER || defined CYBLE_ESS_SERVER */
  75:.\Generated_Source\PSoC4/CYBLE_eventHandler.c **** #endif /* CYBLE_GATT_ROLE_SERVER */
ARM GAS  C:\Users\igreg\AppData\Local\Temp\ccnO9ZHN.s 			page 3


  76:.\Generated_Source\PSoC4/CYBLE_eventHandler.c **** 
  77:.\Generated_Source\PSoC4/CYBLE_eventHandler.c **** #if(CYBLE_GATT_ROLE_CLIENT)
  78:.\Generated_Source\PSoC4/CYBLE_eventHandler.c **** uint8 cyBle_disCount; /* Counter for discovery procedures */
  79:.\Generated_Source\PSoC4/CYBLE_eventHandler.c **** static CYBLE_GATT_DB_ATTR_HANDLE_T cyBle_charEndHandle;
  80:.\Generated_Source\PSoC4/CYBLE_eventHandler.c **** /* Discovery included service information, used for 128-bit UUID read response handle 
  81:.\Generated_Source\PSoC4/CYBLE_eventHandler.c ****    and for continue discovery. 
  82:.\Generated_Source\PSoC4/CYBLE_eventHandler.c **** */
  83:.\Generated_Source\PSoC4/CYBLE_eventHandler.c **** static CYBLE_DISC_INCL_INFO_T cyBle_discInclInfo;
  84:.\Generated_Source\PSoC4/CYBLE_eventHandler.c **** #ifdef CYBLE_HIDS_CLIENT
  85:.\Generated_Source\PSoC4/CYBLE_eventHandler.c ****     static uint8 disServiceIndex;      /* To discovery descriptors for multiple HID service instanc
  86:.\Generated_Source\PSoC4/CYBLE_eventHandler.c **** #endif /* CYBLE_HIDS_CLIENT */
  87:.\Generated_Source\PSoC4/CYBLE_eventHandler.c **** 
  88:.\Generated_Source\PSoC4/CYBLE_eventHandler.c **** CYBLE_DISC_SRVC_INFO_T cyBle_serverInfo[CYBLE_SRVI_COUNT] = /*4*/
  89:.\Generated_Source\PSoC4/CYBLE_eventHandler.c **** {
  90:.\Generated_Source\PSoC4/CYBLE_eventHandler.c ****     {{CYBLE_GATT_INVALID_ATTR_HANDLE_VALUE, CYBLE_GATT_INVALID_ATTR_HANDLE_VALUE}, CYBLE_UUID_GAP_S
  91:.\Generated_Source\PSoC4/CYBLE_eventHandler.c ****     {{CYBLE_GATT_INVALID_ATTR_HANDLE_VALUE, CYBLE_GATT_INVALID_ATTR_HANDLE_VALUE}, CYBLE_UUID_GATT_
  92:.\Generated_Source\PSoC4/CYBLE_eventHandler.c **** #ifdef CYBLE_ANCS_CLIENT
  93:.\Generated_Source\PSoC4/CYBLE_eventHandler.c ****     {{CYBLE_GATT_INVALID_ATTR_HANDLE_VALUE, CYBLE_GATT_INVALID_ATTR_HANDLE_VALUE}, 0x0000u},
  94:.\Generated_Source\PSoC4/CYBLE_eventHandler.c **** #endif /* CYBLE_ANCS_CLIENT */
  95:.\Generated_Source\PSoC4/CYBLE_eventHandler.c **** #ifdef CYBLE_ANS_CLIENT
  96:.\Generated_Source\PSoC4/CYBLE_eventHandler.c ****     {{CYBLE_GATT_INVALID_ATTR_HANDLE_VALUE, CYBLE_GATT_INVALID_ATTR_HANDLE_VALUE}, 
  97:.\Generated_Source\PSoC4/CYBLE_eventHandler.c ****         CYBLE_UUID_ALERT_NOTIFICATION_SERVICE},
  98:.\Generated_Source\PSoC4/CYBLE_eventHandler.c **** #endif /* CYBLE_ANS_CLIENT */
  99:.\Generated_Source\PSoC4/CYBLE_eventHandler.c **** #ifdef CYBLE_BAS_CLIENT
 100:.\Generated_Source\PSoC4/CYBLE_eventHandler.c ****     {{CYBLE_GATT_INVALID_ATTR_HANDLE_VALUE, CYBLE_GATT_INVALID_ATTR_HANDLE_VALUE}, CYBLE_UUID_BAS_S
 101:.\Generated_Source\PSoC4/CYBLE_eventHandler.c ****     #if(CYBLE_BASC_SERVICE_COUNT > 1u) /* Generate it by GUI */
 102:.\Generated_Source\PSoC4/CYBLE_eventHandler.c ****         
 103:.\Generated_Source\PSoC4/CYBLE_eventHandler.c ****     #endif /* CYBLE_BASC_SERVICE_COUNT > 1u */
 104:.\Generated_Source\PSoC4/CYBLE_eventHandler.c **** #endif /* CYBLE_BAS_CLIENT */
 105:.\Generated_Source\PSoC4/CYBLE_eventHandler.c **** #ifdef CYBLE_BCS_CLIENT
 106:.\Generated_Source\PSoC4/CYBLE_eventHandler.c ****     {{CYBLE_GATT_INVALID_ATTR_HANDLE_VALUE, CYBLE_GATT_INVALID_ATTR_HANDLE_VALUE}, CYBLE_UUID_BODY_
 107:.\Generated_Source\PSoC4/CYBLE_eventHandler.c **** #endif /* CYBLE_BCS_CLIENT */
 108:.\Generated_Source\PSoC4/CYBLE_eventHandler.c **** #ifdef CYBLE_BLS_CLIENT
 109:.\Generated_Source\PSoC4/CYBLE_eventHandler.c ****     {{CYBLE_GATT_INVALID_ATTR_HANDLE_VALUE, CYBLE_GATT_INVALID_ATTR_HANDLE_VALUE}, CYBLE_UUID_BLOOD
 110:.\Generated_Source\PSoC4/CYBLE_eventHandler.c **** #endif /* CYBLE_BLS_CLIENT */
 111:.\Generated_Source\PSoC4/CYBLE_eventHandler.c **** #ifdef CYBLE_BMS_CLIENT
 112:.\Generated_Source\PSoC4/CYBLE_eventHandler.c ****     {{CYBLE_GATT_INVALID_ATTR_HANDLE_VALUE, CYBLE_GATT_INVALID_ATTR_HANDLE_VALUE}, CYBLE_UUID_BOND_
 113:.\Generated_Source\PSoC4/CYBLE_eventHandler.c **** #endif /* CYBLE_BMS_CLIENT */
 114:.\Generated_Source\PSoC4/CYBLE_eventHandler.c **** #ifdef CYBLE_CGMS_CLIENT
 115:.\Generated_Source\PSoC4/CYBLE_eventHandler.c ****     {{CYBLE_GATT_INVALID_ATTR_HANDLE_VALUE, CYBLE_GATT_INVALID_ATTR_HANDLE_VALUE}, CYBLE_UUID_CGM_S
 116:.\Generated_Source\PSoC4/CYBLE_eventHandler.c **** #endif /* CYBLE_CGMS_CLIENT */
 117:.\Generated_Source\PSoC4/CYBLE_eventHandler.c **** #ifdef CYBLE_CPS_CLIENT
 118:.\Generated_Source\PSoC4/CYBLE_eventHandler.c ****     {{CYBLE_GATT_INVALID_ATTR_HANDLE_VALUE, CYBLE_GATT_INVALID_ATTR_HANDLE_VALUE}, CYBLE_UUID_CPS_S
 119:.\Generated_Source\PSoC4/CYBLE_eventHandler.c **** #endif /* CYBLE_CPS_CLIENT */
 120:.\Generated_Source\PSoC4/CYBLE_eventHandler.c **** #ifdef CYBLE_CSCS_CLIENT
 121:.\Generated_Source\PSoC4/CYBLE_eventHandler.c ****     {{CYBLE_GATT_INVALID_ATTR_HANDLE_VALUE, CYBLE_GATT_INVALID_ATTR_HANDLE_VALUE}, 
 122:.\Generated_Source\PSoC4/CYBLE_eventHandler.c ****         CYBLE_UUID_CYCLING_SPEED_AND_CADENCE_SERVICE},
 123:.\Generated_Source\PSoC4/CYBLE_eventHandler.c **** #endif /* CYBLE_CSCS_CLIENT */
 124:.\Generated_Source\PSoC4/CYBLE_eventHandler.c **** #ifdef CYBLE_CTS_CLIENT
 125:.\Generated_Source\PSoC4/CYBLE_eventHandler.c ****     {{CYBLE_GATT_INVALID_ATTR_HANDLE_VALUE, CYBLE_GATT_INVALID_ATTR_HANDLE_VALUE}, CYBLE_UUID_CURRE
 126:.\Generated_Source\PSoC4/CYBLE_eventHandler.c **** #endif /* CYBLE_CTS_CLIENT */
 127:.\Generated_Source\PSoC4/CYBLE_eventHandler.c **** #ifdef CYBLE_CUSTOM_CLIENT
 128:.\Generated_Source\PSoC4/CYBLE_eventHandler.c ****     
 129:.\Generated_Source\PSoC4/CYBLE_eventHandler.c **** #endif /* CYBLE_CUSTOM_CLIENT */
 130:.\Generated_Source\PSoC4/CYBLE_eventHandler.c **** #ifdef CYBLE_DIS_CLIENT
 131:.\Generated_Source\PSoC4/CYBLE_eventHandler.c ****     {{CYBLE_GATT_INVALID_ATTR_HANDLE_VALUE, CYBLE_GATT_INVALID_ATTR_HANDLE_VALUE}, CYBLE_UUID_DEVIC
 132:.\Generated_Source\PSoC4/CYBLE_eventHandler.c **** #endif /* CYBLE_DIS_CLIENT */
ARM GAS  C:\Users\igreg\AppData\Local\Temp\ccnO9ZHN.s 			page 4


 133:.\Generated_Source\PSoC4/CYBLE_eventHandler.c **** #ifdef CYBLE_ESS_CLIENT
 134:.\Generated_Source\PSoC4/CYBLE_eventHandler.c ****     {{CYBLE_GATT_INVALID_ATTR_HANDLE_VALUE, CYBLE_GATT_INVALID_ATTR_HANDLE_VALUE}, 
 135:.\Generated_Source\PSoC4/CYBLE_eventHandler.c ****         CYBLE_UUID_ENVIRONMENTAL_SENSING_SERVICE},
 136:.\Generated_Source\PSoC4/CYBLE_eventHandler.c **** #endif /* CYBLE_ESS_CLIENT */
 137:.\Generated_Source\PSoC4/CYBLE_eventHandler.c **** #ifdef CYBLE_GLS_CLIENT
 138:.\Generated_Source\PSoC4/CYBLE_eventHandler.c ****     {{CYBLE_GATT_INVALID_ATTR_HANDLE_VALUE, CYBLE_GATT_INVALID_ATTR_HANDLE_VALUE}, CYBLE_UUID_GLUCO
 139:.\Generated_Source\PSoC4/CYBLE_eventHandler.c **** #endif /* CYBLE_GLS_CLIENT */
 140:.\Generated_Source\PSoC4/CYBLE_eventHandler.c **** #ifdef CYBLE_HIDS_CLIENT
 141:.\Generated_Source\PSoC4/CYBLE_eventHandler.c ****     {{CYBLE_GATT_INVALID_ATTR_HANDLE_VALUE, CYBLE_GATT_INVALID_ATTR_HANDLE_VALUE}, CYBLE_UUID_HIDS_
 142:.\Generated_Source\PSoC4/CYBLE_eventHandler.c ****     #if(CYBLE_HIDSC_SERVICE_COUNT > 1u) /* Generate it by GUI */
 143:.\Generated_Source\PSoC4/CYBLE_eventHandler.c ****         
 144:.\Generated_Source\PSoC4/CYBLE_eventHandler.c ****     #endif /* CYBLE_HIDSC_SERVICE_COUNT > 1u */
 145:.\Generated_Source\PSoC4/CYBLE_eventHandler.c **** #endif /* CYBLE_HIDS_CLIENT */
 146:.\Generated_Source\PSoC4/CYBLE_eventHandler.c **** #ifdef CYBLE_HPS_CLIENT
 147:.\Generated_Source\PSoC4/CYBLE_eventHandler.c ****     {{CYBLE_GATT_INVALID_ATTR_HANDLE_VALUE, CYBLE_GATT_INVALID_ATTR_HANDLE_VALUE}, CYBLE_UUID_HTTP_
 148:.\Generated_Source\PSoC4/CYBLE_eventHandler.c **** #endif /* CYBLE_HPS_CLIENT */
 149:.\Generated_Source\PSoC4/CYBLE_eventHandler.c **** #ifdef CYBLE_HRS_CLIENT
 150:.\Generated_Source\PSoC4/CYBLE_eventHandler.c ****     {{CYBLE_GATT_INVALID_ATTR_HANDLE_VALUE, CYBLE_GATT_INVALID_ATTR_HANDLE_VALUE}, CYBLE_UUID_HEART
 151:.\Generated_Source\PSoC4/CYBLE_eventHandler.c **** #endif /* CYBLE_HRS_CLIENT */
 152:.\Generated_Source\PSoC4/CYBLE_eventHandler.c **** #ifdef CYBLE_HTS_CLIENT
 153:.\Generated_Source\PSoC4/CYBLE_eventHandler.c ****     {{CYBLE_GATT_INVALID_ATTR_HANDLE_VALUE, CYBLE_GATT_INVALID_ATTR_HANDLE_VALUE}, CYBLE_UUID_HEALT
 154:.\Generated_Source\PSoC4/CYBLE_eventHandler.c **** #endif /* CYBLE_HTS_CLIENT */
 155:.\Generated_Source\PSoC4/CYBLE_eventHandler.c **** #ifdef CYBLE_IAS_CLIENT
 156:.\Generated_Source\PSoC4/CYBLE_eventHandler.c ****     {{CYBLE_GATT_INVALID_ATTR_HANDLE_VALUE, CYBLE_GATT_INVALID_ATTR_HANDLE_VALUE}, CYBLE_UUID_IMMED
 157:.\Generated_Source\PSoC4/CYBLE_eventHandler.c **** #endif /* CYBLE_IAS_CLIENT */
 158:.\Generated_Source\PSoC4/CYBLE_eventHandler.c **** #ifdef CYBLE_LLS_CLIENT
 159:.\Generated_Source\PSoC4/CYBLE_eventHandler.c ****     {{CYBLE_GATT_INVALID_ATTR_HANDLE_VALUE, CYBLE_GATT_INVALID_ATTR_HANDLE_VALUE}, CYBLE_UUID_LINK_
 160:.\Generated_Source\PSoC4/CYBLE_eventHandler.c **** #endif /* CYBLE_LLS_CLIENT */
 161:.\Generated_Source\PSoC4/CYBLE_eventHandler.c **** #ifdef CYBLE_LNS_CLIENT
 162:.\Generated_Source\PSoC4/CYBLE_eventHandler.c ****     {{CYBLE_GATT_INVALID_ATTR_HANDLE_VALUE, CYBLE_GATT_INVALID_ATTR_HANDLE_VALUE}, CYBLE_UUID_LOCAT
 163:.\Generated_Source\PSoC4/CYBLE_eventHandler.c **** #endif /* CYBLE_LNS_CLIENT */
 164:.\Generated_Source\PSoC4/CYBLE_eventHandler.c **** #ifdef CYBLE_NDCS_CLIENT
 165:.\Generated_Source\PSoC4/CYBLE_eventHandler.c ****     {{CYBLE_GATT_INVALID_ATTR_HANDLE_VALUE, CYBLE_GATT_INVALID_ATTR_HANDLE_VALUE}, CYBLE_UUID_NEXT_
 166:.\Generated_Source\PSoC4/CYBLE_eventHandler.c **** #endif /* CYBLE_NDCS_CLIENT */
 167:.\Generated_Source\PSoC4/CYBLE_eventHandler.c **** #ifdef CYBLE_IPSS_CLIENT
 168:.\Generated_Source\PSoC4/CYBLE_eventHandler.c ****     {{CYBLE_GATT_INVALID_ATTR_HANDLE_VALUE, CYBLE_GATT_INVALID_ATTR_HANDLE_VALUE}, CYBLE_UUID_INTER
 169:.\Generated_Source\PSoC4/CYBLE_eventHandler.c **** #endif /* CYBLE_IPSS_CLIENT */
 170:.\Generated_Source\PSoC4/CYBLE_eventHandler.c **** #ifdef CYBLE_PASS_CLIENT
 171:.\Generated_Source\PSoC4/CYBLE_eventHandler.c ****     {{CYBLE_GATT_INVALID_ATTR_HANDLE_VALUE, CYBLE_GATT_INVALID_ATTR_HANDLE_VALUE}, CYBLE_UUID_PHONE
 172:.\Generated_Source\PSoC4/CYBLE_eventHandler.c **** #endif /* CYBLE_PASS_CLIENT */
 173:.\Generated_Source\PSoC4/CYBLE_eventHandler.c **** #ifdef CYBLE_RSCS_CLIENT
 174:.\Generated_Source\PSoC4/CYBLE_eventHandler.c ****     {{CYBLE_GATT_INVALID_ATTR_HANDLE_VALUE, CYBLE_GATT_INVALID_ATTR_HANDLE_VALUE}, CYBLE_UUID_RUNNI
 175:.\Generated_Source\PSoC4/CYBLE_eventHandler.c **** #endif /* CYBLE_RSCS_CLIENT */
 176:.\Generated_Source\PSoC4/CYBLE_eventHandler.c **** #ifdef CYBLE_RTUS_CLIENT
 177:.\Generated_Source\PSoC4/CYBLE_eventHandler.c ****     {{CYBLE_GATT_INVALID_ATTR_HANDLE_VALUE, CYBLE_GATT_INVALID_ATTR_HANDLE_VALUE}, CYBLE_UUID_REF_T
 178:.\Generated_Source\PSoC4/CYBLE_eventHandler.c **** #endif /* CYBLE_RTUS_CLIENT */
 179:.\Generated_Source\PSoC4/CYBLE_eventHandler.c **** #ifdef CYBLE_SCPS_CLIENT
 180:.\Generated_Source\PSoC4/CYBLE_eventHandler.c ****     {{CYBLE_GATT_INVALID_ATTR_HANDLE_VALUE, CYBLE_GATT_INVALID_ATTR_HANDLE_VALUE}, CYBLE_UUID_SCAN_
 181:.\Generated_Source\PSoC4/CYBLE_eventHandler.c **** #endif /* CYBLE_SCPS_CLIENT */
 182:.\Generated_Source\PSoC4/CYBLE_eventHandler.c **** #ifdef CYBLE_TPS_CLIENT
 183:.\Generated_Source\PSoC4/CYBLE_eventHandler.c ****     {{CYBLE_GATT_INVALID_ATTR_HANDLE_VALUE, CYBLE_GATT_INVALID_ATTR_HANDLE_VALUE}, CYBLE_UUID_TX_PO
 184:.\Generated_Source\PSoC4/CYBLE_eventHandler.c **** #endif /* CYBLE_TPS_CLIENT */
 185:.\Generated_Source\PSoC4/CYBLE_eventHandler.c **** #ifdef CYBLE_UDS_CLIENT
 186:.\Generated_Source\PSoC4/CYBLE_eventHandler.c ****     {{CYBLE_GATT_INVALID_ATTR_HANDLE_VALUE, CYBLE_GATT_INVALID_ATTR_HANDLE_VALUE}, CYBLE_UUID_USER_
 187:.\Generated_Source\PSoC4/CYBLE_eventHandler.c **** #endif /* CYBLE_UDS_CLIENT */
 188:.\Generated_Source\PSoC4/CYBLE_eventHandler.c **** #ifdef CYBLE_WSS_CLIENT
 189:.\Generated_Source\PSoC4/CYBLE_eventHandler.c ****     {{CYBLE_GATT_INVALID_ATTR_HANDLE_VALUE, CYBLE_GATT_INVALID_ATTR_HANDLE_VALUE}, CYBLE_UUID_WEIGH
ARM GAS  C:\Users\igreg\AppData\Local\Temp\ccnO9ZHN.s 			page 5


 190:.\Generated_Source\PSoC4/CYBLE_eventHandler.c **** #endif /* CYBLE_WSS_CLIENT */
 191:.\Generated_Source\PSoC4/CYBLE_eventHandler.c **** #ifdef CYBLE_WPTS_CLIENT
 192:.\Generated_Source\PSoC4/CYBLE_eventHandler.c ****     {{CYBLE_GATT_INVALID_ATTR_HANDLE_VALUE, CYBLE_GATT_INVALID_ATTR_HANDLE_VALUE}, CYBLE_UUID_WIREL
 193:.\Generated_Source\PSoC4/CYBLE_eventHandler.c **** #endif /* CYBLE_WPTS_CLIENT */
 194:.\Generated_Source\PSoC4/CYBLE_eventHandler.c **** };
 195:.\Generated_Source\PSoC4/CYBLE_eventHandler.c **** 
 196:.\Generated_Source\PSoC4/CYBLE_eventHandler.c **** CYBLE_GAPC_T cyBle_gapc;
 197:.\Generated_Source\PSoC4/CYBLE_eventHandler.c **** 
 198:.\Generated_Source\PSoC4/CYBLE_eventHandler.c **** #endif /* CYBLE_GATT_ROLE_CLIENT */
 199:.\Generated_Source\PSoC4/CYBLE_eventHandler.c **** 
 200:.\Generated_Source\PSoC4/CYBLE_eventHandler.c **** /* Default device security */
 201:.\Generated_Source\PSoC4/CYBLE_eventHandler.c **** CYBLE_GAP_AUTH_INFO_T cyBle_authInfo =
 202:.\Generated_Source\PSoC4/CYBLE_eventHandler.c **** {
 203:.\Generated_Source\PSoC4/CYBLE_eventHandler.c ****     (CYBLE_GAP_SEC_MODE_1 | CYBLE_GAP_SEC_LEVEL_1 ), /* uint8 security */
 204:.\Generated_Source\PSoC4/CYBLE_eventHandler.c ****     CYBLE_GAP_BONDING_NONE, /* uint8 bonding */
 205:.\Generated_Source\PSoC4/CYBLE_eventHandler.c ****     0x10u,      /* uint8 ekeySize */
 206:.\Generated_Source\PSoC4/CYBLE_eventHandler.c ****     CYBLE_GAP_AUTH_ERROR_NONE, /* CYBLE_AUTH_FAILED_REASON_T authErr */
 207:.\Generated_Source\PSoC4/CYBLE_eventHandler.c ****     0x00u,      /* uint8 pairingProperties */
 208:.\Generated_Source\PSoC4/CYBLE_eventHandler.c **** };
 209:.\Generated_Source\PSoC4/CYBLE_eventHandler.c **** 
 210:.\Generated_Source\PSoC4/CYBLE_eventHandler.c **** #if(CYBLE_GATT_ROLE_SERVER)
 211:.\Generated_Source\PSoC4/CYBLE_eventHandler.c **** 
 212:.\Generated_Source\PSoC4/CYBLE_eventHandler.c **** 
 213:.\Generated_Source\PSoC4/CYBLE_eventHandler.c **** /******************************************************************************    
 214:.\Generated_Source\PSoC4/CYBLE_eventHandler.c **** * Function Name: CyBle_WriteReqHandler
 215:.\Generated_Source\PSoC4/CYBLE_eventHandler.c **** ***************************************************************************//**
 216:.\Generated_Source\PSoC4/CYBLE_eventHandler.c **** * 
 217:.\Generated_Source\PSoC4/CYBLE_eventHandler.c **** *  Handles the Write Request event from BLE stack.
 218:.\Generated_Source\PSoC4/CYBLE_eventHandler.c **** * 
 219:.\Generated_Source\PSoC4/CYBLE_eventHandler.c **** *  CYBLE_GATTS_WRITE_REQ_PARAM_T * eventParam - event parameter
 220:.\Generated_Source\PSoC4/CYBLE_eventHandler.c **** * 
 221:.\Generated_Source\PSoC4/CYBLE_eventHandler.c **** * \return
 222:.\Generated_Source\PSoC4/CYBLE_eventHandler.c **** *  None
 223:.\Generated_Source\PSoC4/CYBLE_eventHandler.c **** * 
 224:.\Generated_Source\PSoC4/CYBLE_eventHandler.c **** ******************************************************************************/
 225:.\Generated_Source\PSoC4/CYBLE_eventHandler.c **** static void CyBle_WriteReqHandler(CYBLE_GATTS_WRITE_REQ_PARAM_T *eventParam)
 226:.\Generated_Source\PSoC4/CYBLE_eventHandler.c **** {
  40              		.loc 1 226 0
  41              		.cfi_startproc
  42 0000 90B5     		push	{r4, r7, lr}
  43              		.cfi_def_cfa_offset 12
  44              		.cfi_offset 4, -12
  45              		.cfi_offset 7, -8
  46              		.cfi_offset 14, -4
  47 0002 85B0     		sub	sp, sp, #20
  48              		.cfi_def_cfa_offset 32
  49 0004 00AF     		add	r7, sp, #0
  50              		.cfi_def_cfa_register 7
  51 0006 7860     		str	r0, [r7, #4]
 227:.\Generated_Source\PSoC4/CYBLE_eventHandler.c ****     CYBLE_GATT_ERR_CODE_T gattErr;
 228:.\Generated_Source\PSoC4/CYBLE_eventHandler.c **** #if defined CYBLE_CTS_SERVER || defined CYBLE_ESS_SERVER
 229:.\Generated_Source\PSoC4/CYBLE_eventHandler.c ****     cyBle_gattError = CYBLE_GATT_ERR_NONE;
 230:.\Generated_Source\PSoC4/CYBLE_eventHandler.c **** #endif /* defined CYBLE_CTS_SERVER || defined CYBLE_ESS_SERVER */
 231:.\Generated_Source\PSoC4/CYBLE_eventHandler.c ****     
 232:.\Generated_Source\PSoC4/CYBLE_eventHandler.c ****     gattErr = CyBle_GattsWriteEventHandler(eventParam);
  52              		.loc 1 232 0
  53 0008 0F23     		mov	r3, #15
ARM GAS  C:\Users\igreg\AppData\Local\Temp\ccnO9ZHN.s 			page 6


  54 000a FC18     		add	r4, r7, r3
  55 000c 7B68     		ldr	r3, [r7, #4]
  56 000e 181C     		mov	r0, r3
  57 0010 FFF7FEFF 		bl	CyBle_GattsWriteEventHandler
  58 0014 031C     		mov	r3, r0
  59 0016 2370     		strb	r3, [r4]
 233:.\Generated_Source\PSoC4/CYBLE_eventHandler.c **** #ifdef CYBLE_ANCS_SERVER
 234:.\Generated_Source\PSoC4/CYBLE_eventHandler.c ****     if(((cyBle_eventHandlerFlag & CYBLE_CALLBACK) != 0u) && (gattErr == CYBLE_GATT_ERR_NONE))
 235:.\Generated_Source\PSoC4/CYBLE_eventHandler.c ****     {
 236:.\Generated_Source\PSoC4/CYBLE_eventHandler.c ****         gattErr = CyBle_AncssWriteEventHandler(eventParam);
 237:.\Generated_Source\PSoC4/CYBLE_eventHandler.c ****     }
 238:.\Generated_Source\PSoC4/CYBLE_eventHandler.c **** #endif /* CYBLE_ANCS_SERVER */
 239:.\Generated_Source\PSoC4/CYBLE_eventHandler.c **** #ifdef CYBLE_ANS_SERVER
 240:.\Generated_Source\PSoC4/CYBLE_eventHandler.c ****     if(((cyBle_eventHandlerFlag & CYBLE_CALLBACK) != 0u) && (gattErr == CYBLE_GATT_ERR_NONE))
 241:.\Generated_Source\PSoC4/CYBLE_eventHandler.c ****     {
 242:.\Generated_Source\PSoC4/CYBLE_eventHandler.c ****         gattErr = CyBle_AnssWriteEventHandler(eventParam);
 243:.\Generated_Source\PSoC4/CYBLE_eventHandler.c ****     }
 244:.\Generated_Source\PSoC4/CYBLE_eventHandler.c **** #endif /* CYBLE_ANS_SERVER */
 245:.\Generated_Source\PSoC4/CYBLE_eventHandler.c **** #ifdef CYBLE_BAS_SERVER
 246:.\Generated_Source\PSoC4/CYBLE_eventHandler.c ****     if(((cyBle_eventHandlerFlag & CYBLE_CALLBACK) != 0u) && (gattErr == CYBLE_GATT_ERR_NONE))
 247:.\Generated_Source\PSoC4/CYBLE_eventHandler.c ****     {
 248:.\Generated_Source\PSoC4/CYBLE_eventHandler.c ****         gattErr = CyBle_BassWriteEventHandler(eventParam);
 249:.\Generated_Source\PSoC4/CYBLE_eventHandler.c ****     }
 250:.\Generated_Source\PSoC4/CYBLE_eventHandler.c **** #endif /* CYBLE_BAS_SERVER */
 251:.\Generated_Source\PSoC4/CYBLE_eventHandler.c **** #ifdef CYBLE_BCS_SERVER
 252:.\Generated_Source\PSoC4/CYBLE_eventHandler.c ****     if(((cyBle_eventHandlerFlag & CYBLE_CALLBACK) != 0u) && (gattErr == CYBLE_GATT_ERR_NONE))
 253:.\Generated_Source\PSoC4/CYBLE_eventHandler.c ****     {
 254:.\Generated_Source\PSoC4/CYBLE_eventHandler.c ****         gattErr = CyBle_BcssWriteEventHandler(eventParam);
 255:.\Generated_Source\PSoC4/CYBLE_eventHandler.c ****     }
 256:.\Generated_Source\PSoC4/CYBLE_eventHandler.c **** #endif /* CYBLE_BCS_SERVER */
 257:.\Generated_Source\PSoC4/CYBLE_eventHandler.c **** #ifdef CYBLE_BLS_SERVER
 258:.\Generated_Source\PSoC4/CYBLE_eventHandler.c ****     if(((cyBle_eventHandlerFlag & CYBLE_CALLBACK) != 0u) && (gattErr == CYBLE_GATT_ERR_NONE))
 259:.\Generated_Source\PSoC4/CYBLE_eventHandler.c ****     {
 260:.\Generated_Source\PSoC4/CYBLE_eventHandler.c ****         gattErr = CyBle_BlssWriteEventHandler(eventParam);
 261:.\Generated_Source\PSoC4/CYBLE_eventHandler.c ****     }
 262:.\Generated_Source\PSoC4/CYBLE_eventHandler.c **** #endif /* CYBLE_BLS_SERVER */
 263:.\Generated_Source\PSoC4/CYBLE_eventHandler.c **** #ifdef CYBLE_BMS_SERVER
 264:.\Generated_Source\PSoC4/CYBLE_eventHandler.c ****     if(((cyBle_eventHandlerFlag & CYBLE_CALLBACK) != 0u) && (gattErr == CYBLE_GATT_ERR_NONE))
 265:.\Generated_Source\PSoC4/CYBLE_eventHandler.c ****     {
 266:.\Generated_Source\PSoC4/CYBLE_eventHandler.c ****         gattErr = CyBle_BmssWriteEventHandler(eventParam);
 267:.\Generated_Source\PSoC4/CYBLE_eventHandler.c ****     }
 268:.\Generated_Source\PSoC4/CYBLE_eventHandler.c **** #endif /* CYBLE_BMS_SERVER */
 269:.\Generated_Source\PSoC4/CYBLE_eventHandler.c **** #ifdef CYBLE_BTS_SERVER
 270:.\Generated_Source\PSoC4/CYBLE_eventHandler.c ****     if((cyBle_eventHandlerFlag & CYBLE_CALLBACK) != 0u)
 271:.\Generated_Source\PSoC4/CYBLE_eventHandler.c ****     {
 272:.\Generated_Source\PSoC4/CYBLE_eventHandler.c ****         gattErr = CyBle_BtsWriteEventHandler(eventParam);
 273:.\Generated_Source\PSoC4/CYBLE_eventHandler.c ****     }
 274:.\Generated_Source\PSoC4/CYBLE_eventHandler.c **** #endif /* CYBLE_BTS_SERVER */
 275:.\Generated_Source\PSoC4/CYBLE_eventHandler.c **** #ifdef CYBLE_CGMS_SERVER
 276:.\Generated_Source\PSoC4/CYBLE_eventHandler.c ****     if(((cyBle_eventHandlerFlag & CYBLE_CALLBACK) != 0u) && (gattErr == CYBLE_GATT_ERR_NONE))
 277:.\Generated_Source\PSoC4/CYBLE_eventHandler.c ****     {
 278:.\Generated_Source\PSoC4/CYBLE_eventHandler.c ****         gattErr = CyBle_CgmssWriteEventHandler(eventParam);
 279:.\Generated_Source\PSoC4/CYBLE_eventHandler.c ****     }
 280:.\Generated_Source\PSoC4/CYBLE_eventHandler.c **** #endif /* CYBLE_CGMS_SERVER */
 281:.\Generated_Source\PSoC4/CYBLE_eventHandler.c **** #ifdef CYBLE_CPS_SERVER
 282:.\Generated_Source\PSoC4/CYBLE_eventHandler.c ****     if(((cyBle_eventHandlerFlag & CYBLE_CALLBACK) != 0u) && (gattErr == CYBLE_GATT_ERR_NONE))
 283:.\Generated_Source\PSoC4/CYBLE_eventHandler.c ****     {
ARM GAS  C:\Users\igreg\AppData\Local\Temp\ccnO9ZHN.s 			page 7


 284:.\Generated_Source\PSoC4/CYBLE_eventHandler.c ****         gattErr = CyBle_CpssWriteEventHandler(eventParam);
 285:.\Generated_Source\PSoC4/CYBLE_eventHandler.c ****     }
 286:.\Generated_Source\PSoC4/CYBLE_eventHandler.c **** #endif /* CYBLE_CPS_SERVER */
 287:.\Generated_Source\PSoC4/CYBLE_eventHandler.c **** #ifdef CYBLE_CSCS_SERVER
 288:.\Generated_Source\PSoC4/CYBLE_eventHandler.c ****     if(((cyBle_eventHandlerFlag & CYBLE_CALLBACK) != 0u) && (gattErr == CYBLE_GATT_ERR_NONE))
 289:.\Generated_Source\PSoC4/CYBLE_eventHandler.c ****     {
 290:.\Generated_Source\PSoC4/CYBLE_eventHandler.c ****         gattErr = CyBle_CscssWriteEventHandler(eventParam);
 291:.\Generated_Source\PSoC4/CYBLE_eventHandler.c ****     }
 292:.\Generated_Source\PSoC4/CYBLE_eventHandler.c **** #endif /* CYBLE_CSCS_SERVER */
 293:.\Generated_Source\PSoC4/CYBLE_eventHandler.c **** #ifdef CYBLE_CTS_SERVER
 294:.\Generated_Source\PSoC4/CYBLE_eventHandler.c ****     if(((cyBle_eventHandlerFlag & CYBLE_CALLBACK) != 0u) && (gattErr == CYBLE_GATT_ERR_NONE))
 295:.\Generated_Source\PSoC4/CYBLE_eventHandler.c ****     {
 296:.\Generated_Source\PSoC4/CYBLE_eventHandler.c ****         gattErr = CyBle_CtssWriteEventHandler(eventParam);
 297:.\Generated_Source\PSoC4/CYBLE_eventHandler.c ****     }
 298:.\Generated_Source\PSoC4/CYBLE_eventHandler.c **** #endif /* CYBLE_CTS_SERVER */
 299:.\Generated_Source\PSoC4/CYBLE_eventHandler.c **** #ifdef CYBLE_ESS_SERVER
 300:.\Generated_Source\PSoC4/CYBLE_eventHandler.c ****     if(((cyBle_eventHandlerFlag & CYBLE_CALLBACK) != 0u) && (gattErr == CYBLE_GATT_ERR_NONE))
 301:.\Generated_Source\PSoC4/CYBLE_eventHandler.c ****     {
 302:.\Generated_Source\PSoC4/CYBLE_eventHandler.c ****         gattErr = CyBle_EsssWriteEventHandler(eventParam);
 303:.\Generated_Source\PSoC4/CYBLE_eventHandler.c ****     }
 304:.\Generated_Source\PSoC4/CYBLE_eventHandler.c **** #endif /* CYBLE_ESS_SERVER */
 305:.\Generated_Source\PSoC4/CYBLE_eventHandler.c **** #ifdef CYBLE_GLS_SERVER
 306:.\Generated_Source\PSoC4/CYBLE_eventHandler.c ****     if(((cyBle_eventHandlerFlag & CYBLE_CALLBACK) != 0u) && (gattErr == CYBLE_GATT_ERR_NONE))
 307:.\Generated_Source\PSoC4/CYBLE_eventHandler.c ****     {
 308:.\Generated_Source\PSoC4/CYBLE_eventHandler.c ****         gattErr = CyBle_GlssWriteEventHandler(eventParam);
 309:.\Generated_Source\PSoC4/CYBLE_eventHandler.c ****     }
 310:.\Generated_Source\PSoC4/CYBLE_eventHandler.c **** #endif /* CYBLE_GLS_SERVER */
 311:.\Generated_Source\PSoC4/CYBLE_eventHandler.c **** #ifdef CYBLE_HIDS_SERVER
 312:.\Generated_Source\PSoC4/CYBLE_eventHandler.c ****     if(((cyBle_eventHandlerFlag & CYBLE_CALLBACK) != 0u) && (gattErr == CYBLE_GATT_ERR_NONE))
 313:.\Generated_Source\PSoC4/CYBLE_eventHandler.c ****     {
 314:.\Generated_Source\PSoC4/CYBLE_eventHandler.c ****         gattErr = CyBle_HidssWriteEventHandler(eventParam);
 315:.\Generated_Source\PSoC4/CYBLE_eventHandler.c ****     }
 316:.\Generated_Source\PSoC4/CYBLE_eventHandler.c **** #endif /* CYBLE_HIDS_SERVER */
 317:.\Generated_Source\PSoC4/CYBLE_eventHandler.c **** #ifdef CYBLE_HPS_SERVER
 318:.\Generated_Source\PSoC4/CYBLE_eventHandler.c ****     if(((cyBle_eventHandlerFlag & CYBLE_CALLBACK) != 0u) && (gattErr == CYBLE_GATT_ERR_NONE))
 319:.\Generated_Source\PSoC4/CYBLE_eventHandler.c ****     {
 320:.\Generated_Source\PSoC4/CYBLE_eventHandler.c ****         gattErr = CyBle_HpssWriteEventHandler(eventParam);
 321:.\Generated_Source\PSoC4/CYBLE_eventHandler.c ****     }
 322:.\Generated_Source\PSoC4/CYBLE_eventHandler.c **** #endif /* CYBLE_HPS_SERVER */
 323:.\Generated_Source\PSoC4/CYBLE_eventHandler.c **** #ifdef CYBLE_HRS_SERVER
 324:.\Generated_Source\PSoC4/CYBLE_eventHandler.c ****     if(((cyBle_eventHandlerFlag & CYBLE_CALLBACK) != 0u) && (gattErr == CYBLE_GATT_ERR_NONE))
  60              		.loc 1 324 0
  61 0018 1E4B     		ldr	r3, .L5
  62 001a 1B78     		ldrb	r3, [r3]
  63 001c DBB2     		uxtb	r3, r3
  64 001e 1A1C     		mov	r2, r3
  65 0020 0123     		mov	r3, #1
  66 0022 1340     		and	r3, r2
  67 0024 0CD0     		beq	.L2
  68              		.loc 1 324 0 is_stmt 0 discriminator 1
  69 0026 0F23     		mov	r3, #15
  70 0028 FB18     		add	r3, r7, r3
  71 002a 1B78     		ldrb	r3, [r3]
  72 002c 002B     		cmp	r3, #0
  73 002e 07D1     		bne	.L2
 325:.\Generated_Source\PSoC4/CYBLE_eventHandler.c ****     {
 326:.\Generated_Source\PSoC4/CYBLE_eventHandler.c ****         gattErr = CyBle_HrssWriteEventHandler(eventParam);
ARM GAS  C:\Users\igreg\AppData\Local\Temp\ccnO9ZHN.s 			page 8


  74              		.loc 1 326 0 is_stmt 1
  75 0030 0F23     		mov	r3, #15
  76 0032 FC18     		add	r4, r7, r3
  77 0034 7B68     		ldr	r3, [r7, #4]
  78 0036 181C     		mov	r0, r3
  79 0038 FFF7FEFF 		bl	CyBle_HrssWriteEventHandler
  80 003c 031C     		mov	r3, r0
  81 003e 2370     		strb	r3, [r4]
  82              	.L2:
 327:.\Generated_Source\PSoC4/CYBLE_eventHandler.c ****     }
 328:.\Generated_Source\PSoC4/CYBLE_eventHandler.c **** #endif /* CYBLE_HRS_SERVER */
 329:.\Generated_Source\PSoC4/CYBLE_eventHandler.c **** #ifdef CYBLE_HTS_SERVER
 330:.\Generated_Source\PSoC4/CYBLE_eventHandler.c ****     if(((cyBle_eventHandlerFlag & CYBLE_CALLBACK) != 0u) && (gattErr == CYBLE_GATT_ERR_NONE))
 331:.\Generated_Source\PSoC4/CYBLE_eventHandler.c ****     {
 332:.\Generated_Source\PSoC4/CYBLE_eventHandler.c ****         gattErr = CyBle_HtssWriteEventHandler(eventParam);
 333:.\Generated_Source\PSoC4/CYBLE_eventHandler.c ****     }
 334:.\Generated_Source\PSoC4/CYBLE_eventHandler.c **** #endif /* CYBLE_HTS_SERVER */
 335:.\Generated_Source\PSoC4/CYBLE_eventHandler.c **** #ifdef CYBLE_LLS_SERVER
 336:.\Generated_Source\PSoC4/CYBLE_eventHandler.c ****     if(((cyBle_eventHandlerFlag & CYBLE_CALLBACK) != 0u) && (gattErr == CYBLE_GATT_ERR_NONE))
 337:.\Generated_Source\PSoC4/CYBLE_eventHandler.c ****     {
 338:.\Generated_Source\PSoC4/CYBLE_eventHandler.c ****         gattErr = CyBle_LlssWriteEventHandler(eventParam);
 339:.\Generated_Source\PSoC4/CYBLE_eventHandler.c ****     }
 340:.\Generated_Source\PSoC4/CYBLE_eventHandler.c **** #endif /* CYBLE_LLS_SERVER */
 341:.\Generated_Source\PSoC4/CYBLE_eventHandler.c **** #ifdef CYBLE_LNS_SERVER
 342:.\Generated_Source\PSoC4/CYBLE_eventHandler.c ****     if(((cyBle_eventHandlerFlag & CYBLE_CALLBACK) != 0u) && (gattErr == CYBLE_GATT_ERR_NONE))
 343:.\Generated_Source\PSoC4/CYBLE_eventHandler.c ****     {
 344:.\Generated_Source\PSoC4/CYBLE_eventHandler.c ****         gattErr = CyBle_LnssWriteEventHandler(eventParam);
 345:.\Generated_Source\PSoC4/CYBLE_eventHandler.c ****     }
 346:.\Generated_Source\PSoC4/CYBLE_eventHandler.c **** #endif /* CYBLE_LNS_SERVER */
 347:.\Generated_Source\PSoC4/CYBLE_eventHandler.c **** #ifdef CYBLE_PASS_SERVER
 348:.\Generated_Source\PSoC4/CYBLE_eventHandler.c ****     if(((cyBle_eventHandlerFlag & CYBLE_CALLBACK) != 0u) && (gattErr == CYBLE_GATT_ERR_NONE))
 349:.\Generated_Source\PSoC4/CYBLE_eventHandler.c ****     {
 350:.\Generated_Source\PSoC4/CYBLE_eventHandler.c ****         gattErr = CyBle_PasssWriteEventHandler(eventParam);
 351:.\Generated_Source\PSoC4/CYBLE_eventHandler.c ****     }
 352:.\Generated_Source\PSoC4/CYBLE_eventHandler.c **** #endif /* CYBLE_PASS_SERVER */
 353:.\Generated_Source\PSoC4/CYBLE_eventHandler.c **** #ifdef CYBLE_RSCS_SERVER
 354:.\Generated_Source\PSoC4/CYBLE_eventHandler.c ****     if(((cyBle_eventHandlerFlag & CYBLE_CALLBACK) != 0u) && (gattErr == CYBLE_GATT_ERR_NONE))
 355:.\Generated_Source\PSoC4/CYBLE_eventHandler.c ****     {
 356:.\Generated_Source\PSoC4/CYBLE_eventHandler.c ****         gattErr = CyBle_RscssWriteEventHandler(eventParam);
 357:.\Generated_Source\PSoC4/CYBLE_eventHandler.c ****     }
 358:.\Generated_Source\PSoC4/CYBLE_eventHandler.c **** #endif /* CYBLE_RSCS_SERVER */
 359:.\Generated_Source\PSoC4/CYBLE_eventHandler.c **** #ifdef CYBLE_SCPS_SERVER
 360:.\Generated_Source\PSoC4/CYBLE_eventHandler.c ****     if(((cyBle_eventHandlerFlag & CYBLE_CALLBACK) != 0u) && (gattErr == CYBLE_GATT_ERR_NONE))
 361:.\Generated_Source\PSoC4/CYBLE_eventHandler.c ****     {
 362:.\Generated_Source\PSoC4/CYBLE_eventHandler.c ****         gattErr = CyBle_ScpssWriteEventHandler(eventParam);
 363:.\Generated_Source\PSoC4/CYBLE_eventHandler.c ****     }
 364:.\Generated_Source\PSoC4/CYBLE_eventHandler.c **** #endif /* CYBLE_SCPS_SERVER */
 365:.\Generated_Source\PSoC4/CYBLE_eventHandler.c **** #ifdef CYBLE_TPS_SERVER
 366:.\Generated_Source\PSoC4/CYBLE_eventHandler.c ****     if(((cyBle_eventHandlerFlag & CYBLE_CALLBACK) != 0u) && (gattErr == CYBLE_GATT_ERR_NONE))
 367:.\Generated_Source\PSoC4/CYBLE_eventHandler.c ****     {
 368:.\Generated_Source\PSoC4/CYBLE_eventHandler.c ****         gattErr = CyBle_TpssWriteEventHandler(eventParam);
 369:.\Generated_Source\PSoC4/CYBLE_eventHandler.c ****     }
 370:.\Generated_Source\PSoC4/CYBLE_eventHandler.c **** #endif /* CYBLE_TPS_SERVER */
 371:.\Generated_Source\PSoC4/CYBLE_eventHandler.c **** #ifdef CYBLE_UDS_SERVER
 372:.\Generated_Source\PSoC4/CYBLE_eventHandler.c ****     if(((cyBle_eventHandlerFlag & CYBLE_CALLBACK) != 0u) && (gattErr == CYBLE_GATT_ERR_NONE))
 373:.\Generated_Source\PSoC4/CYBLE_eventHandler.c ****     {
 374:.\Generated_Source\PSoC4/CYBLE_eventHandler.c ****         gattErr = CyBle_UdssWriteEventHandler(eventParam);
ARM GAS  C:\Users\igreg\AppData\Local\Temp\ccnO9ZHN.s 			page 9


 375:.\Generated_Source\PSoC4/CYBLE_eventHandler.c ****     }
 376:.\Generated_Source\PSoC4/CYBLE_eventHandler.c **** #endif /* CYBLE_UDS_SERVER */
 377:.\Generated_Source\PSoC4/CYBLE_eventHandler.c **** #ifdef CYBLE_WPTS_SERVER
 378:.\Generated_Source\PSoC4/CYBLE_eventHandler.c ****     if(((cyBle_eventHandlerFlag & CYBLE_CALLBACK) != 0u) && (gattErr == CYBLE_GATT_ERR_NONE))
 379:.\Generated_Source\PSoC4/CYBLE_eventHandler.c ****     {
 380:.\Generated_Source\PSoC4/CYBLE_eventHandler.c ****         gattErr = CyBle_WptssWriteEventHandler(eventParam);
 381:.\Generated_Source\PSoC4/CYBLE_eventHandler.c ****     }
 382:.\Generated_Source\PSoC4/CYBLE_eventHandler.c **** #endif /* CYBLE_WPTS_SERVER */
 383:.\Generated_Source\PSoC4/CYBLE_eventHandler.c **** #ifdef CYBLE_WSS_SERVER
 384:.\Generated_Source\PSoC4/CYBLE_eventHandler.c ****     if(((cyBle_eventHandlerFlag & CYBLE_CALLBACK) != 0u) && (gattErr == CYBLE_GATT_ERR_NONE))
 385:.\Generated_Source\PSoC4/CYBLE_eventHandler.c ****     {
 386:.\Generated_Source\PSoC4/CYBLE_eventHandler.c ****         gattErr = CyBle_WsssWriteEventHandler(eventParam);
 387:.\Generated_Source\PSoC4/CYBLE_eventHandler.c ****     }
 388:.\Generated_Source\PSoC4/CYBLE_eventHandler.c **** #endif /* CYBLE_WSS_SERVER */
 389:.\Generated_Source\PSoC4/CYBLE_eventHandler.c **** 
 390:.\Generated_Source\PSoC4/CYBLE_eventHandler.c ****     /* Send response when event was handled by service */
 391:.\Generated_Source\PSoC4/CYBLE_eventHandler.c ****     if((cyBle_eventHandlerFlag & CYBLE_CALLBACK) == 0u)
  83              		.loc 1 391 0
  84 0040 144B     		ldr	r3, .L5
  85 0042 1B78     		ldrb	r3, [r3]
  86 0044 DBB2     		uxtb	r3, r3
  87 0046 1A1C     		mov	r2, r3
  88 0048 0123     		mov	r3, #1
  89 004a 1340     		and	r3, r2
  90 004c 1FD1     		bne	.L1
 392:.\Generated_Source\PSoC4/CYBLE_eventHandler.c ****     {
 393:.\Generated_Source\PSoC4/CYBLE_eventHandler.c ****         if(gattErr != CYBLE_GATT_ERR_NONE)
  91              		.loc 1 393 0
  92 004e 0F23     		mov	r3, #15
  93 0050 FB18     		add	r3, r7, r3
  94 0052 1B78     		ldrb	r3, [r3]
  95 0054 002B     		cmp	r3, #0
  96 0056 16D0     		beq	.L4
  97              	.LBB2:
 394:.\Generated_Source\PSoC4/CYBLE_eventHandler.c ****         {
 395:.\Generated_Source\PSoC4/CYBLE_eventHandler.c ****             CYBLE_GATTS_ERR_PARAM_T err_param;
 396:.\Generated_Source\PSoC4/CYBLE_eventHandler.c ****             
 397:.\Generated_Source\PSoC4/CYBLE_eventHandler.c ****             err_param.opcode = (uint8) CYBLE_GATT_WRITE_REQ;
  98              		.loc 1 397 0
  99 0058 0823     		mov	r3, #8
 100 005a FB18     		add	r3, r7, r3
 101 005c 1222     		mov	r2, #18
 102 005e 9A70     		strb	r2, [r3, #2]
 398:.\Generated_Source\PSoC4/CYBLE_eventHandler.c ****             err_param.attrHandle = eventParam->handleValPair.attrHandle;
 103              		.loc 1 398 0
 104 0060 7B68     		ldr	r3, [r7, #4]
 105 0062 9A89     		ldrh	r2, [r3, #12]
 106 0064 0823     		mov	r3, #8
 107 0066 FB18     		add	r3, r7, r3
 108 0068 1A80     		strh	r2, [r3]
 399:.\Generated_Source\PSoC4/CYBLE_eventHandler.c ****             err_param.errorCode = gattErr;
 109              		.loc 1 399 0
 110 006a 0823     		mov	r3, #8
 111 006c FB18     		add	r3, r7, r3
 112 006e 0F22     		mov	r2, #15
 113 0070 BA18     		add	r2, r7, r2
 114 0072 1278     		ldrb	r2, [r2]
ARM GAS  C:\Users\igreg\AppData\Local\Temp\ccnO9ZHN.s 			page 10


 115 0074 DA70     		strb	r2, [r3, #3]
 400:.\Generated_Source\PSoC4/CYBLE_eventHandler.c **** 
 401:.\Generated_Source\PSoC4/CYBLE_eventHandler.c ****             /* Send Error Response */
 402:.\Generated_Source\PSoC4/CYBLE_eventHandler.c ****             (void)CyBle_GattsErrorRsp(eventParam->connHandle, &err_param);
 116              		.loc 1 402 0
 117 0076 7B68     		ldr	r3, [r7, #4]
 118 0078 0822     		mov	r2, #8
 119 007a BA18     		add	r2, r7, r2
 120 007c 1868     		ldr	r0, [r3]
 121 007e 111C     		mov	r1, r2
 122 0080 FFF7FEFF 		bl	CyBle_GattsErrorRsp
 123              	.LBE2:
 124 0084 03E0     		b	.L1
 125              	.L4:
 403:.\Generated_Source\PSoC4/CYBLE_eventHandler.c ****         }
 404:.\Generated_Source\PSoC4/CYBLE_eventHandler.c ****         else
 405:.\Generated_Source\PSoC4/CYBLE_eventHandler.c ****         {
 406:.\Generated_Source\PSoC4/CYBLE_eventHandler.c ****             (void)CyBle_GattsWriteRsp(eventParam->connHandle);
 126              		.loc 1 406 0
 127 0086 7B68     		ldr	r3, [r7, #4]
 128 0088 1868     		ldr	r0, [r3]
 129 008a FFF7FEFF 		bl	CyBle_GattsWriteRsp
 130              	.L1:
 407:.\Generated_Source\PSoC4/CYBLE_eventHandler.c ****         }
 408:.\Generated_Source\PSoC4/CYBLE_eventHandler.c ****     }
 409:.\Generated_Source\PSoC4/CYBLE_eventHandler.c **** }
 131              		.loc 1 409 0
 132 008e BD46     		mov	sp, r7
 133 0090 05B0     		add	sp, sp, #20
 134              		@ sp needed
 135 0092 90BD     		pop	{r4, r7, pc}
 136              	.L6:
 137              		.align	2
 138              	.L5:
 139 0094 00000000 		.word	cyBle_eventHandlerFlag
 140              		.cfi_endproc
 141              	.LFE2:
 142              		.size	CyBle_WriteReqHandler, .-CyBle_WriteReqHandler
 143              		.section	.text.CyBle_ValueConfirmation,"ax",%progbits
 144              		.align	2
 145              		.code	16
 146              		.thumb_func
 147              		.type	CyBle_ValueConfirmation, %function
 148              	CyBle_ValueConfirmation:
 149              	.LFB3:
 410:.\Generated_Source\PSoC4/CYBLE_eventHandler.c **** 
 411:.\Generated_Source\PSoC4/CYBLE_eventHandler.c **** 
 412:.\Generated_Source\PSoC4/CYBLE_eventHandler.c **** /****************************************************************************** 
 413:.\Generated_Source\PSoC4/CYBLE_eventHandler.c **** * Function Name: CyBle_ValueConfirmation
 414:.\Generated_Source\PSoC4/CYBLE_eventHandler.c **** ***************************************************************************//**
 415:.\Generated_Source\PSoC4/CYBLE_eventHandler.c **** * 
 416:.\Generated_Source\PSoC4/CYBLE_eventHandler.c **** *  Handles the Value Confirmation request event from the BLE stack.
 417:.\Generated_Source\PSoC4/CYBLE_eventHandler.c **** * 
 418:.\Generated_Source\PSoC4/CYBLE_eventHandler.c **** *  \param eventParam: Pointer to a structure of type 'CYBLE_CONN_HANDLE_T'
 419:.\Generated_Source\PSoC4/CYBLE_eventHandler.c **** * 
 420:.\Generated_Source\PSoC4/CYBLE_eventHandler.c **** * \return
 421:.\Generated_Source\PSoC4/CYBLE_eventHandler.c **** *  None
ARM GAS  C:\Users\igreg\AppData\Local\Temp\ccnO9ZHN.s 			page 11


 422:.\Generated_Source\PSoC4/CYBLE_eventHandler.c **** * 
 423:.\Generated_Source\PSoC4/CYBLE_eventHandler.c **** ******************************************************************************/
 424:.\Generated_Source\PSoC4/CYBLE_eventHandler.c **** static void CyBle_ValueConfirmation(const CYBLE_CONN_HANDLE_T *eventParam)
 425:.\Generated_Source\PSoC4/CYBLE_eventHandler.c **** {
 150              		.loc 1 425 0
 151              		.cfi_startproc
 152 0000 80B5     		push	{r7, lr}
 153              		.cfi_def_cfa_offset 8
 154              		.cfi_offset 7, -8
 155              		.cfi_offset 14, -4
 156 0002 82B0     		sub	sp, sp, #8
 157              		.cfi_def_cfa_offset 16
 158 0004 00AF     		add	r7, sp, #0
 159              		.cfi_def_cfa_register 7
 160 0006 7860     		str	r0, [r7, #4]
 426:.\Generated_Source\PSoC4/CYBLE_eventHandler.c ****     if(eventParam != NULL)
 427:.\Generated_Source\PSoC4/CYBLE_eventHandler.c ****     {
 428:.\Generated_Source\PSoC4/CYBLE_eventHandler.c ****     #ifdef CYBLE_BCS_SERVER
 429:.\Generated_Source\PSoC4/CYBLE_eventHandler.c ****         CyBle_BcssConfirmationEventHandler(eventParam);
 430:.\Generated_Source\PSoC4/CYBLE_eventHandler.c ****     #endif /* CYBLE_BCS_SERVER */
 431:.\Generated_Source\PSoC4/CYBLE_eventHandler.c ****     #ifdef CYBLE_BLS_SERVER
 432:.\Generated_Source\PSoC4/CYBLE_eventHandler.c ****         if((cyBle_eventHandlerFlag & CYBLE_CALLBACK) != 0u)
 433:.\Generated_Source\PSoC4/CYBLE_eventHandler.c ****         {
 434:.\Generated_Source\PSoC4/CYBLE_eventHandler.c ****             CyBle_BlssConfirmationEventHandler(eventParam);
 435:.\Generated_Source\PSoC4/CYBLE_eventHandler.c ****         }
 436:.\Generated_Source\PSoC4/CYBLE_eventHandler.c ****     #endif /* CYBLE_BLS_SERVER */
 437:.\Generated_Source\PSoC4/CYBLE_eventHandler.c ****     
 438:.\Generated_Source\PSoC4/CYBLE_eventHandler.c ****     #ifdef CYBLE_CGMS_SERVER
 439:.\Generated_Source\PSoC4/CYBLE_eventHandler.c ****         if((cyBle_eventHandlerFlag & CYBLE_CALLBACK) != 0u)
 440:.\Generated_Source\PSoC4/CYBLE_eventHandler.c ****         {
 441:.\Generated_Source\PSoC4/CYBLE_eventHandler.c ****             CyBle_CgmssConfirmationEventHandler(eventParam);
 442:.\Generated_Source\PSoC4/CYBLE_eventHandler.c ****         }
 443:.\Generated_Source\PSoC4/CYBLE_eventHandler.c ****     #endif /* CYBLE_CGMS_SERVER */
 444:.\Generated_Source\PSoC4/CYBLE_eventHandler.c ****     
 445:.\Generated_Source\PSoC4/CYBLE_eventHandler.c ****     #ifdef CYBLE_CPS_SERVER
 446:.\Generated_Source\PSoC4/CYBLE_eventHandler.c ****         if((cyBle_eventHandlerFlag & CYBLE_CALLBACK) != 0u)
 447:.\Generated_Source\PSoC4/CYBLE_eventHandler.c ****         {
 448:.\Generated_Source\PSoC4/CYBLE_eventHandler.c ****             CyBle_CpssConfirmationEventHandler(eventParam);
 449:.\Generated_Source\PSoC4/CYBLE_eventHandler.c ****         }
 450:.\Generated_Source\PSoC4/CYBLE_eventHandler.c ****     #endif /* CYBLE_CPS_SERVER */
 451:.\Generated_Source\PSoC4/CYBLE_eventHandler.c ****     
 452:.\Generated_Source\PSoC4/CYBLE_eventHandler.c ****     #ifdef CYBLE_CSCS_SERVER
 453:.\Generated_Source\PSoC4/CYBLE_eventHandler.c ****         if((cyBle_eventHandlerFlag & CYBLE_CALLBACK) != 0u)
 454:.\Generated_Source\PSoC4/CYBLE_eventHandler.c ****         {
 455:.\Generated_Source\PSoC4/CYBLE_eventHandler.c ****             CyBle_CscssConfirmationEventHandler(eventParam);
 456:.\Generated_Source\PSoC4/CYBLE_eventHandler.c ****         }
 457:.\Generated_Source\PSoC4/CYBLE_eventHandler.c ****     #endif /* CYBLE_CSCS_SERVER */
 458:.\Generated_Source\PSoC4/CYBLE_eventHandler.c ****     
 459:.\Generated_Source\PSoC4/CYBLE_eventHandler.c ****     #ifdef CYBLE_ESS_SERVER
 460:.\Generated_Source\PSoC4/CYBLE_eventHandler.c ****         if((cyBle_eventHandlerFlag & CYBLE_CALLBACK) != 0u)
 461:.\Generated_Source\PSoC4/CYBLE_eventHandler.c ****         {
 462:.\Generated_Source\PSoC4/CYBLE_eventHandler.c ****             CyBle_EsssConfirmationEventHandler(eventParam);
 463:.\Generated_Source\PSoC4/CYBLE_eventHandler.c ****         }
 464:.\Generated_Source\PSoC4/CYBLE_eventHandler.c ****     #endif /* CYBLE_ESS_SERVER */
 465:.\Generated_Source\PSoC4/CYBLE_eventHandler.c ****     
 466:.\Generated_Source\PSoC4/CYBLE_eventHandler.c ****     #ifdef CYBLE_GLS_SERVER
 467:.\Generated_Source\PSoC4/CYBLE_eventHandler.c ****         if((cyBle_eventHandlerFlag & CYBLE_CALLBACK) != 0u)
ARM GAS  C:\Users\igreg\AppData\Local\Temp\ccnO9ZHN.s 			page 12


 468:.\Generated_Source\PSoC4/CYBLE_eventHandler.c ****         {
 469:.\Generated_Source\PSoC4/CYBLE_eventHandler.c ****             CyBle_GlssConfirmationEventHandler(eventParam);
 470:.\Generated_Source\PSoC4/CYBLE_eventHandler.c ****         }
 471:.\Generated_Source\PSoC4/CYBLE_eventHandler.c ****     #endif /* CYBLE_GLS_SERVER */
 472:.\Generated_Source\PSoC4/CYBLE_eventHandler.c ****     
 473:.\Generated_Source\PSoC4/CYBLE_eventHandler.c ****     #ifdef CYBLE_HTS_SERVER
 474:.\Generated_Source\PSoC4/CYBLE_eventHandler.c ****         if((cyBle_eventHandlerFlag & CYBLE_CALLBACK) != 0u)
 475:.\Generated_Source\PSoC4/CYBLE_eventHandler.c ****         {
 476:.\Generated_Source\PSoC4/CYBLE_eventHandler.c ****             CyBle_HtssConfirmationEventHandler(eventParam);
 477:.\Generated_Source\PSoC4/CYBLE_eventHandler.c ****         }
 478:.\Generated_Source\PSoC4/CYBLE_eventHandler.c ****     #endif /* CYBLE_HTS_SERVER */
 479:.\Generated_Source\PSoC4/CYBLE_eventHandler.c **** 
 480:.\Generated_Source\PSoC4/CYBLE_eventHandler.c ****     #ifdef CYBLE_LNS_SERVER
 481:.\Generated_Source\PSoC4/CYBLE_eventHandler.c ****         if((cyBle_eventHandlerFlag & CYBLE_CALLBACK) != 0u)
 482:.\Generated_Source\PSoC4/CYBLE_eventHandler.c ****         {
 483:.\Generated_Source\PSoC4/CYBLE_eventHandler.c ****             CyBle_LnssConfirmationEventHandler(eventParam);
 484:.\Generated_Source\PSoC4/CYBLE_eventHandler.c ****         }
 485:.\Generated_Source\PSoC4/CYBLE_eventHandler.c ****     #endif /* CYBLE_LNS_SERVER */
 486:.\Generated_Source\PSoC4/CYBLE_eventHandler.c ****     
 487:.\Generated_Source\PSoC4/CYBLE_eventHandler.c ****     #ifdef CYBLE_RSCS_SERVER
 488:.\Generated_Source\PSoC4/CYBLE_eventHandler.c ****         if((cyBle_eventHandlerFlag & CYBLE_CALLBACK) != 0u)
 489:.\Generated_Source\PSoC4/CYBLE_eventHandler.c ****         {
 490:.\Generated_Source\PSoC4/CYBLE_eventHandler.c ****             CyBle_RscssConfirmationEventHandler(eventParam);
 491:.\Generated_Source\PSoC4/CYBLE_eventHandler.c ****         }
 492:.\Generated_Source\PSoC4/CYBLE_eventHandler.c ****     #endif /* CYBLE_RSCS_SERVER */
 493:.\Generated_Source\PSoC4/CYBLE_eventHandler.c ****     
 494:.\Generated_Source\PSoC4/CYBLE_eventHandler.c ****     #ifdef CYBLE_UDS_SERVER
 495:.\Generated_Source\PSoC4/CYBLE_eventHandler.c ****         if((cyBle_eventHandlerFlag & CYBLE_CALLBACK) != 0u)
 496:.\Generated_Source\PSoC4/CYBLE_eventHandler.c ****         {
 497:.\Generated_Source\PSoC4/CYBLE_eventHandler.c ****             CyBle_UdssConfirmationEventHandler(eventParam);
 498:.\Generated_Source\PSoC4/CYBLE_eventHandler.c ****         }
 499:.\Generated_Source\PSoC4/CYBLE_eventHandler.c ****     #endif /* CYBLE_UDS_SERVER */
 500:.\Generated_Source\PSoC4/CYBLE_eventHandler.c ****     
 501:.\Generated_Source\PSoC4/CYBLE_eventHandler.c ****     #ifdef CYBLE_WPTS_SERVER
 502:.\Generated_Source\PSoC4/CYBLE_eventHandler.c ****         if((cyBle_eventHandlerFlag & CYBLE_CALLBACK) != 0u)
 503:.\Generated_Source\PSoC4/CYBLE_eventHandler.c ****         {
 504:.\Generated_Source\PSoC4/CYBLE_eventHandler.c ****             CyBle_WptssConfirmationEventHandler(eventParam);
 505:.\Generated_Source\PSoC4/CYBLE_eventHandler.c ****         }
 506:.\Generated_Source\PSoC4/CYBLE_eventHandler.c ****     #endif /* CYBLE_WPTS_SERVER */
 507:.\Generated_Source\PSoC4/CYBLE_eventHandler.c ****     
 508:.\Generated_Source\PSoC4/CYBLE_eventHandler.c ****     #ifdef CYBLE_WSS_SERVER
 509:.\Generated_Source\PSoC4/CYBLE_eventHandler.c ****         if((cyBle_eventHandlerFlag & CYBLE_CALLBACK) != 0u)
 510:.\Generated_Source\PSoC4/CYBLE_eventHandler.c ****         {
 511:.\Generated_Source\PSoC4/CYBLE_eventHandler.c ****             CyBle_WsssConfirmationEventHandler(eventParam);
 512:.\Generated_Source\PSoC4/CYBLE_eventHandler.c ****         }
 513:.\Generated_Source\PSoC4/CYBLE_eventHandler.c ****     #endif /* CYBLE_WSS_SERVER */
 514:.\Generated_Source\PSoC4/CYBLE_eventHandler.c ****     }
 515:.\Generated_Source\PSoC4/CYBLE_eventHandler.c **** }
 161              		.loc 1 515 0
 162 0008 BD46     		mov	sp, r7
 163 000a 02B0     		add	sp, sp, #8
 164              		@ sp needed
 165 000c 80BD     		pop	{r7, pc}
 166              		.cfi_endproc
 167              	.LFE3:
 168              		.size	CyBle_ValueConfirmation, .-CyBle_ValueConfirmation
 169              		.section	.text.CyBle_GattDisconnectEventHandler,"ax",%progbits
ARM GAS  C:\Users\igreg\AppData\Local\Temp\ccnO9ZHN.s 			page 13


 170              		.align	2
 171              		.code	16
 172              		.thumb_func
 173              		.type	CyBle_GattDisconnectEventHandler, %function
 174              	CyBle_GattDisconnectEventHandler:
 175              	.LFB4:
 516:.\Generated_Source\PSoC4/CYBLE_eventHandler.c **** 
 517:.\Generated_Source\PSoC4/CYBLE_eventHandler.c **** #endif /* CYBLE_GATT_ROLE_SERVER */
 518:.\Generated_Source\PSoC4/CYBLE_eventHandler.c **** 
 519:.\Generated_Source\PSoC4/CYBLE_eventHandler.c **** 
 520:.\Generated_Source\PSoC4/CYBLE_eventHandler.c **** #if (CYBLE_GATT_ROLE_CLIENT)
 521:.\Generated_Source\PSoC4/CYBLE_eventHandler.c **** 
 522:.\Generated_Source\PSoC4/CYBLE_eventHandler.c **** /****************************************************************************** 
 523:.\Generated_Source\PSoC4/CYBLE_eventHandler.c **** * Function Name: CyBle_GattcWriteResponseEventHandler
 524:.\Generated_Source\PSoC4/CYBLE_eventHandler.c **** ***************************************************************************//**
 525:.\Generated_Source\PSoC4/CYBLE_eventHandler.c **** * 
 526:.\Generated_Source\PSoC4/CYBLE_eventHandler.c **** *  Handles the Write response event from the BLE stack.
 527:.\Generated_Source\PSoC4/CYBLE_eventHandler.c **** * 
 528:.\Generated_Source\PSoC4/CYBLE_eventHandler.c **** *  \param eventParam: Pointer to a structure of type 'CYBLE_CONN_HANDLE_T'
 529:.\Generated_Source\PSoC4/CYBLE_eventHandler.c **** * 
 530:.\Generated_Source\PSoC4/CYBLE_eventHandler.c **** * \return
 531:.\Generated_Source\PSoC4/CYBLE_eventHandler.c **** *  None
 532:.\Generated_Source\PSoC4/CYBLE_eventHandler.c **** * 
 533:.\Generated_Source\PSoC4/CYBLE_eventHandler.c **** ******************************************************************************/
 534:.\Generated_Source\PSoC4/CYBLE_eventHandler.c **** static void CyBle_GattcWriteResponseEventHandler(const CYBLE_CONN_HANDLE_T *eventParam)
 535:.\Generated_Source\PSoC4/CYBLE_eventHandler.c **** {
 536:.\Generated_Source\PSoC4/CYBLE_eventHandler.c **** #ifdef CYBLE_ANCS_CLIENT
 537:.\Generated_Source\PSoC4/CYBLE_eventHandler.c ****     CyBle_AncscWriteResponseEventHandler(eventParam);
 538:.\Generated_Source\PSoC4/CYBLE_eventHandler.c **** #endif /* CYBLE_ANCS_CLIENT */
 539:.\Generated_Source\PSoC4/CYBLE_eventHandler.c **** 
 540:.\Generated_Source\PSoC4/CYBLE_eventHandler.c **** #ifdef CYBLE_ANS_CLIENT
 541:.\Generated_Source\PSoC4/CYBLE_eventHandler.c ****     if((cyBle_eventHandlerFlag & CYBLE_CALLBACK) != 0u)
 542:.\Generated_Source\PSoC4/CYBLE_eventHandler.c ****     {
 543:.\Generated_Source\PSoC4/CYBLE_eventHandler.c ****         CyBle_AnscWriteResponseEventHandler(eventParam);
 544:.\Generated_Source\PSoC4/CYBLE_eventHandler.c ****     }
 545:.\Generated_Source\PSoC4/CYBLE_eventHandler.c **** #endif /* CYBLE_ANS_CLIENT */
 546:.\Generated_Source\PSoC4/CYBLE_eventHandler.c **** 
 547:.\Generated_Source\PSoC4/CYBLE_eventHandler.c **** #ifdef CYBLE_BAS_CLIENT
 548:.\Generated_Source\PSoC4/CYBLE_eventHandler.c ****     if((cyBle_eventHandlerFlag & CYBLE_CALLBACK) != 0u)
 549:.\Generated_Source\PSoC4/CYBLE_eventHandler.c ****     {
 550:.\Generated_Source\PSoC4/CYBLE_eventHandler.c ****         CyBle_BascWriteResponseEventHandler(eventParam);
 551:.\Generated_Source\PSoC4/CYBLE_eventHandler.c ****     }
 552:.\Generated_Source\PSoC4/CYBLE_eventHandler.c **** #endif /* CYBLE_BAS_CLIENT */
 553:.\Generated_Source\PSoC4/CYBLE_eventHandler.c **** 
 554:.\Generated_Source\PSoC4/CYBLE_eventHandler.c **** #ifdef CYBLE_BCS_CLIENT
 555:.\Generated_Source\PSoC4/CYBLE_eventHandler.c ****     if((cyBle_eventHandlerFlag & CYBLE_CALLBACK) != 0u)
 556:.\Generated_Source\PSoC4/CYBLE_eventHandler.c ****     {
 557:.\Generated_Source\PSoC4/CYBLE_eventHandler.c ****         CyBle_BcscWriteResponseEventHandler(eventParam);
 558:.\Generated_Source\PSoC4/CYBLE_eventHandler.c ****     }
 559:.\Generated_Source\PSoC4/CYBLE_eventHandler.c **** #endif /* CYBLE_BCS_CLIENT */
 560:.\Generated_Source\PSoC4/CYBLE_eventHandler.c **** 
 561:.\Generated_Source\PSoC4/CYBLE_eventHandler.c **** #ifdef CYBLE_BLS_CLIENT
 562:.\Generated_Source\PSoC4/CYBLE_eventHandler.c ****     if((cyBle_eventHandlerFlag & CYBLE_CALLBACK) != 0u)
 563:.\Generated_Source\PSoC4/CYBLE_eventHandler.c ****     {
 564:.\Generated_Source\PSoC4/CYBLE_eventHandler.c ****         CyBle_BlscWriteResponseEventHandler(eventParam);
 565:.\Generated_Source\PSoC4/CYBLE_eventHandler.c ****     }
 566:.\Generated_Source\PSoC4/CYBLE_eventHandler.c **** #endif /* CYBLE_BLS_CLIENT */
ARM GAS  C:\Users\igreg\AppData\Local\Temp\ccnO9ZHN.s 			page 14


 567:.\Generated_Source\PSoC4/CYBLE_eventHandler.c **** 
 568:.\Generated_Source\PSoC4/CYBLE_eventHandler.c **** #ifdef CYBLE_BMS_CLIENT
 569:.\Generated_Source\PSoC4/CYBLE_eventHandler.c ****     if((cyBle_eventHandlerFlag & CYBLE_CALLBACK) != 0u)
 570:.\Generated_Source\PSoC4/CYBLE_eventHandler.c ****     {
 571:.\Generated_Source\PSoC4/CYBLE_eventHandler.c ****         CyBle_BmscWriteResponseEventHandler(eventParam);
 572:.\Generated_Source\PSoC4/CYBLE_eventHandler.c ****     }
 573:.\Generated_Source\PSoC4/CYBLE_eventHandler.c **** #endif /* CYBLE_BMS_CLIENT */
 574:.\Generated_Source\PSoC4/CYBLE_eventHandler.c **** 
 575:.\Generated_Source\PSoC4/CYBLE_eventHandler.c **** #ifdef CYBLE_CGMS_CLIENT
 576:.\Generated_Source\PSoC4/CYBLE_eventHandler.c ****     if((cyBle_eventHandlerFlag & CYBLE_CALLBACK) != 0u)
 577:.\Generated_Source\PSoC4/CYBLE_eventHandler.c ****     {
 578:.\Generated_Source\PSoC4/CYBLE_eventHandler.c ****         CyBle_CgmscWriteResponseEventHandler(eventParam);
 579:.\Generated_Source\PSoC4/CYBLE_eventHandler.c ****     }
 580:.\Generated_Source\PSoC4/CYBLE_eventHandler.c **** #endif /* CYBLE_CGMS_CLIENT */
 581:.\Generated_Source\PSoC4/CYBLE_eventHandler.c **** 
 582:.\Generated_Source\PSoC4/CYBLE_eventHandler.c **** #ifdef CYBLE_CPS_CLIENT
 583:.\Generated_Source\PSoC4/CYBLE_eventHandler.c ****     if((cyBle_eventHandlerFlag & CYBLE_CALLBACK) != 0u)
 584:.\Generated_Source\PSoC4/CYBLE_eventHandler.c ****     {
 585:.\Generated_Source\PSoC4/CYBLE_eventHandler.c ****         CyBle_CpscWriteResponseEventHandler(eventParam);
 586:.\Generated_Source\PSoC4/CYBLE_eventHandler.c ****     }
 587:.\Generated_Source\PSoC4/CYBLE_eventHandler.c **** #endif /* CYBLE_CPS_CLIENT */
 588:.\Generated_Source\PSoC4/CYBLE_eventHandler.c **** 
 589:.\Generated_Source\PSoC4/CYBLE_eventHandler.c **** #ifdef CYBLE_CSCS_CLIENT
 590:.\Generated_Source\PSoC4/CYBLE_eventHandler.c ****     if((cyBle_eventHandlerFlag & CYBLE_CALLBACK) != 0u)
 591:.\Generated_Source\PSoC4/CYBLE_eventHandler.c ****     {
 592:.\Generated_Source\PSoC4/CYBLE_eventHandler.c ****         CyBle_CscscWriteResponseEventHandler(eventParam);
 593:.\Generated_Source\PSoC4/CYBLE_eventHandler.c ****     }
 594:.\Generated_Source\PSoC4/CYBLE_eventHandler.c **** #endif /* CYBLE_CSCS_CLIENT */
 595:.\Generated_Source\PSoC4/CYBLE_eventHandler.c **** 
 596:.\Generated_Source\PSoC4/CYBLE_eventHandler.c **** #ifdef CYBLE_CTS_CLIENT
 597:.\Generated_Source\PSoC4/CYBLE_eventHandler.c ****     if((cyBle_eventHandlerFlag & CYBLE_CALLBACK) != 0u)
 598:.\Generated_Source\PSoC4/CYBLE_eventHandler.c ****     {
 599:.\Generated_Source\PSoC4/CYBLE_eventHandler.c ****         CyBle_CtscWriteResponseEventHandler(eventParam);
 600:.\Generated_Source\PSoC4/CYBLE_eventHandler.c ****     }
 601:.\Generated_Source\PSoC4/CYBLE_eventHandler.c **** #endif /* CYBLE_CTS_CLIENT */
 602:.\Generated_Source\PSoC4/CYBLE_eventHandler.c **** 
 603:.\Generated_Source\PSoC4/CYBLE_eventHandler.c **** #ifdef CYBLE_ESS_CLIENT
 604:.\Generated_Source\PSoC4/CYBLE_eventHandler.c ****     if((cyBle_eventHandlerFlag & CYBLE_CALLBACK) != 0u)
 605:.\Generated_Source\PSoC4/CYBLE_eventHandler.c ****     {
 606:.\Generated_Source\PSoC4/CYBLE_eventHandler.c ****         CyBle_EsscWriteResponseEventHandler(eventParam);
 607:.\Generated_Source\PSoC4/CYBLE_eventHandler.c ****     }
 608:.\Generated_Source\PSoC4/CYBLE_eventHandler.c **** #endif /* CYBLE_ESS_CLIENT */
 609:.\Generated_Source\PSoC4/CYBLE_eventHandler.c **** 
 610:.\Generated_Source\PSoC4/CYBLE_eventHandler.c **** #ifdef CYBLE_GLS_CLIENT
 611:.\Generated_Source\PSoC4/CYBLE_eventHandler.c ****     if((cyBle_eventHandlerFlag & CYBLE_CALLBACK) != 0u)
 612:.\Generated_Source\PSoC4/CYBLE_eventHandler.c ****     {
 613:.\Generated_Source\PSoC4/CYBLE_eventHandler.c ****         CyBle_GlscWriteResponseEventHandler(eventParam);
 614:.\Generated_Source\PSoC4/CYBLE_eventHandler.c ****     }
 615:.\Generated_Source\PSoC4/CYBLE_eventHandler.c **** #endif /* CYBLE_GLS_CLIENT */
 616:.\Generated_Source\PSoC4/CYBLE_eventHandler.c **** 
 617:.\Generated_Source\PSoC4/CYBLE_eventHandler.c **** #ifdef CYBLE_HIDS_CLIENT
 618:.\Generated_Source\PSoC4/CYBLE_eventHandler.c ****     if((cyBle_eventHandlerFlag & CYBLE_CALLBACK) != 0u)
 619:.\Generated_Source\PSoC4/CYBLE_eventHandler.c ****     {
 620:.\Generated_Source\PSoC4/CYBLE_eventHandler.c ****         CyBle_HidscWriteResponseEventHandler(eventParam);
 621:.\Generated_Source\PSoC4/CYBLE_eventHandler.c ****     }
 622:.\Generated_Source\PSoC4/CYBLE_eventHandler.c **** #endif /* CYBLE_HIDS_CLIENT */
 623:.\Generated_Source\PSoC4/CYBLE_eventHandler.c **** 
ARM GAS  C:\Users\igreg\AppData\Local\Temp\ccnO9ZHN.s 			page 15


 624:.\Generated_Source\PSoC4/CYBLE_eventHandler.c **** #ifdef CYBLE_HPS_CLIENT
 625:.\Generated_Source\PSoC4/CYBLE_eventHandler.c ****     if((cyBle_eventHandlerFlag & CYBLE_CALLBACK) != 0u)
 626:.\Generated_Source\PSoC4/CYBLE_eventHandler.c ****     {
 627:.\Generated_Source\PSoC4/CYBLE_eventHandler.c ****         CyBle_HpscWriteResponseEventHandler(eventParam);
 628:.\Generated_Source\PSoC4/CYBLE_eventHandler.c ****     }
 629:.\Generated_Source\PSoC4/CYBLE_eventHandler.c **** #endif /* CYBLE_HPS_CLIENT */
 630:.\Generated_Source\PSoC4/CYBLE_eventHandler.c **** 
 631:.\Generated_Source\PSoC4/CYBLE_eventHandler.c **** #ifdef CYBLE_HRS_CLIENT
 632:.\Generated_Source\PSoC4/CYBLE_eventHandler.c ****     if((cyBle_eventHandlerFlag & CYBLE_CALLBACK) != 0u)
 633:.\Generated_Source\PSoC4/CYBLE_eventHandler.c ****     {
 634:.\Generated_Source\PSoC4/CYBLE_eventHandler.c ****         CyBle_HrscWriteResponseEventHandler(eventParam);
 635:.\Generated_Source\PSoC4/CYBLE_eventHandler.c ****     }
 636:.\Generated_Source\PSoC4/CYBLE_eventHandler.c **** #endif /* CYBLE_HRS_CLIENT */
 637:.\Generated_Source\PSoC4/CYBLE_eventHandler.c **** 
 638:.\Generated_Source\PSoC4/CYBLE_eventHandler.c **** #ifdef CYBLE_HTS_CLIENT
 639:.\Generated_Source\PSoC4/CYBLE_eventHandler.c ****     if((cyBle_eventHandlerFlag & CYBLE_CALLBACK) != 0u)
 640:.\Generated_Source\PSoC4/CYBLE_eventHandler.c ****     {
 641:.\Generated_Source\PSoC4/CYBLE_eventHandler.c ****         CyBle_HtscWriteResponseEventHandler(eventParam);
 642:.\Generated_Source\PSoC4/CYBLE_eventHandler.c ****     }
 643:.\Generated_Source\PSoC4/CYBLE_eventHandler.c **** #endif /* CYBLE_HTS_CLIENT */
 644:.\Generated_Source\PSoC4/CYBLE_eventHandler.c **** 
 645:.\Generated_Source\PSoC4/CYBLE_eventHandler.c **** #ifdef CYBLE_LLS_CLIENT
 646:.\Generated_Source\PSoC4/CYBLE_eventHandler.c ****     if((cyBle_eventHandlerFlag & CYBLE_CALLBACK) != 0u)
 647:.\Generated_Source\PSoC4/CYBLE_eventHandler.c ****     {
 648:.\Generated_Source\PSoC4/CYBLE_eventHandler.c ****         CyBle_LlscWriteResponseEventHandler(eventParam);
 649:.\Generated_Source\PSoC4/CYBLE_eventHandler.c ****     }
 650:.\Generated_Source\PSoC4/CYBLE_eventHandler.c **** #endif /* CYBLE_LLS_CLIENT */
 651:.\Generated_Source\PSoC4/CYBLE_eventHandler.c **** 
 652:.\Generated_Source\PSoC4/CYBLE_eventHandler.c **** #ifdef CYBLE_LNS_CLIENT
 653:.\Generated_Source\PSoC4/CYBLE_eventHandler.c ****     if((cyBle_eventHandlerFlag & CYBLE_CALLBACK) != 0u)
 654:.\Generated_Source\PSoC4/CYBLE_eventHandler.c ****     {
 655:.\Generated_Source\PSoC4/CYBLE_eventHandler.c ****         CyBle_LnscWriteResponseEventHandler(eventParam);
 656:.\Generated_Source\PSoC4/CYBLE_eventHandler.c ****     }
 657:.\Generated_Source\PSoC4/CYBLE_eventHandler.c **** #endif /* CYBLE_LNS_CLIENT */
 658:.\Generated_Source\PSoC4/CYBLE_eventHandler.c **** 
 659:.\Generated_Source\PSoC4/CYBLE_eventHandler.c **** #ifdef CYBLE_PASS_CLIENT
 660:.\Generated_Source\PSoC4/CYBLE_eventHandler.c ****     if((cyBle_eventHandlerFlag & CYBLE_CALLBACK) != 0u)
 661:.\Generated_Source\PSoC4/CYBLE_eventHandler.c ****     {
 662:.\Generated_Source\PSoC4/CYBLE_eventHandler.c ****         CyBle_PasscWriteResponseEventHandler(eventParam);
 663:.\Generated_Source\PSoC4/CYBLE_eventHandler.c ****     }
 664:.\Generated_Source\PSoC4/CYBLE_eventHandler.c **** #endif /* CYBLE_PASS_CLIENT */
 665:.\Generated_Source\PSoC4/CYBLE_eventHandler.c **** 
 666:.\Generated_Source\PSoC4/CYBLE_eventHandler.c **** #ifdef CYBLE_RSCS_CLIENT
 667:.\Generated_Source\PSoC4/CYBLE_eventHandler.c ****     if((cyBle_eventHandlerFlag & CYBLE_CALLBACK) != 0u)
 668:.\Generated_Source\PSoC4/CYBLE_eventHandler.c ****     {
 669:.\Generated_Source\PSoC4/CYBLE_eventHandler.c ****         CyBle_RscscWriteResponseEventHandler(eventParam);
 670:.\Generated_Source\PSoC4/CYBLE_eventHandler.c ****     }
 671:.\Generated_Source\PSoC4/CYBLE_eventHandler.c **** #endif /* CYBLE_RSCS_CLIENT */
 672:.\Generated_Source\PSoC4/CYBLE_eventHandler.c **** 
 673:.\Generated_Source\PSoC4/CYBLE_eventHandler.c **** #ifdef CYBLE_SCPS_CLIENT
 674:.\Generated_Source\PSoC4/CYBLE_eventHandler.c ****     if((cyBle_eventHandlerFlag & CYBLE_CALLBACK) != 0u)
 675:.\Generated_Source\PSoC4/CYBLE_eventHandler.c ****     {
 676:.\Generated_Source\PSoC4/CYBLE_eventHandler.c ****         CyBle_ScpscWriteResponseEventHandler(eventParam);
 677:.\Generated_Source\PSoC4/CYBLE_eventHandler.c ****     }
 678:.\Generated_Source\PSoC4/CYBLE_eventHandler.c **** #endif /* CYBLE_SCPS_CLIENT */
 679:.\Generated_Source\PSoC4/CYBLE_eventHandler.c **** 
 680:.\Generated_Source\PSoC4/CYBLE_eventHandler.c **** #ifdef CYBLE_TPS_CLIENT
ARM GAS  C:\Users\igreg\AppData\Local\Temp\ccnO9ZHN.s 			page 16


 681:.\Generated_Source\PSoC4/CYBLE_eventHandler.c ****     if((cyBle_eventHandlerFlag & CYBLE_CALLBACK) != 0u)
 682:.\Generated_Source\PSoC4/CYBLE_eventHandler.c ****     {
 683:.\Generated_Source\PSoC4/CYBLE_eventHandler.c ****         CyBle_TpscWriteResponseEventHandler(eventParam);
 684:.\Generated_Source\PSoC4/CYBLE_eventHandler.c ****     }
 685:.\Generated_Source\PSoC4/CYBLE_eventHandler.c **** #endif /* CYBLE_TPS_CLIENT */
 686:.\Generated_Source\PSoC4/CYBLE_eventHandler.c **** 
 687:.\Generated_Source\PSoC4/CYBLE_eventHandler.c **** #ifdef CYBLE_UDS_CLIENT
 688:.\Generated_Source\PSoC4/CYBLE_eventHandler.c ****     if((cyBle_eventHandlerFlag & CYBLE_CALLBACK) != 0u)
 689:.\Generated_Source\PSoC4/CYBLE_eventHandler.c ****     {
 690:.\Generated_Source\PSoC4/CYBLE_eventHandler.c ****         CyBle_UdscWriteResponseEventHandler(eventParam);
 691:.\Generated_Source\PSoC4/CYBLE_eventHandler.c ****     }
 692:.\Generated_Source\PSoC4/CYBLE_eventHandler.c **** #endif /* CYBLE_UDS_CLIENT */
 693:.\Generated_Source\PSoC4/CYBLE_eventHandler.c **** #ifdef CYBLE_WPTS_CLIENT
 694:.\Generated_Source\PSoC4/CYBLE_eventHandler.c ****     if((cyBle_eventHandlerFlag & CYBLE_CALLBACK) != 0u)
 695:.\Generated_Source\PSoC4/CYBLE_eventHandler.c ****     {
 696:.\Generated_Source\PSoC4/CYBLE_eventHandler.c ****         CyBle_WptscWriteResponseEventHandler(eventParam);
 697:.\Generated_Source\PSoC4/CYBLE_eventHandler.c ****     }
 698:.\Generated_Source\PSoC4/CYBLE_eventHandler.c **** #endif /* CYBLE_WPTS_CLIENT */
 699:.\Generated_Source\PSoC4/CYBLE_eventHandler.c **** #ifdef CYBLE_WSS_CLIENT
 700:.\Generated_Source\PSoC4/CYBLE_eventHandler.c ****     if((cyBle_eventHandlerFlag & CYBLE_CALLBACK) != 0u)
 701:.\Generated_Source\PSoC4/CYBLE_eventHandler.c ****     {
 702:.\Generated_Source\PSoC4/CYBLE_eventHandler.c ****         CyBle_WsscWriteResponseEventHandler(eventParam);
 703:.\Generated_Source\PSoC4/CYBLE_eventHandler.c ****     }
 704:.\Generated_Source\PSoC4/CYBLE_eventHandler.c **** #endif /* CYBLE_WSS_CLIENT */
 705:.\Generated_Source\PSoC4/CYBLE_eventHandler.c **** }
 706:.\Generated_Source\PSoC4/CYBLE_eventHandler.c **** 
 707:.\Generated_Source\PSoC4/CYBLE_eventHandler.c **** 
 708:.\Generated_Source\PSoC4/CYBLE_eventHandler.c **** /******************************************************************************    
 709:.\Generated_Source\PSoC4/CYBLE_eventHandler.c **** * Function Name: CyBle_NotificationEventHandler
 710:.\Generated_Source\PSoC4/CYBLE_eventHandler.c **** ***************************************************************************//**
 711:.\Generated_Source\PSoC4/CYBLE_eventHandler.c **** * 
 712:.\Generated_Source\PSoC4/CYBLE_eventHandler.c **** *  Handles the Notification event from BLE stack.
 713:.\Generated_Source\PSoC4/CYBLE_eventHandler.c **** * 
 714:.\Generated_Source\PSoC4/CYBLE_eventHandler.c **** *  \param eventParam: event parameter
 715:.\Generated_Source\PSoC4/CYBLE_eventHandler.c **** * 
 716:.\Generated_Source\PSoC4/CYBLE_eventHandler.c **** * \return
 717:.\Generated_Source\PSoC4/CYBLE_eventHandler.c **** *  None
 718:.\Generated_Source\PSoC4/CYBLE_eventHandler.c **** * 
 719:.\Generated_Source\PSoC4/CYBLE_eventHandler.c **** ******************************************************************************/
 720:.\Generated_Source\PSoC4/CYBLE_eventHandler.c **** static void CyBle_NotificationEventHandler(CYBLE_GATTC_HANDLE_VALUE_NTF_PARAM_T *eventParam)
 721:.\Generated_Source\PSoC4/CYBLE_eventHandler.c **** {
 722:.\Generated_Source\PSoC4/CYBLE_eventHandler.c **** #ifdef CYBLE_ANCS_CLIENT
 723:.\Generated_Source\PSoC4/CYBLE_eventHandler.c ****     CyBle_AncscNotificationEventHandler(eventParam);
 724:.\Generated_Source\PSoC4/CYBLE_eventHandler.c **** #endif /* CYBLE_ANCS_CLIENT */
 725:.\Generated_Source\PSoC4/CYBLE_eventHandler.c **** #ifdef CYBLE_ANS_CLIENT
 726:.\Generated_Source\PSoC4/CYBLE_eventHandler.c ****     if((cyBle_eventHandlerFlag & CYBLE_CALLBACK) != 0u)
 727:.\Generated_Source\PSoC4/CYBLE_eventHandler.c ****     {
 728:.\Generated_Source\PSoC4/CYBLE_eventHandler.c ****         CyBle_AnscNotificationEventHandler(eventParam);
 729:.\Generated_Source\PSoC4/CYBLE_eventHandler.c ****     }
 730:.\Generated_Source\PSoC4/CYBLE_eventHandler.c **** #endif /* CYBLE_ANS_CLIENT */
 731:.\Generated_Source\PSoC4/CYBLE_eventHandler.c **** #ifdef CYBLE_BAS_CLIENT
 732:.\Generated_Source\PSoC4/CYBLE_eventHandler.c ****     if((cyBle_eventHandlerFlag & CYBLE_CALLBACK) != 0u)
 733:.\Generated_Source\PSoC4/CYBLE_eventHandler.c ****     {
 734:.\Generated_Source\PSoC4/CYBLE_eventHandler.c ****         CyBle_BascNotificationEventHandler(eventParam);
 735:.\Generated_Source\PSoC4/CYBLE_eventHandler.c ****     }
 736:.\Generated_Source\PSoC4/CYBLE_eventHandler.c **** #endif /* CYBLE_BAS_CLIENT */
 737:.\Generated_Source\PSoC4/CYBLE_eventHandler.c **** #ifdef CYBLE_BLS_CLIENT
ARM GAS  C:\Users\igreg\AppData\Local\Temp\ccnO9ZHN.s 			page 17


 738:.\Generated_Source\PSoC4/CYBLE_eventHandler.c ****     if((cyBle_eventHandlerFlag & CYBLE_CALLBACK) != 0u)
 739:.\Generated_Source\PSoC4/CYBLE_eventHandler.c ****     {
 740:.\Generated_Source\PSoC4/CYBLE_eventHandler.c ****         CyBle_BlscNotificationEventHandler(eventParam);
 741:.\Generated_Source\PSoC4/CYBLE_eventHandler.c ****     }
 742:.\Generated_Source\PSoC4/CYBLE_eventHandler.c **** #endif /* CYBLE_BLS_CLIENT */
 743:.\Generated_Source\PSoC4/CYBLE_eventHandler.c **** #ifdef CYBLE_CGMS_CLIENT
 744:.\Generated_Source\PSoC4/CYBLE_eventHandler.c ****     if((cyBle_eventHandlerFlag & CYBLE_CALLBACK) != 0u)
 745:.\Generated_Source\PSoC4/CYBLE_eventHandler.c ****     {
 746:.\Generated_Source\PSoC4/CYBLE_eventHandler.c ****         CyBle_CgmscNotificationEventHandler(eventParam);
 747:.\Generated_Source\PSoC4/CYBLE_eventHandler.c ****     }
 748:.\Generated_Source\PSoC4/CYBLE_eventHandler.c **** #endif /* CYBLE_CGMS_CLIENT */
 749:.\Generated_Source\PSoC4/CYBLE_eventHandler.c **** #ifdef CYBLE_CPS_CLIENT
 750:.\Generated_Source\PSoC4/CYBLE_eventHandler.c ****     if((cyBle_eventHandlerFlag & CYBLE_CALLBACK) != 0u)
 751:.\Generated_Source\PSoC4/CYBLE_eventHandler.c ****     {
 752:.\Generated_Source\PSoC4/CYBLE_eventHandler.c ****         CyBle_CpscNotificationEventHandler(eventParam);
 753:.\Generated_Source\PSoC4/CYBLE_eventHandler.c ****     }
 754:.\Generated_Source\PSoC4/CYBLE_eventHandler.c **** #endif /* CYBLE_CPS_CLIENT */
 755:.\Generated_Source\PSoC4/CYBLE_eventHandler.c **** #ifdef CYBLE_CSCS_CLIENT
 756:.\Generated_Source\PSoC4/CYBLE_eventHandler.c ****     if((cyBle_eventHandlerFlag & CYBLE_CALLBACK) != 0u)
 757:.\Generated_Source\PSoC4/CYBLE_eventHandler.c ****     {
 758:.\Generated_Source\PSoC4/CYBLE_eventHandler.c ****         CyBle_CscscNotificationEventHandler(eventParam);
 759:.\Generated_Source\PSoC4/CYBLE_eventHandler.c ****     }
 760:.\Generated_Source\PSoC4/CYBLE_eventHandler.c **** #endif /* CYBLE_CSCS_CLIENT */
 761:.\Generated_Source\PSoC4/CYBLE_eventHandler.c **** #ifdef CYBLE_CTS_CLIENT
 762:.\Generated_Source\PSoC4/CYBLE_eventHandler.c ****     if((cyBle_eventHandlerFlag & CYBLE_CALLBACK) != 0u)
 763:.\Generated_Source\PSoC4/CYBLE_eventHandler.c ****     {
 764:.\Generated_Source\PSoC4/CYBLE_eventHandler.c ****         CyBle_CtscNotificationEventHandler(eventParam);
 765:.\Generated_Source\PSoC4/CYBLE_eventHandler.c ****     }
 766:.\Generated_Source\PSoC4/CYBLE_eventHandler.c **** #endif /* CYBLE_CTS_CLIENT */
 767:.\Generated_Source\PSoC4/CYBLE_eventHandler.c **** #ifdef CYBLE_ESS_CLIENT
 768:.\Generated_Source\PSoC4/CYBLE_eventHandler.c ****     if((cyBle_eventHandlerFlag & CYBLE_CALLBACK) != 0u)
 769:.\Generated_Source\PSoC4/CYBLE_eventHandler.c ****     {
 770:.\Generated_Source\PSoC4/CYBLE_eventHandler.c ****         CyBle_EsscNotificationEventHandler(eventParam);
 771:.\Generated_Source\PSoC4/CYBLE_eventHandler.c ****     }
 772:.\Generated_Source\PSoC4/CYBLE_eventHandler.c **** #endif /* CYBLE_ESS_CLIENT */
 773:.\Generated_Source\PSoC4/CYBLE_eventHandler.c **** #ifdef CYBLE_GLS_CLIENT
 774:.\Generated_Source\PSoC4/CYBLE_eventHandler.c ****     if((cyBle_eventHandlerFlag & CYBLE_CALLBACK) != 0u)
 775:.\Generated_Source\PSoC4/CYBLE_eventHandler.c ****     {
 776:.\Generated_Source\PSoC4/CYBLE_eventHandler.c ****         CyBle_GlscNotificationEventHandler(eventParam);
 777:.\Generated_Source\PSoC4/CYBLE_eventHandler.c ****     }
 778:.\Generated_Source\PSoC4/CYBLE_eventHandler.c **** #endif /* CYBLE_GLS_CLIENT */
 779:.\Generated_Source\PSoC4/CYBLE_eventHandler.c **** #ifdef CYBLE_HIDS_CLIENT
 780:.\Generated_Source\PSoC4/CYBLE_eventHandler.c ****     if((cyBle_eventHandlerFlag & CYBLE_CALLBACK) != 0u)
 781:.\Generated_Source\PSoC4/CYBLE_eventHandler.c ****     {
 782:.\Generated_Source\PSoC4/CYBLE_eventHandler.c ****         CyBle_HidscNotificationEventHandler(eventParam);
 783:.\Generated_Source\PSoC4/CYBLE_eventHandler.c ****     }
 784:.\Generated_Source\PSoC4/CYBLE_eventHandler.c **** #endif /* CYBLE_HIDS_CLIENT */
 785:.\Generated_Source\PSoC4/CYBLE_eventHandler.c **** #ifdef CYBLE_HPS_CLIENT
 786:.\Generated_Source\PSoC4/CYBLE_eventHandler.c ****     if((cyBle_eventHandlerFlag & CYBLE_CALLBACK) != 0u)
 787:.\Generated_Source\PSoC4/CYBLE_eventHandler.c ****     {
 788:.\Generated_Source\PSoC4/CYBLE_eventHandler.c ****         CyBle_HpscNotificationEventHandler(eventParam);
 789:.\Generated_Source\PSoC4/CYBLE_eventHandler.c ****     }
 790:.\Generated_Source\PSoC4/CYBLE_eventHandler.c **** #endif /* CYBLE_HPS_CLIENT */
 791:.\Generated_Source\PSoC4/CYBLE_eventHandler.c **** #ifdef CYBLE_HRS_CLIENT
 792:.\Generated_Source\PSoC4/CYBLE_eventHandler.c ****     if((cyBle_eventHandlerFlag & CYBLE_CALLBACK) != 0u)
 793:.\Generated_Source\PSoC4/CYBLE_eventHandler.c ****     {
 794:.\Generated_Source\PSoC4/CYBLE_eventHandler.c ****         CyBle_HrscNotificationEventHandler(eventParam);
ARM GAS  C:\Users\igreg\AppData\Local\Temp\ccnO9ZHN.s 			page 18


 795:.\Generated_Source\PSoC4/CYBLE_eventHandler.c ****     }
 796:.\Generated_Source\PSoC4/CYBLE_eventHandler.c **** #endif /* CYBLE_HRS_CLIENT */
 797:.\Generated_Source\PSoC4/CYBLE_eventHandler.c **** #ifdef CYBLE_HTS_CLIENT
 798:.\Generated_Source\PSoC4/CYBLE_eventHandler.c ****     if((cyBle_eventHandlerFlag & CYBLE_CALLBACK) != 0u)
 799:.\Generated_Source\PSoC4/CYBLE_eventHandler.c ****     {
 800:.\Generated_Source\PSoC4/CYBLE_eventHandler.c ****         CyBle_HtscNotificationEventHandler(eventParam);
 801:.\Generated_Source\PSoC4/CYBLE_eventHandler.c ****     }
 802:.\Generated_Source\PSoC4/CYBLE_eventHandler.c **** #endif /* CYBLE_HTS_CLIENT */
 803:.\Generated_Source\PSoC4/CYBLE_eventHandler.c **** #ifdef CYBLE_LNS_CLIENT
 804:.\Generated_Source\PSoC4/CYBLE_eventHandler.c ****     if((cyBle_eventHandlerFlag & CYBLE_CALLBACK) != 0u)
 805:.\Generated_Source\PSoC4/CYBLE_eventHandler.c ****     {
 806:.\Generated_Source\PSoC4/CYBLE_eventHandler.c ****         CyBle_LnscNotificationEventHandler(eventParam);
 807:.\Generated_Source\PSoC4/CYBLE_eventHandler.c ****     }
 808:.\Generated_Source\PSoC4/CYBLE_eventHandler.c **** #endif /* CYBLE_LNS_CLIENT */
 809:.\Generated_Source\PSoC4/CYBLE_eventHandler.c **** #ifdef CYBLE_PASS_CLIENT
 810:.\Generated_Source\PSoC4/CYBLE_eventHandler.c ****     if((cyBle_eventHandlerFlag & CYBLE_CALLBACK) != 0u)
 811:.\Generated_Source\PSoC4/CYBLE_eventHandler.c ****     {
 812:.\Generated_Source\PSoC4/CYBLE_eventHandler.c ****         CyBle_PasscNotificationEventHandler(eventParam);
 813:.\Generated_Source\PSoC4/CYBLE_eventHandler.c ****     }
 814:.\Generated_Source\PSoC4/CYBLE_eventHandler.c **** #endif /* CYBLE_PASS_CLIENT */
 815:.\Generated_Source\PSoC4/CYBLE_eventHandler.c **** #ifdef CYBLE_RSCS_CLIENT
 816:.\Generated_Source\PSoC4/CYBLE_eventHandler.c ****     if((cyBle_eventHandlerFlag & CYBLE_CALLBACK) != 0u)
 817:.\Generated_Source\PSoC4/CYBLE_eventHandler.c ****     {
 818:.\Generated_Source\PSoC4/CYBLE_eventHandler.c ****         CyBle_RscscNotificationEventHandler(eventParam);
 819:.\Generated_Source\PSoC4/CYBLE_eventHandler.c ****     }
 820:.\Generated_Source\PSoC4/CYBLE_eventHandler.c **** #endif /* CYBLE_RSCS_CLIENT */
 821:.\Generated_Source\PSoC4/CYBLE_eventHandler.c **** #ifdef CYBLE_SCPS_CLIENT
 822:.\Generated_Source\PSoC4/CYBLE_eventHandler.c ****     if((cyBle_eventHandlerFlag & CYBLE_CALLBACK) != 0u)
 823:.\Generated_Source\PSoC4/CYBLE_eventHandler.c ****     {
 824:.\Generated_Source\PSoC4/CYBLE_eventHandler.c ****         CyBle_ScpscNotificationEventHandler(eventParam);
 825:.\Generated_Source\PSoC4/CYBLE_eventHandler.c ****     }
 826:.\Generated_Source\PSoC4/CYBLE_eventHandler.c **** #endif /* CYBLE_SCPS_CLIENT */
 827:.\Generated_Source\PSoC4/CYBLE_eventHandler.c **** #ifdef CYBLE_TPS_CLIENT
 828:.\Generated_Source\PSoC4/CYBLE_eventHandler.c ****     if((cyBle_eventHandlerFlag & CYBLE_CALLBACK) != 0u)
 829:.\Generated_Source\PSoC4/CYBLE_eventHandler.c ****     {
 830:.\Generated_Source\PSoC4/CYBLE_eventHandler.c ****         CyBle_TpscNotificationEventHandler(eventParam);
 831:.\Generated_Source\PSoC4/CYBLE_eventHandler.c ****     }
 832:.\Generated_Source\PSoC4/CYBLE_eventHandler.c **** #endif /* CYBLE_TPS_CLIENT */
 833:.\Generated_Source\PSoC4/CYBLE_eventHandler.c **** #ifdef CYBLE_UDS_CLIENT
 834:.\Generated_Source\PSoC4/CYBLE_eventHandler.c ****     if((cyBle_eventHandlerFlag & CYBLE_CALLBACK) != 0u)
 835:.\Generated_Source\PSoC4/CYBLE_eventHandler.c ****     {
 836:.\Generated_Source\PSoC4/CYBLE_eventHandler.c ****         CyBle_UdscNotificationEventHandler(eventParam);
 837:.\Generated_Source\PSoC4/CYBLE_eventHandler.c ****     }
 838:.\Generated_Source\PSoC4/CYBLE_eventHandler.c **** #endif /* CYBLE_UDS_CLIENT */
 839:.\Generated_Source\PSoC4/CYBLE_eventHandler.c **** #ifdef CYBLE_WPTS_CLIENT
 840:.\Generated_Source\PSoC4/CYBLE_eventHandler.c ****     if((cyBle_eventHandlerFlag & CYBLE_CALLBACK) != 0u)
 841:.\Generated_Source\PSoC4/CYBLE_eventHandler.c ****     {
 842:.\Generated_Source\PSoC4/CYBLE_eventHandler.c ****         CyBle_WptscNotificationEventHandler(eventParam);
 843:.\Generated_Source\PSoC4/CYBLE_eventHandler.c ****     }
 844:.\Generated_Source\PSoC4/CYBLE_eventHandler.c **** #endif /* CYBLE_WPTS_CLIENT */
 845:.\Generated_Source\PSoC4/CYBLE_eventHandler.c **** }
 846:.\Generated_Source\PSoC4/CYBLE_eventHandler.c **** 
 847:.\Generated_Source\PSoC4/CYBLE_eventHandler.c **** 
 848:.\Generated_Source\PSoC4/CYBLE_eventHandler.c **** /******************************************************************************    
 849:.\Generated_Source\PSoC4/CYBLE_eventHandler.c **** * Function Name: CyBle_IndicationEventHandler
 850:.\Generated_Source\PSoC4/CYBLE_eventHandler.c **** ***************************************************************************//**
 851:.\Generated_Source\PSoC4/CYBLE_eventHandler.c **** * 
ARM GAS  C:\Users\igreg\AppData\Local\Temp\ccnO9ZHN.s 			page 19


 852:.\Generated_Source\PSoC4/CYBLE_eventHandler.c **** *  Handles the Indication event from BLE stack.
 853:.\Generated_Source\PSoC4/CYBLE_eventHandler.c **** * 
 854:.\Generated_Source\PSoC4/CYBLE_eventHandler.c **** *  \param eventParam: event parameter
 855:.\Generated_Source\PSoC4/CYBLE_eventHandler.c **** * 
 856:.\Generated_Source\PSoC4/CYBLE_eventHandler.c **** * \return
 857:.\Generated_Source\PSoC4/CYBLE_eventHandler.c **** *  None
 858:.\Generated_Source\PSoC4/CYBLE_eventHandler.c **** * 
 859:.\Generated_Source\PSoC4/CYBLE_eventHandler.c **** ******************************************************************************/
 860:.\Generated_Source\PSoC4/CYBLE_eventHandler.c **** static void CyBle_IndicationEventHandler(CYBLE_GATTC_HANDLE_VALUE_IND_PARAM_T *eventParam)
 861:.\Generated_Source\PSoC4/CYBLE_eventHandler.c **** {
 862:.\Generated_Source\PSoC4/CYBLE_eventHandler.c **** #ifdef CYBLE_BCS_CLIENT
 863:.\Generated_Source\PSoC4/CYBLE_eventHandler.c ****     if((cyBle_eventHandlerFlag & CYBLE_CALLBACK) != 0u)
 864:.\Generated_Source\PSoC4/CYBLE_eventHandler.c ****     {
 865:.\Generated_Source\PSoC4/CYBLE_eventHandler.c ****         CyBle_BcscIndicationEventHandler(eventParam);
 866:.\Generated_Source\PSoC4/CYBLE_eventHandler.c ****     }
 867:.\Generated_Source\PSoC4/CYBLE_eventHandler.c **** #endif /* CYBLE_BCS_CLIENT */
 868:.\Generated_Source\PSoC4/CYBLE_eventHandler.c **** #ifdef CYBLE_BLS_CLIENT
 869:.\Generated_Source\PSoC4/CYBLE_eventHandler.c ****     if((cyBle_eventHandlerFlag & CYBLE_CALLBACK) != 0u)
 870:.\Generated_Source\PSoC4/CYBLE_eventHandler.c ****     {
 871:.\Generated_Source\PSoC4/CYBLE_eventHandler.c ****         CyBle_BlscIndicationEventHandler(eventParam);
 872:.\Generated_Source\PSoC4/CYBLE_eventHandler.c ****     }
 873:.\Generated_Source\PSoC4/CYBLE_eventHandler.c **** #endif /* CYBLE_BLS_CLIENT */
 874:.\Generated_Source\PSoC4/CYBLE_eventHandler.c **** #ifdef CYBLE_CGMS_CLIENT
 875:.\Generated_Source\PSoC4/CYBLE_eventHandler.c ****     if((cyBle_eventHandlerFlag & CYBLE_CALLBACK) != 0u)
 876:.\Generated_Source\PSoC4/CYBLE_eventHandler.c ****     {
 877:.\Generated_Source\PSoC4/CYBLE_eventHandler.c ****         CyBle_CgmscIndicationEventHandler(eventParam);
 878:.\Generated_Source\PSoC4/CYBLE_eventHandler.c ****     }
 879:.\Generated_Source\PSoC4/CYBLE_eventHandler.c **** #endif /* CYBLE_CGMS_CLIENT */
 880:.\Generated_Source\PSoC4/CYBLE_eventHandler.c **** #ifdef CYBLE_CPS_CLIENT
 881:.\Generated_Source\PSoC4/CYBLE_eventHandler.c ****     if((cyBle_eventHandlerFlag & CYBLE_CALLBACK) != 0u)
 882:.\Generated_Source\PSoC4/CYBLE_eventHandler.c ****     {
 883:.\Generated_Source\PSoC4/CYBLE_eventHandler.c ****         CyBle_CpscIndicationEventHandler(eventParam);
 884:.\Generated_Source\PSoC4/CYBLE_eventHandler.c ****     }
 885:.\Generated_Source\PSoC4/CYBLE_eventHandler.c **** #endif /* CYBLE_CPS_CLIENT */
 886:.\Generated_Source\PSoC4/CYBLE_eventHandler.c **** #ifdef CYBLE_CSCS_CLIENT
 887:.\Generated_Source\PSoC4/CYBLE_eventHandler.c ****     if((cyBle_eventHandlerFlag & CYBLE_CALLBACK) != 0u)
 888:.\Generated_Source\PSoC4/CYBLE_eventHandler.c ****     {
 889:.\Generated_Source\PSoC4/CYBLE_eventHandler.c ****         CyBle_CscscIndicationEventHandler(eventParam);
 890:.\Generated_Source\PSoC4/CYBLE_eventHandler.c ****     }
 891:.\Generated_Source\PSoC4/CYBLE_eventHandler.c **** #endif /* CYBLE_CSCS_CLIENT */
 892:.\Generated_Source\PSoC4/CYBLE_eventHandler.c **** #ifdef CYBLE_ESS_CLIENT
 893:.\Generated_Source\PSoC4/CYBLE_eventHandler.c ****     if((cyBle_eventHandlerFlag & CYBLE_CALLBACK) != 0u)
 894:.\Generated_Source\PSoC4/CYBLE_eventHandler.c ****     {
 895:.\Generated_Source\PSoC4/CYBLE_eventHandler.c ****         CyBle_EsscIndicationEventHandler(eventParam);
 896:.\Generated_Source\PSoC4/CYBLE_eventHandler.c ****     }
 897:.\Generated_Source\PSoC4/CYBLE_eventHandler.c **** #endif /* CYBLE_ESS_CLIENT */
 898:.\Generated_Source\PSoC4/CYBLE_eventHandler.c **** #ifdef CYBLE_GLS_CLIENT
 899:.\Generated_Source\PSoC4/CYBLE_eventHandler.c ****     if((cyBle_eventHandlerFlag & CYBLE_CALLBACK) != 0u)
 900:.\Generated_Source\PSoC4/CYBLE_eventHandler.c ****     {
 901:.\Generated_Source\PSoC4/CYBLE_eventHandler.c ****         CyBle_GlscIndicationEventHandler(eventParam);
 902:.\Generated_Source\PSoC4/CYBLE_eventHandler.c ****     }
 903:.\Generated_Source\PSoC4/CYBLE_eventHandler.c **** #endif /* CYBLE_GLS_CLIENT */
 904:.\Generated_Source\PSoC4/CYBLE_eventHandler.c **** #ifdef CYBLE_HTS_CLIENT
 905:.\Generated_Source\PSoC4/CYBLE_eventHandler.c ****     if((cyBle_eventHandlerFlag & CYBLE_CALLBACK) != 0u)
 906:.\Generated_Source\PSoC4/CYBLE_eventHandler.c ****     {
 907:.\Generated_Source\PSoC4/CYBLE_eventHandler.c ****         CyBle_HtscIndicationEventHandler(eventParam);
 908:.\Generated_Source\PSoC4/CYBLE_eventHandler.c ****     }
ARM GAS  C:\Users\igreg\AppData\Local\Temp\ccnO9ZHN.s 			page 20


 909:.\Generated_Source\PSoC4/CYBLE_eventHandler.c **** #endif /* CYBLE_HTS_CLIENT */
 910:.\Generated_Source\PSoC4/CYBLE_eventHandler.c **** #ifdef CYBLE_LNS_CLIENT
 911:.\Generated_Source\PSoC4/CYBLE_eventHandler.c ****     if((cyBle_eventHandlerFlag & CYBLE_CALLBACK) != 0u)
 912:.\Generated_Source\PSoC4/CYBLE_eventHandler.c ****     {
 913:.\Generated_Source\PSoC4/CYBLE_eventHandler.c ****         CyBle_LnscIndicationEventHandler(eventParam);
 914:.\Generated_Source\PSoC4/CYBLE_eventHandler.c ****     }
 915:.\Generated_Source\PSoC4/CYBLE_eventHandler.c **** #endif /* CYBLE_LNS_CLIENT */
 916:.\Generated_Source\PSoC4/CYBLE_eventHandler.c **** #ifdef CYBLE_RSCS_CLIENT
 917:.\Generated_Source\PSoC4/CYBLE_eventHandler.c ****     if((cyBle_eventHandlerFlag & CYBLE_CALLBACK) != 0u)
 918:.\Generated_Source\PSoC4/CYBLE_eventHandler.c ****     {
 919:.\Generated_Source\PSoC4/CYBLE_eventHandler.c ****         CyBle_RscscIndicationEventHandler(eventParam);
 920:.\Generated_Source\PSoC4/CYBLE_eventHandler.c ****     }
 921:.\Generated_Source\PSoC4/CYBLE_eventHandler.c **** #endif /* CYBLE_RSCS_CLIENT */
 922:.\Generated_Source\PSoC4/CYBLE_eventHandler.c **** #ifdef CYBLE_UDS_CLIENT
 923:.\Generated_Source\PSoC4/CYBLE_eventHandler.c ****     if((cyBle_eventHandlerFlag & CYBLE_CALLBACK) != 0u)
 924:.\Generated_Source\PSoC4/CYBLE_eventHandler.c ****     {
 925:.\Generated_Source\PSoC4/CYBLE_eventHandler.c ****         CyBle_UdscIndicationEventHandler(eventParam);
 926:.\Generated_Source\PSoC4/CYBLE_eventHandler.c ****     }
 927:.\Generated_Source\PSoC4/CYBLE_eventHandler.c **** #endif /* CYBLE_UDS_CLIENT */
 928:.\Generated_Source\PSoC4/CYBLE_eventHandler.c **** #ifdef CYBLE_WPTS_CLIENT
 929:.\Generated_Source\PSoC4/CYBLE_eventHandler.c ****     if((cyBle_eventHandlerFlag & CYBLE_CALLBACK) != 0u)
 930:.\Generated_Source\PSoC4/CYBLE_eventHandler.c ****     {
 931:.\Generated_Source\PSoC4/CYBLE_eventHandler.c ****         CyBle_WptscIndicationEventHandler(eventParam);
 932:.\Generated_Source\PSoC4/CYBLE_eventHandler.c ****     }
 933:.\Generated_Source\PSoC4/CYBLE_eventHandler.c **** #endif /* CYBLE_WPTS_CLIENT */
 934:.\Generated_Source\PSoC4/CYBLE_eventHandler.c **** #ifdef CYBLE_WSS_CLIENT
 935:.\Generated_Source\PSoC4/CYBLE_eventHandler.c ****     if((cyBle_eventHandlerFlag & CYBLE_CALLBACK) != 0u)
 936:.\Generated_Source\PSoC4/CYBLE_eventHandler.c ****     {
 937:.\Generated_Source\PSoC4/CYBLE_eventHandler.c ****         CyBle_WsscIndicationEventHandler(eventParam);
 938:.\Generated_Source\PSoC4/CYBLE_eventHandler.c ****     }
 939:.\Generated_Source\PSoC4/CYBLE_eventHandler.c **** #endif /* CYBLE_WSS_CLIENT */
 940:.\Generated_Source\PSoC4/CYBLE_eventHandler.c **** }
 941:.\Generated_Source\PSoC4/CYBLE_eventHandler.c **** 
 942:.\Generated_Source\PSoC4/CYBLE_eventHandler.c **** 
 943:.\Generated_Source\PSoC4/CYBLE_eventHandler.c **** 
 944:.\Generated_Source\PSoC4/CYBLE_eventHandler.c **** /******************************************************************************    
 945:.\Generated_Source\PSoC4/CYBLE_eventHandler.c **** * Function Name: CyBle_ReadResponseEventHandler
 946:.\Generated_Source\PSoC4/CYBLE_eventHandler.c **** ***************************************************************************//**
 947:.\Generated_Source\PSoC4/CYBLE_eventHandler.c **** * 
 948:.\Generated_Source\PSoC4/CYBLE_eventHandler.c **** *  Handles the Read Response event from BLE stack.
 949:.\Generated_Source\PSoC4/CYBLE_eventHandler.c **** * 
 950:.\Generated_Source\PSoC4/CYBLE_eventHandler.c **** *  \param eventParam: event parameter
 951:.\Generated_Source\PSoC4/CYBLE_eventHandler.c **** * 
 952:.\Generated_Source\PSoC4/CYBLE_eventHandler.c **** * \return
 953:.\Generated_Source\PSoC4/CYBLE_eventHandler.c **** *  None
 954:.\Generated_Source\PSoC4/CYBLE_eventHandler.c **** * 
 955:.\Generated_Source\PSoC4/CYBLE_eventHandler.c **** ******************************************************************************/
 956:.\Generated_Source\PSoC4/CYBLE_eventHandler.c **** static void CyBle_ReadResponseEventHandler(CYBLE_GATTC_READ_RSP_PARAM_T *eventParam)
 957:.\Generated_Source\PSoC4/CYBLE_eventHandler.c **** {
 958:.\Generated_Source\PSoC4/CYBLE_eventHandler.c **** #ifdef CYBLE_CUSTOM_CLIENT
 959:.\Generated_Source\PSoC4/CYBLE_eventHandler.c ****     /* Read response with 128-bit included service uuid */
 960:.\Generated_Source\PSoC4/CYBLE_eventHandler.c ****     if((CYBLE_CLIENT_STATE_INCL_DISCOVERING == CyBle_GetClientState()) &&
 961:.\Generated_Source\PSoC4/CYBLE_eventHandler.c ****        (cyBle_discInclInfo.inclDefHandle != 0u))
 962:.\Generated_Source\PSoC4/CYBLE_eventHandler.c ****     {
 963:.\Generated_Source\PSoC4/CYBLE_eventHandler.c ****         CYBLE_DISC_SRVC128_INFO_T discServInfo;
 964:.\Generated_Source\PSoC4/CYBLE_eventHandler.c **** 
 965:.\Generated_Source\PSoC4/CYBLE_eventHandler.c ****         /* Store service range */
ARM GAS  C:\Users\igreg\AppData\Local\Temp\ccnO9ZHN.s 			page 21


 966:.\Generated_Source\PSoC4/CYBLE_eventHandler.c ****         discServInfo.range = cyBle_discInclInfo.inclHandleRange;
 967:.\Generated_Source\PSoC4/CYBLE_eventHandler.c ****         (void)memcpy((void *) discServInfo.uuid.uuid128.value, (void *)eventParam->value.val, event
 968:.\Generated_Source\PSoC4/CYBLE_eventHandler.c ****         CyBle_CustomcDiscoverServiceEventHandler(&discServInfo);
 969:.\Generated_Source\PSoC4/CYBLE_eventHandler.c ****         
 970:.\Generated_Source\PSoC4/CYBLE_eventHandler.c ****         /* Re-initiate CyBle_GattcFindIncludedServices function, setting the start
 971:.\Generated_Source\PSoC4/CYBLE_eventHandler.c ****            handle to the attribute handle which is placed next to the one used in
 972:.\Generated_Source\PSoC4/CYBLE_eventHandler.c ****            the above step.
 973:.\Generated_Source\PSoC4/CYBLE_eventHandler.c ****         */
 974:.\Generated_Source\PSoC4/CYBLE_eventHandler.c ****         discServInfo.range.startHandle = cyBle_discInclInfo.inclDefHandle + 1;
 975:.\Generated_Source\PSoC4/CYBLE_eventHandler.c ****         discServInfo.range.endHandle = cyBle_serverInfo[cyBle_disCount].range.endHandle;
 976:.\Generated_Source\PSoC4/CYBLE_eventHandler.c ****         if(discServInfo.range.startHandle <= discServInfo.range.endHandle)
 977:.\Generated_Source\PSoC4/CYBLE_eventHandler.c ****         {
 978:.\Generated_Source\PSoC4/CYBLE_eventHandler.c ****             if(CYBLE_ERROR_OK != CyBle_GattcFindIncludedServices(cyBle_connHandle, &discServInfo.ra
 979:.\Generated_Source\PSoC4/CYBLE_eventHandler.c ****             {
 980:.\Generated_Source\PSoC4/CYBLE_eventHandler.c ****                 CyBle_ApplCallback(CYBLE_EVT_GATTC_INCL_DISCOVERY_FAILED, NULL);
 981:.\Generated_Source\PSoC4/CYBLE_eventHandler.c ****                 cyBle_eventHandlerFlag &= (uint8)~CYBLE_AUTO_DISCOVERY;
 982:.\Generated_Source\PSoC4/CYBLE_eventHandler.c ****             }
 983:.\Generated_Source\PSoC4/CYBLE_eventHandler.c ****         }
 984:.\Generated_Source\PSoC4/CYBLE_eventHandler.c ****         else /* Continue discovery of the following service */
 985:.\Generated_Source\PSoC4/CYBLE_eventHandler.c ****         {
 986:.\Generated_Source\PSoC4/CYBLE_eventHandler.c ****             CyBle_NextInclDiscovery(CYBLE_DISCOVERY_CONTINUE);
 987:.\Generated_Source\PSoC4/CYBLE_eventHandler.c ****         }
 988:.\Generated_Source\PSoC4/CYBLE_eventHandler.c ****         
 989:.\Generated_Source\PSoC4/CYBLE_eventHandler.c ****         cyBle_eventHandlerFlag &= (uint8)~CYBLE_CALLBACK;
 990:.\Generated_Source\PSoC4/CYBLE_eventHandler.c ****         cyBle_discInclInfo.inclDefHandle = 0u;
 991:.\Generated_Source\PSoC4/CYBLE_eventHandler.c ****         
 992:.\Generated_Source\PSoC4/CYBLE_eventHandler.c ****     }
 993:.\Generated_Source\PSoC4/CYBLE_eventHandler.c **** #endif /* CYBLE_CUSTOM_CLIENT */
 994:.\Generated_Source\PSoC4/CYBLE_eventHandler.c **** #ifdef CYBLE_ANCS_CLIENT
 995:.\Generated_Source\PSoC4/CYBLE_eventHandler.c ****     if((cyBle_eventHandlerFlag & CYBLE_CALLBACK) != 0u)
 996:.\Generated_Source\PSoC4/CYBLE_eventHandler.c ****     {
 997:.\Generated_Source\PSoC4/CYBLE_eventHandler.c ****         CyBle_AncscReadResponseEventHandler(eventParam);
 998:.\Generated_Source\PSoC4/CYBLE_eventHandler.c ****     }
 999:.\Generated_Source\PSoC4/CYBLE_eventHandler.c **** #endif /* CYBLE_ANCS_CLIENT */
1000:.\Generated_Source\PSoC4/CYBLE_eventHandler.c **** #ifdef CYBLE_ANS_CLIENT
1001:.\Generated_Source\PSoC4/CYBLE_eventHandler.c ****     if((cyBle_eventHandlerFlag & CYBLE_CALLBACK) != 0u)
1002:.\Generated_Source\PSoC4/CYBLE_eventHandler.c ****     {
1003:.\Generated_Source\PSoC4/CYBLE_eventHandler.c ****         CyBle_AnscReadResponseEventHandler(eventParam);
1004:.\Generated_Source\PSoC4/CYBLE_eventHandler.c ****     }
1005:.\Generated_Source\PSoC4/CYBLE_eventHandler.c **** #endif /* CYBLE_ANS_CLIENT */
1006:.\Generated_Source\PSoC4/CYBLE_eventHandler.c **** #ifdef CYBLE_BAS_CLIENT
1007:.\Generated_Source\PSoC4/CYBLE_eventHandler.c ****     if((cyBle_eventHandlerFlag & CYBLE_CALLBACK) != 0u)
1008:.\Generated_Source\PSoC4/CYBLE_eventHandler.c ****     {
1009:.\Generated_Source\PSoC4/CYBLE_eventHandler.c ****         CyBle_BascReadResponseEventHandler(eventParam);
1010:.\Generated_Source\PSoC4/CYBLE_eventHandler.c ****     }
1011:.\Generated_Source\PSoC4/CYBLE_eventHandler.c **** #endif /* CYBLE_BAS_CLIENT */
1012:.\Generated_Source\PSoC4/CYBLE_eventHandler.c **** #ifdef CYBLE_BLS_CLIENT
1013:.\Generated_Source\PSoC4/CYBLE_eventHandler.c ****     if((cyBle_eventHandlerFlag & CYBLE_CALLBACK) != 0u)
1014:.\Generated_Source\PSoC4/CYBLE_eventHandler.c ****     {
1015:.\Generated_Source\PSoC4/CYBLE_eventHandler.c ****         CyBle_BlscReadResponseEventHandler(eventParam);
1016:.\Generated_Source\PSoC4/CYBLE_eventHandler.c ****     }
1017:.\Generated_Source\PSoC4/CYBLE_eventHandler.c **** #endif /* CYBLE_BLS_CLIENT */
1018:.\Generated_Source\PSoC4/CYBLE_eventHandler.c **** #ifdef CYBLE_BCS_CLIENT
1019:.\Generated_Source\PSoC4/CYBLE_eventHandler.c ****     if((cyBle_eventHandlerFlag & CYBLE_CALLBACK) != 0u)
1020:.\Generated_Source\PSoC4/CYBLE_eventHandler.c ****     {
1021:.\Generated_Source\PSoC4/CYBLE_eventHandler.c ****         CyBle_BcscReadResponseEventHandler(eventParam);
1022:.\Generated_Source\PSoC4/CYBLE_eventHandler.c ****     }
ARM GAS  C:\Users\igreg\AppData\Local\Temp\ccnO9ZHN.s 			page 22


1023:.\Generated_Source\PSoC4/CYBLE_eventHandler.c **** #endif /* CYBLE_BCS_CLIENT */
1024:.\Generated_Source\PSoC4/CYBLE_eventHandler.c **** #ifdef CYBLE_BMS_CLIENT
1025:.\Generated_Source\PSoC4/CYBLE_eventHandler.c ****     if((cyBle_eventHandlerFlag & CYBLE_CALLBACK) != 0u)
1026:.\Generated_Source\PSoC4/CYBLE_eventHandler.c ****     {
1027:.\Generated_Source\PSoC4/CYBLE_eventHandler.c ****         CyBle_BmscReadResponseEventHandler(eventParam);
1028:.\Generated_Source\PSoC4/CYBLE_eventHandler.c ****     }
1029:.\Generated_Source\PSoC4/CYBLE_eventHandler.c **** #endif /* CYBLE_BMS_CLIENT */
1030:.\Generated_Source\PSoC4/CYBLE_eventHandler.c **** #ifdef CYBLE_CGMS_CLIENT
1031:.\Generated_Source\PSoC4/CYBLE_eventHandler.c ****     if((cyBle_eventHandlerFlag & CYBLE_CALLBACK) != 0u)
1032:.\Generated_Source\PSoC4/CYBLE_eventHandler.c ****     {
1033:.\Generated_Source\PSoC4/CYBLE_eventHandler.c ****         CyBle_CgmscReadResponseEventHandler(eventParam);
1034:.\Generated_Source\PSoC4/CYBLE_eventHandler.c ****     }
1035:.\Generated_Source\PSoC4/CYBLE_eventHandler.c **** #endif /* CYBLE_CGMS_CLIENT */
1036:.\Generated_Source\PSoC4/CYBLE_eventHandler.c **** #ifdef CYBLE_CPS_CLIENT
1037:.\Generated_Source\PSoC4/CYBLE_eventHandler.c ****     if((cyBle_eventHandlerFlag & CYBLE_CALLBACK) != 0u)
1038:.\Generated_Source\PSoC4/CYBLE_eventHandler.c ****     {
1039:.\Generated_Source\PSoC4/CYBLE_eventHandler.c ****         CyBle_CpscReadResponseEventHandler(eventParam);
1040:.\Generated_Source\PSoC4/CYBLE_eventHandler.c ****     }
1041:.\Generated_Source\PSoC4/CYBLE_eventHandler.c **** #endif /* CYBLE_CPS_CLIENT */
1042:.\Generated_Source\PSoC4/CYBLE_eventHandler.c **** #ifdef CYBLE_CSCS_CLIENT
1043:.\Generated_Source\PSoC4/CYBLE_eventHandler.c ****     if((cyBle_eventHandlerFlag & CYBLE_CALLBACK) != 0u)
1044:.\Generated_Source\PSoC4/CYBLE_eventHandler.c ****     {
1045:.\Generated_Source\PSoC4/CYBLE_eventHandler.c ****         CyBle_CscscReadResponseEventHandler(eventParam);
1046:.\Generated_Source\PSoC4/CYBLE_eventHandler.c ****     }
1047:.\Generated_Source\PSoC4/CYBLE_eventHandler.c **** #endif /* CYBLE_CSCS_CLIENT */
1048:.\Generated_Source\PSoC4/CYBLE_eventHandler.c **** #ifdef CYBLE_CTS_CLIENT
1049:.\Generated_Source\PSoC4/CYBLE_eventHandler.c ****     if((cyBle_eventHandlerFlag & CYBLE_CALLBACK) != 0u)
1050:.\Generated_Source\PSoC4/CYBLE_eventHandler.c ****     {
1051:.\Generated_Source\PSoC4/CYBLE_eventHandler.c ****         CyBle_CtscReadResponseEventHandler(eventParam);
1052:.\Generated_Source\PSoC4/CYBLE_eventHandler.c ****     }
1053:.\Generated_Source\PSoC4/CYBLE_eventHandler.c **** #endif /* CYBLE_BAS_CLIENT */
1054:.\Generated_Source\PSoC4/CYBLE_eventHandler.c **** #ifdef CYBLE_DIS_CLIENT
1055:.\Generated_Source\PSoC4/CYBLE_eventHandler.c ****     if((cyBle_eventHandlerFlag & CYBLE_CALLBACK) != 0u)
1056:.\Generated_Source\PSoC4/CYBLE_eventHandler.c ****     {
1057:.\Generated_Source\PSoC4/CYBLE_eventHandler.c ****         CyBle_DiscReadResponseEventHandler(eventParam);
1058:.\Generated_Source\PSoC4/CYBLE_eventHandler.c ****     }
1059:.\Generated_Source\PSoC4/CYBLE_eventHandler.c **** #endif /* CYBLE_DIS_CLIENT */
1060:.\Generated_Source\PSoC4/CYBLE_eventHandler.c **** #ifdef CYBLE_ESS_CLIENT
1061:.\Generated_Source\PSoC4/CYBLE_eventHandler.c ****     if((cyBle_eventHandlerFlag & CYBLE_CALLBACK) != 0u)
1062:.\Generated_Source\PSoC4/CYBLE_eventHandler.c ****     {
1063:.\Generated_Source\PSoC4/CYBLE_eventHandler.c ****         CyBle_EsscReadResponseEventHandler(eventParam);
1064:.\Generated_Source\PSoC4/CYBLE_eventHandler.c ****     }
1065:.\Generated_Source\PSoC4/CYBLE_eventHandler.c **** #endif /* CYBLE_ESS_CLIENT */
1066:.\Generated_Source\PSoC4/CYBLE_eventHandler.c **** #ifdef CYBLE_GLS_CLIENT
1067:.\Generated_Source\PSoC4/CYBLE_eventHandler.c ****     if((cyBle_eventHandlerFlag & CYBLE_CALLBACK) != 0u)
1068:.\Generated_Source\PSoC4/CYBLE_eventHandler.c ****     {
1069:.\Generated_Source\PSoC4/CYBLE_eventHandler.c ****         CyBle_GlscReadResponseEventHandler(eventParam);
1070:.\Generated_Source\PSoC4/CYBLE_eventHandler.c ****     }
1071:.\Generated_Source\PSoC4/CYBLE_eventHandler.c **** #endif /* CYBLE_GLS_CLIENT */
1072:.\Generated_Source\PSoC4/CYBLE_eventHandler.c **** #ifdef CYBLE_HIDS_CLIENT
1073:.\Generated_Source\PSoC4/CYBLE_eventHandler.c ****     if((cyBle_eventHandlerFlag & CYBLE_CALLBACK) != 0u)
1074:.\Generated_Source\PSoC4/CYBLE_eventHandler.c ****     {
1075:.\Generated_Source\PSoC4/CYBLE_eventHandler.c ****         CyBle_HidscReadResponseEventHandler(eventParam);
1076:.\Generated_Source\PSoC4/CYBLE_eventHandler.c ****     }
1077:.\Generated_Source\PSoC4/CYBLE_eventHandler.c **** #endif /* CYBLE_HIDS_CLIENT */
1078:.\Generated_Source\PSoC4/CYBLE_eventHandler.c **** #ifdef CYBLE_HPS_CLIENT
1079:.\Generated_Source\PSoC4/CYBLE_eventHandler.c ****     if((cyBle_eventHandlerFlag & CYBLE_CALLBACK) != 0u)
ARM GAS  C:\Users\igreg\AppData\Local\Temp\ccnO9ZHN.s 			page 23


1080:.\Generated_Source\PSoC4/CYBLE_eventHandler.c ****     {
1081:.\Generated_Source\PSoC4/CYBLE_eventHandler.c ****         CyBle_HpscReadResponseEventHandler(eventParam);
1082:.\Generated_Source\PSoC4/CYBLE_eventHandler.c ****     }
1083:.\Generated_Source\PSoC4/CYBLE_eventHandler.c **** #endif /* CYBLE_HPS_CLIENT */
1084:.\Generated_Source\PSoC4/CYBLE_eventHandler.c **** #ifdef CYBLE_HRS_CLIENT
1085:.\Generated_Source\PSoC4/CYBLE_eventHandler.c ****     if((cyBle_eventHandlerFlag & CYBLE_CALLBACK) != 0u)
1086:.\Generated_Source\PSoC4/CYBLE_eventHandler.c ****     {
1087:.\Generated_Source\PSoC4/CYBLE_eventHandler.c ****         CyBle_HrscReadResponseEventHandler(eventParam);
1088:.\Generated_Source\PSoC4/CYBLE_eventHandler.c ****     }
1089:.\Generated_Source\PSoC4/CYBLE_eventHandler.c **** #endif /* CYBLE_HRS_CLIENT */
1090:.\Generated_Source\PSoC4/CYBLE_eventHandler.c **** #ifdef CYBLE_HTS_CLIENT
1091:.\Generated_Source\PSoC4/CYBLE_eventHandler.c ****     if((cyBle_eventHandlerFlag & CYBLE_CALLBACK) != 0u)
1092:.\Generated_Source\PSoC4/CYBLE_eventHandler.c ****     {
1093:.\Generated_Source\PSoC4/CYBLE_eventHandler.c ****         CyBle_HtscReadResponseEventHandler(eventParam);
1094:.\Generated_Source\PSoC4/CYBLE_eventHandler.c ****     }
1095:.\Generated_Source\PSoC4/CYBLE_eventHandler.c **** #endif /* CYBLE_HTS_CLIENT */
1096:.\Generated_Source\PSoC4/CYBLE_eventHandler.c **** #ifdef CYBLE_LLS_CLIENT
1097:.\Generated_Source\PSoC4/CYBLE_eventHandler.c ****     if((cyBle_eventHandlerFlag & CYBLE_CALLBACK) != 0u)
1098:.\Generated_Source\PSoC4/CYBLE_eventHandler.c ****     {
1099:.\Generated_Source\PSoC4/CYBLE_eventHandler.c ****         CyBle_LlscReadResponseEventHandler(eventParam);
1100:.\Generated_Source\PSoC4/CYBLE_eventHandler.c ****     }
1101:.\Generated_Source\PSoC4/CYBLE_eventHandler.c **** #endif /* CYBLE_LLS_CLIENT */
1102:.\Generated_Source\PSoC4/CYBLE_eventHandler.c **** #ifdef CYBLE_LNS_CLIENT
1103:.\Generated_Source\PSoC4/CYBLE_eventHandler.c ****     if((cyBle_eventHandlerFlag & CYBLE_CALLBACK) != 0u)
1104:.\Generated_Source\PSoC4/CYBLE_eventHandler.c ****     {
1105:.\Generated_Source\PSoC4/CYBLE_eventHandler.c ****         CyBle_LnscReadResponseEventHandler(eventParam);
1106:.\Generated_Source\PSoC4/CYBLE_eventHandler.c ****     }
1107:.\Generated_Source\PSoC4/CYBLE_eventHandler.c **** #endif /* CYBLE_LNS_CLIENT */
1108:.\Generated_Source\PSoC4/CYBLE_eventHandler.c **** #ifdef CYBLE_NDCS_CLIENT
1109:.\Generated_Source\PSoC4/CYBLE_eventHandler.c ****     if((cyBle_eventHandlerFlag & CYBLE_CALLBACK) != 0u)
1110:.\Generated_Source\PSoC4/CYBLE_eventHandler.c ****     {
1111:.\Generated_Source\PSoC4/CYBLE_eventHandler.c ****         CyBle_NdcscReadResponseEventHandler(eventParam);
1112:.\Generated_Source\PSoC4/CYBLE_eventHandler.c ****     }
1113:.\Generated_Source\PSoC4/CYBLE_eventHandler.c **** #endif /* CYBLE_NDCS_CLIENT */
1114:.\Generated_Source\PSoC4/CYBLE_eventHandler.c **** #ifdef CYBLE_PASS_CLIENT
1115:.\Generated_Source\PSoC4/CYBLE_eventHandler.c ****     if((cyBle_eventHandlerFlag & CYBLE_CALLBACK) != 0u)
1116:.\Generated_Source\PSoC4/CYBLE_eventHandler.c ****     {
1117:.\Generated_Source\PSoC4/CYBLE_eventHandler.c ****         CyBle_PasscReadResponseEventHandler(eventParam);
1118:.\Generated_Source\PSoC4/CYBLE_eventHandler.c ****     }
1119:.\Generated_Source\PSoC4/CYBLE_eventHandler.c **** #endif /* CYBLE_PASS_CLIENT */
1120:.\Generated_Source\PSoC4/CYBLE_eventHandler.c **** #ifdef CYBLE_RSCS_CLIENT
1121:.\Generated_Source\PSoC4/CYBLE_eventHandler.c ****     if((cyBle_eventHandlerFlag & CYBLE_CALLBACK) != 0u)
1122:.\Generated_Source\PSoC4/CYBLE_eventHandler.c ****     {
1123:.\Generated_Source\PSoC4/CYBLE_eventHandler.c ****         CyBle_RscscReadResponseEventHandler(eventParam);
1124:.\Generated_Source\PSoC4/CYBLE_eventHandler.c ****     }
1125:.\Generated_Source\PSoC4/CYBLE_eventHandler.c **** #endif /* CYBLE_RSCS_CLIENT */
1126:.\Generated_Source\PSoC4/CYBLE_eventHandler.c **** #ifdef CYBLE_RTUS_CLIENT
1127:.\Generated_Source\PSoC4/CYBLE_eventHandler.c ****     if((cyBle_eventHandlerFlag & CYBLE_CALLBACK) != 0u)
1128:.\Generated_Source\PSoC4/CYBLE_eventHandler.c ****     {
1129:.\Generated_Source\PSoC4/CYBLE_eventHandler.c ****         CyBle_RtuscReadResponseEventHandler(eventParam);
1130:.\Generated_Source\PSoC4/CYBLE_eventHandler.c ****     }
1131:.\Generated_Source\PSoC4/CYBLE_eventHandler.c **** #endif /* CYBLE_RTUS_CLIENT */
1132:.\Generated_Source\PSoC4/CYBLE_eventHandler.c **** #ifdef CYBLE_SCPS_CLIENT
1133:.\Generated_Source\PSoC4/CYBLE_eventHandler.c ****     if((cyBle_eventHandlerFlag & CYBLE_CALLBACK) != 0u)
1134:.\Generated_Source\PSoC4/CYBLE_eventHandler.c ****     {
1135:.\Generated_Source\PSoC4/CYBLE_eventHandler.c ****         CyBle_ScpscReadResponseEventHandler(eventParam);
1136:.\Generated_Source\PSoC4/CYBLE_eventHandler.c ****     }
ARM GAS  C:\Users\igreg\AppData\Local\Temp\ccnO9ZHN.s 			page 24


1137:.\Generated_Source\PSoC4/CYBLE_eventHandler.c **** #endif /* CYBLE_SCPS_CLIENT */
1138:.\Generated_Source\PSoC4/CYBLE_eventHandler.c **** #ifdef CYBLE_TPS_CLIENT
1139:.\Generated_Source\PSoC4/CYBLE_eventHandler.c ****     if((cyBle_eventHandlerFlag & CYBLE_CALLBACK) != 0u)
1140:.\Generated_Source\PSoC4/CYBLE_eventHandler.c ****     {
1141:.\Generated_Source\PSoC4/CYBLE_eventHandler.c ****         CyBle_TpscReadResponseEventHandler(eventParam);
1142:.\Generated_Source\PSoC4/CYBLE_eventHandler.c ****     }
1143:.\Generated_Source\PSoC4/CYBLE_eventHandler.c **** #endif /* CYBLE_TPS_CLIENT */
1144:.\Generated_Source\PSoC4/CYBLE_eventHandler.c **** #ifdef CYBLE_UDS_CLIENT
1145:.\Generated_Source\PSoC4/CYBLE_eventHandler.c ****     if((cyBle_eventHandlerFlag & CYBLE_CALLBACK) != 0u)
1146:.\Generated_Source\PSoC4/CYBLE_eventHandler.c ****     {
1147:.\Generated_Source\PSoC4/CYBLE_eventHandler.c ****         CyBle_UdscReadResponseEventHandler(eventParam);
1148:.\Generated_Source\PSoC4/CYBLE_eventHandler.c ****     }
1149:.\Generated_Source\PSoC4/CYBLE_eventHandler.c **** #endif /* CYBLE_UDS_CLIENT */
1150:.\Generated_Source\PSoC4/CYBLE_eventHandler.c **** #ifdef CYBLE_WPTS_CLIENT
1151:.\Generated_Source\PSoC4/CYBLE_eventHandler.c ****     if((cyBle_eventHandlerFlag & CYBLE_CALLBACK) != 0u)
1152:.\Generated_Source\PSoC4/CYBLE_eventHandler.c ****     {
1153:.\Generated_Source\PSoC4/CYBLE_eventHandler.c ****         CyBle_WptscReadResponseEventHandler(eventParam);
1154:.\Generated_Source\PSoC4/CYBLE_eventHandler.c ****     }
1155:.\Generated_Source\PSoC4/CYBLE_eventHandler.c **** #endif /* CYBLE_WPTS_CLIENT */
1156:.\Generated_Source\PSoC4/CYBLE_eventHandler.c **** #ifdef CYBLE_WSS_CLIENT
1157:.\Generated_Source\PSoC4/CYBLE_eventHandler.c ****     if((cyBle_eventHandlerFlag & CYBLE_CALLBACK) != 0u)
1158:.\Generated_Source\PSoC4/CYBLE_eventHandler.c ****     {
1159:.\Generated_Source\PSoC4/CYBLE_eventHandler.c ****         CyBle_WsscReadResponseEventHandler(eventParam);
1160:.\Generated_Source\PSoC4/CYBLE_eventHandler.c ****     }
1161:.\Generated_Source\PSoC4/CYBLE_eventHandler.c **** #endif /* CYBLE_WSS_CLIENT */
1162:.\Generated_Source\PSoC4/CYBLE_eventHandler.c **** }
1163:.\Generated_Source\PSoC4/CYBLE_eventHandler.c **** #endif /* CYBLE_GATT_ROLE_CLIENT */
1164:.\Generated_Source\PSoC4/CYBLE_eventHandler.c **** 
1165:.\Generated_Source\PSoC4/CYBLE_eventHandler.c **** 
1166:.\Generated_Source\PSoC4/CYBLE_eventHandler.c **** /****************************************************************************** 
1167:.\Generated_Source\PSoC4/CYBLE_eventHandler.c **** * Function Name: CyBle_DisconnectEventHandler
1168:.\Generated_Source\PSoC4/CYBLE_eventHandler.c **** ***************************************************************************//**
1169:.\Generated_Source\PSoC4/CYBLE_eventHandler.c **** * 
1170:.\Generated_Source\PSoC4/CYBLE_eventHandler.c **** *  Handles the GATT Disconnection event from the BLE stack.
1171:.\Generated_Source\PSoC4/CYBLE_eventHandler.c **** * 
1172:.\Generated_Source\PSoC4/CYBLE_eventHandler.c **** * \return
1173:.\Generated_Source\PSoC4/CYBLE_eventHandler.c **** *  None
1174:.\Generated_Source\PSoC4/CYBLE_eventHandler.c **** * 
1175:.\Generated_Source\PSoC4/CYBLE_eventHandler.c **** ******************************************************************************/
1176:.\Generated_Source\PSoC4/CYBLE_eventHandler.c **** static void CyBle_GattDisconnectEventHandler(void)
1177:.\Generated_Source\PSoC4/CYBLE_eventHandler.c **** {
 176              		.loc 1 1177 0
 177              		.cfi_startproc
 178 0000 80B5     		push	{r7, lr}
 179              		.cfi_def_cfa_offset 8
 180              		.cfi_offset 7, -8
 181              		.cfi_offset 14, -4
 182 0002 00AF     		add	r7, sp, #0
 183              		.cfi_def_cfa_register 7
1178:.\Generated_Source\PSoC4/CYBLE_eventHandler.c ****     cyBle_connHandle.attId = 0u;
 184              		.loc 1 1178 0
 185 0004 034B     		ldr	r3, .L9
 186 0006 0022     		mov	r2, #0
 187 0008 5A70     		strb	r2, [r3, #1]
1179:.\Generated_Source\PSoC4/CYBLE_eventHandler.c ****     cyBle_connHandle.bdHandle = 0u;
 188              		.loc 1 1179 0
 189 000a 024B     		ldr	r3, .L9
ARM GAS  C:\Users\igreg\AppData\Local\Temp\ccnO9ZHN.s 			page 25


 190 000c 0022     		mov	r2, #0
 191 000e 1A70     		strb	r2, [r3]
1180:.\Generated_Source\PSoC4/CYBLE_eventHandler.c ****     
1181:.\Generated_Source\PSoC4/CYBLE_eventHandler.c ****     #if (CYBLE_GATT_ROLE_CLIENT)
1182:.\Generated_Source\PSoC4/CYBLE_eventHandler.c ****         if(CYBLE_CLIENT_STATE_DISCOVERED == CyBle_GetClientState())
1183:.\Generated_Source\PSoC4/CYBLE_eventHandler.c ****         {
1184:.\Generated_Source\PSoC4/CYBLE_eventHandler.c ****             CyBle_SetClientState(CYBLE_CLIENT_STATE_DISCONNECTED_DISCOVERED);
1185:.\Generated_Source\PSoC4/CYBLE_eventHandler.c ****         }
1186:.\Generated_Source\PSoC4/CYBLE_eventHandler.c ****         else
1187:.\Generated_Source\PSoC4/CYBLE_eventHandler.c ****         {
1188:.\Generated_Source\PSoC4/CYBLE_eventHandler.c ****             CyBle_SetClientState(CYBLE_CLIENT_STATE_DISCONNECTED);
1189:.\Generated_Source\PSoC4/CYBLE_eventHandler.c ****         }
1190:.\Generated_Source\PSoC4/CYBLE_eventHandler.c ****     #endif /* CYBLE_GATT_ROLE_CLIENT */
1191:.\Generated_Source\PSoC4/CYBLE_eventHandler.c ****         
1192:.\Generated_Source\PSoC4/CYBLE_eventHandler.c ****     #ifdef CYBLE_CPS_SERVER
1193:.\Generated_Source\PSoC4/CYBLE_eventHandler.c ****         #if CYBLE_GAP_ROLE_BROADCASTER
1194:.\Generated_Source\PSoC4/CYBLE_eventHandler.c ****             CyBle_CpssDisconnectEventHandler();
1195:.\Generated_Source\PSoC4/CYBLE_eventHandler.c ****         #endif /* CYBLE_GAP_ROLE_BROADCASTER */
1196:.\Generated_Source\PSoC4/CYBLE_eventHandler.c ****     #endif /* CYBLE_CPS_SERVER */
1197:.\Generated_Source\PSoC4/CYBLE_eventHandler.c **** 
1198:.\Generated_Source\PSoC4/CYBLE_eventHandler.c ****     #ifdef CYBLE_CPS_CLIENT
1199:.\Generated_Source\PSoC4/CYBLE_eventHandler.c ****         CyBle_CpscDisconnectEventHandler();
1200:.\Generated_Source\PSoC4/CYBLE_eventHandler.c ****     #endif /* CYBLE_CPS_CLIENT */
1201:.\Generated_Source\PSoC4/CYBLE_eventHandler.c **** 
1202:.\Generated_Source\PSoC4/CYBLE_eventHandler.c ****     #ifdef CYBLE_IAS_SERVER
1203:.\Generated_Source\PSoC4/CYBLE_eventHandler.c ****         CyBle_IassDisconnectEventHandler();
1204:.\Generated_Source\PSoC4/CYBLE_eventHandler.c ****     #endif /* CYBLE_IAS_SERVER */
1205:.\Generated_Source\PSoC4/CYBLE_eventHandler.c ****     
1206:.\Generated_Source\PSoC4/CYBLE_eventHandler.c ****     #ifdef CYBLE_GLS_SERVER
1207:.\Generated_Source\PSoC4/CYBLE_eventHandler.c ****         CyBle_GlsInit();
1208:.\Generated_Source\PSoC4/CYBLE_eventHandler.c ****     #endif /* CYBLE_GLS_SERVER */
1209:.\Generated_Source\PSoC4/CYBLE_eventHandler.c ****     
1210:.\Generated_Source\PSoC4/CYBLE_eventHandler.c ****     #ifdef CYBLE_LNS_SERVER
1211:.\Generated_Source\PSoC4/CYBLE_eventHandler.c ****         CyBle_LnsInit();
1212:.\Generated_Source\PSoC4/CYBLE_eventHandler.c ****     #endif /* CYBLE_LNS_SERVER */
1213:.\Generated_Source\PSoC4/CYBLE_eventHandler.c ****     
1214:.\Generated_Source\PSoC4/CYBLE_eventHandler.c ****     #ifdef CYBLE_UDS_SERVER
1215:.\Generated_Source\PSoC4/CYBLE_eventHandler.c ****         CyBle_UdsInit();
1216:.\Generated_Source\PSoC4/CYBLE_eventHandler.c ****     #endif /* CYBLE_UDS_SERVER */
1217:.\Generated_Source\PSoC4/CYBLE_eventHandler.c **** }
 192              		.loc 1 1217 0
 193 0010 BD46     		mov	sp, r7
 194              		@ sp needed
 195 0012 80BD     		pop	{r7, pc}
 196              	.L10:
 197              		.align	2
 198              	.L9:
 199 0014 00000000 		.word	cyBle_connHandle
 200              		.cfi_endproc
 201              	.LFE4:
 202              		.size	CyBle_GattDisconnectEventHandler, .-CyBle_GattDisconnectEventHandler
 203              		.section	.text.CyBle_TimeOutEventHandler,"ax",%progbits
 204              		.align	2
 205              		.code	16
 206              		.thumb_func
 207              		.type	CyBle_TimeOutEventHandler, %function
 208              	CyBle_TimeOutEventHandler:
ARM GAS  C:\Users\igreg\AppData\Local\Temp\ccnO9ZHN.s 			page 26


 209              	.LFB5:
1218:.\Generated_Source\PSoC4/CYBLE_eventHandler.c **** 
1219:.\Generated_Source\PSoC4/CYBLE_eventHandler.c **** 
1220:.\Generated_Source\PSoC4/CYBLE_eventHandler.c **** /****************************************************************************** 
1221:.\Generated_Source\PSoC4/CYBLE_eventHandler.c **** * Function Name: CyBle_TimeOutEventHandler
1222:.\Generated_Source\PSoC4/CYBLE_eventHandler.c **** ***************************************************************************//**
1223:.\Generated_Source\PSoC4/CYBLE_eventHandler.c **** * 
1224:.\Generated_Source\PSoC4/CYBLE_eventHandler.c **** *  Handles the CYBLE_EVT_TIMEOUT event from the BLE stack.
1225:.\Generated_Source\PSoC4/CYBLE_eventHandler.c **** * 
1226:.\Generated_Source\PSoC4/CYBLE_eventHandler.c **** *  \param eventParam: The pointer to a structure of type CYBLE_TO_REASON_CODE_T.
1227:.\Generated_Source\PSoC4/CYBLE_eventHandler.c **** * 
1228:.\Generated_Source\PSoC4/CYBLE_eventHandler.c **** * \return
1229:.\Generated_Source\PSoC4/CYBLE_eventHandler.c **** *  None
1230:.\Generated_Source\PSoC4/CYBLE_eventHandler.c **** * 
1231:.\Generated_Source\PSoC4/CYBLE_eventHandler.c **** ******************************************************************************/
1232:.\Generated_Source\PSoC4/CYBLE_eventHandler.c **** static void CyBle_TimeOutEventHandler(const CYBLE_TO_REASON_CODE_T *eventParam)
1233:.\Generated_Source\PSoC4/CYBLE_eventHandler.c **** {
 210              		.loc 1 1233 0
 211              		.cfi_startproc
 212 0000 80B5     		push	{r7, lr}
 213              		.cfi_def_cfa_offset 8
 214              		.cfi_offset 7, -8
 215              		.cfi_offset 14, -4
 216 0002 82B0     		sub	sp, sp, #8
 217              		.cfi_def_cfa_offset 16
 218 0004 00AF     		add	r7, sp, #0
 219              		.cfi_def_cfa_register 7
 220 0006 7860     		str	r0, [r7, #4]
1234:.\Generated_Source\PSoC4/CYBLE_eventHandler.c ****     if(*eventParam == CYBLE_GATT_RSP_TO)
1235:.\Generated_Source\PSoC4/CYBLE_eventHandler.c ****     {
1236:.\Generated_Source\PSoC4/CYBLE_eventHandler.c ****     #if (CYBLE_GATT_ROLE_CLIENT)
1237:.\Generated_Source\PSoC4/CYBLE_eventHandler.c ****         if((cyBle_eventHandlerFlag & CYBLE_AUTO_DISCOVERY) != 0u)
1238:.\Generated_Source\PSoC4/CYBLE_eventHandler.c ****         {
1239:.\Generated_Source\PSoC4/CYBLE_eventHandler.c ****             switch(CyBle_GetClientState())
1240:.\Generated_Source\PSoC4/CYBLE_eventHandler.c ****             {
1241:.\Generated_Source\PSoC4/CYBLE_eventHandler.c ****                 case CYBLE_CLIENT_STATE_SRVC_DISCOVERING:
1242:.\Generated_Source\PSoC4/CYBLE_eventHandler.c ****                     CyBle_ApplCallback(CYBLE_EVT_GATTC_SRVC_DISCOVERY_FAILED, NULL);
1243:.\Generated_Source\PSoC4/CYBLE_eventHandler.c ****                     break;
1244:.\Generated_Source\PSoC4/CYBLE_eventHandler.c ****                 case CYBLE_CLIENT_STATE_INCL_DISCOVERING:
1245:.\Generated_Source\PSoC4/CYBLE_eventHandler.c ****                     CyBle_ApplCallback(CYBLE_EVT_GATTC_INCL_DISCOVERY_FAILED, NULL);
1246:.\Generated_Source\PSoC4/CYBLE_eventHandler.c ****                     break;
1247:.\Generated_Source\PSoC4/CYBLE_eventHandler.c ****                 case CYBLE_CLIENT_STATE_CHAR_DISCOVERING:
1248:.\Generated_Source\PSoC4/CYBLE_eventHandler.c ****                     CyBle_ApplCallback(CYBLE_EVT_GATTC_CHAR_DISCOVERY_FAILED, NULL);
1249:.\Generated_Source\PSoC4/CYBLE_eventHandler.c ****                     break;
1250:.\Generated_Source\PSoC4/CYBLE_eventHandler.c ****                 case CYBLE_CLIENT_STATE_DESCR_DISCOVERING:
1251:.\Generated_Source\PSoC4/CYBLE_eventHandler.c ****                     CyBle_ApplCallback(CYBLE_EVT_GATTC_DESCR_DISCOVERY_FAILED, NULL);
1252:.\Generated_Source\PSoC4/CYBLE_eventHandler.c ****                     break;
1253:.\Generated_Source\PSoC4/CYBLE_eventHandler.c ****                 default:        /* Other states should not be set in Auto discovery mode */
1254:.\Generated_Source\PSoC4/CYBLE_eventHandler.c ****                     break;
1255:.\Generated_Source\PSoC4/CYBLE_eventHandler.c ****             }
1256:.\Generated_Source\PSoC4/CYBLE_eventHandler.c ****             cyBle_eventHandlerFlag &= (uint8)~CYBLE_AUTO_DISCOVERY;
1257:.\Generated_Source\PSoC4/CYBLE_eventHandler.c ****             CyBle_SetClientState(CYBLE_CLIENT_STATE_CONNECTED);
1258:.\Generated_Source\PSoC4/CYBLE_eventHandler.c ****         }
1259:.\Generated_Source\PSoC4/CYBLE_eventHandler.c ****     #endif /* CYBLE_GATT_ROLE_CLIENT */
1260:.\Generated_Source\PSoC4/CYBLE_eventHandler.c ****     #ifdef CYBLE_CPS_SERVER
1261:.\Generated_Source\PSoC4/CYBLE_eventHandler.c ****         CyBle_CpssTimeOutEventHandler();
1262:.\Generated_Source\PSoC4/CYBLE_eventHandler.c ****     #endif /* CYBLE_CPS_SERVER */
ARM GAS  C:\Users\igreg\AppData\Local\Temp\ccnO9ZHN.s 			page 27


1263:.\Generated_Source\PSoC4/CYBLE_eventHandler.c ****     }
1264:.\Generated_Source\PSoC4/CYBLE_eventHandler.c ****     
1265:.\Generated_Source\PSoC4/CYBLE_eventHandler.c ****     /* Connection procedure timeout */
1266:.\Generated_Source\PSoC4/CYBLE_eventHandler.c ****     if(*eventParam == CYBLE_GENERIC_TO)
1267:.\Generated_Source\PSoC4/CYBLE_eventHandler.c ****     {
1268:.\Generated_Source\PSoC4/CYBLE_eventHandler.c ****     #if(CYBLE_GAP_ROLE_CENTRAL)
1269:.\Generated_Source\PSoC4/CYBLE_eventHandler.c ****         if(CYBLE_STATE_CONNECTING == CyBle_GetState())
1270:.\Generated_Source\PSoC4/CYBLE_eventHandler.c ****         {
1271:.\Generated_Source\PSoC4/CYBLE_eventHandler.c ****             (void)CyBle_GapcCancelDeviceConnection();
1272:.\Generated_Source\PSoC4/CYBLE_eventHandler.c ****         }
1273:.\Generated_Source\PSoC4/CYBLE_eventHandler.c ****     #endif /* CYBLE_GAP_ROLE_CENTRAL */
1274:.\Generated_Source\PSoC4/CYBLE_eventHandler.c ****     }
1275:.\Generated_Source\PSoC4/CYBLE_eventHandler.c **** }
 221              		.loc 1 1275 0
 222 0008 BD46     		mov	sp, r7
 223 000a 02B0     		add	sp, sp, #8
 224              		@ sp needed
 225 000c 80BD     		pop	{r7, pc}
 226              		.cfi_endproc
 227              	.LFE5:
 228              		.size	CyBle_TimeOutEventHandler, .-CyBle_TimeOutEventHandler
 229              		.section	.text.CyBle_GattConnectReqHandler,"ax",%progbits
 230              		.align	2
 231              		.code	16
 232              		.thumb_func
 233              		.type	CyBle_GattConnectReqHandler, %function
 234              	CyBle_GattConnectReqHandler:
 235              	.LFB6:
1276:.\Generated_Source\PSoC4/CYBLE_eventHandler.c **** 
1277:.\Generated_Source\PSoC4/CYBLE_eventHandler.c **** 
1278:.\Generated_Source\PSoC4/CYBLE_eventHandler.c **** /****************************************************************************** 
1279:.\Generated_Source\PSoC4/CYBLE_eventHandler.c **** * Function Name: CyBle_GattConnectReqHandler
1280:.\Generated_Source\PSoC4/CYBLE_eventHandler.c **** ***************************************************************************//**
1281:.\Generated_Source\PSoC4/CYBLE_eventHandler.c **** * 
1282:.\Generated_Source\PSoC4/CYBLE_eventHandler.c **** *  Handles the GATT connect event from the BLE stack.
1283:.\Generated_Source\PSoC4/CYBLE_eventHandler.c **** * 
1284:.\Generated_Source\PSoC4/CYBLE_eventHandler.c **** * \return
1285:.\Generated_Source\PSoC4/CYBLE_eventHandler.c **** *  None
1286:.\Generated_Source\PSoC4/CYBLE_eventHandler.c **** * 
1287:.\Generated_Source\PSoC4/CYBLE_eventHandler.c **** ******************************************************************************/
1288:.\Generated_Source\PSoC4/CYBLE_eventHandler.c **** static void CyBle_GattConnectReqHandler(void)
1289:.\Generated_Source\PSoC4/CYBLE_eventHandler.c **** {
 236              		.loc 1 1289 0
 237              		.cfi_startproc
 238 0000 80B5     		push	{r7, lr}
 239              		.cfi_def_cfa_offset 8
 240              		.cfi_offset 7, -8
 241              		.cfi_offset 14, -4
 242 0002 00AF     		add	r7, sp, #0
 243              		.cfi_def_cfa_register 7
1290:.\Generated_Source\PSoC4/CYBLE_eventHandler.c ****     #ifdef CYBLE_CGMS_SERVER
1291:.\Generated_Source\PSoC4/CYBLE_eventHandler.c ****         CyBle_CgmsInit();
1292:.\Generated_Source\PSoC4/CYBLE_eventHandler.c ****     #endif /* CYBLE_CGMS_SERVER */
1293:.\Generated_Source\PSoC4/CYBLE_eventHandler.c ****     
1294:.\Generated_Source\PSoC4/CYBLE_eventHandler.c ****     #ifdef CYBLE_CPS_SERVER
1295:.\Generated_Source\PSoC4/CYBLE_eventHandler.c ****         CyBle_CpssConnectEventHandler();
1296:.\Generated_Source\PSoC4/CYBLE_eventHandler.c ****     #endif /* CYBLE_CPS_SERVER */
ARM GAS  C:\Users\igreg\AppData\Local\Temp\ccnO9ZHN.s 			page 28


1297:.\Generated_Source\PSoC4/CYBLE_eventHandler.c ****     
1298:.\Generated_Source\PSoC4/CYBLE_eventHandler.c ****     #ifdef CYBLE_CSCS_SERVER
1299:.\Generated_Source\PSoC4/CYBLE_eventHandler.c ****             CyBle_CscsInit();
1300:.\Generated_Source\PSoC4/CYBLE_eventHandler.c ****     #endif /* CYBLE_CSCS_SERVER */
1301:.\Generated_Source\PSoC4/CYBLE_eventHandler.c ****     
1302:.\Generated_Source\PSoC4/CYBLE_eventHandler.c ****     #ifdef CYBLE_LLS_SERVER
1303:.\Generated_Source\PSoC4/CYBLE_eventHandler.c ****         CyBle_LlssConnectEventHandler();
1304:.\Generated_Source\PSoC4/CYBLE_eventHandler.c ****     #endif /* CYBLE_LLS_SERVER */
1305:.\Generated_Source\PSoC4/CYBLE_eventHandler.c ****     
1306:.\Generated_Source\PSoC4/CYBLE_eventHandler.c ****     #ifdef CYBLE_HIDS_SERVER
1307:.\Generated_Source\PSoC4/CYBLE_eventHandler.c ****         CyBle_HidssOnDeviceConnected();
1308:.\Generated_Source\PSoC4/CYBLE_eventHandler.c ****     #endif /* CYBLE_HIDS_SERVER */
1309:.\Generated_Source\PSoC4/CYBLE_eventHandler.c **** 
1310:.\Generated_Source\PSoC4/CYBLE_eventHandler.c ****     #ifdef CYBLE_RSCS_SERVER
1311:.\Generated_Source\PSoC4/CYBLE_eventHandler.c ****         CyBle_RscsInit();
1312:.\Generated_Source\PSoC4/CYBLE_eventHandler.c ****     #endif /* CYBLE_RSCS_SERVER */
1313:.\Generated_Source\PSoC4/CYBLE_eventHandler.c **** }
 244              		.loc 1 1313 0
 245 0004 BD46     		mov	sp, r7
 246              		@ sp needed
 247 0006 80BD     		pop	{r7, pc}
 248              		.cfi_endproc
 249              	.LFE6:
 250              		.size	CyBle_GattConnectReqHandler, .-CyBle_GattConnectReqHandler
 251              		.section	.text.CyBle_IsDeviceAddressValid,"ax",%progbits
 252              		.align	2
 253              		.global	CyBle_IsDeviceAddressValid
 254              		.code	16
 255              		.thumb_func
 256              		.type	CyBle_IsDeviceAddressValid, %function
 257              	CyBle_IsDeviceAddressValid:
 258              	.LFB7:
1314:.\Generated_Source\PSoC4/CYBLE_eventHandler.c **** 
1315:.\Generated_Source\PSoC4/CYBLE_eventHandler.c **** 
1316:.\Generated_Source\PSoC4/CYBLE_eventHandler.c **** #if (CYBLE_GATT_ROLE_SERVER || CYBLE_GATT_ROLE_CLIENT)
1317:.\Generated_Source\PSoC4/CYBLE_eventHandler.c **** 
1318:.\Generated_Source\PSoC4/CYBLE_eventHandler.c **** /****************************************************************************** 
1319:.\Generated_Source\PSoC4/CYBLE_eventHandler.c **** * Function Name: CyBle_IsDeviceAddressValid
1320:.\Generated_Source\PSoC4/CYBLE_eventHandler.c **** ***************************************************************************//**
1321:.\Generated_Source\PSoC4/CYBLE_eventHandler.c **** * 
1322:.\Generated_Source\PSoC4/CYBLE_eventHandler.c **** *  This function verifies that BLE public address has been programmed to SFLASH 
1323:.\Generated_Source\PSoC4/CYBLE_eventHandler.c **** *  during manufacture. It could be used to verify if public device address is 
1324:.\Generated_Source\PSoC4/CYBLE_eventHandler.c **** *  programmed to flash memory.
1325:.\Generated_Source\PSoC4/CYBLE_eventHandler.c **** * 
1326:.\Generated_Source\PSoC4/CYBLE_eventHandler.c **** *  \param deviceAddress: the pointer to the BD address of type CYBLE_GAP_BD_ADDR_T. 
1327:.\Generated_Source\PSoC4/CYBLE_eventHandler.c **** * 
1328:.\Generated_Source\PSoC4/CYBLE_eventHandler.c **** * \return
1329:.\Generated_Source\PSoC4/CYBLE_eventHandler.c **** *  Non zero value when a device address differs from the default SFLASH content.
1330:.\Generated_Source\PSoC4/CYBLE_eventHandler.c **** * 
1331:.\Generated_Source\PSoC4/CYBLE_eventHandler.c **** ******************************************************************************/
1332:.\Generated_Source\PSoC4/CYBLE_eventHandler.c **** uint8 CyBle_IsDeviceAddressValid(const CYBLE_GAP_BD_ADDR_T *deviceAddress)
1333:.\Generated_Source\PSoC4/CYBLE_eventHandler.c **** {
 259              		.loc 1 1333 0
 260              		.cfi_startproc
 261 0000 80B5     		push	{r7, lr}
 262              		.cfi_def_cfa_offset 8
 263              		.cfi_offset 7, -8
ARM GAS  C:\Users\igreg\AppData\Local\Temp\ccnO9ZHN.s 			page 29


 264              		.cfi_offset 14, -4
 265 0002 84B0     		sub	sp, sp, #16
 266              		.cfi_def_cfa_offset 24
 267 0004 00AF     		add	r7, sp, #0
 268              		.cfi_def_cfa_register 7
 269 0006 7860     		str	r0, [r7, #4]
1334:.\Generated_Source\PSoC4/CYBLE_eventHandler.c ****     uint8 i;
1335:.\Generated_Source\PSoC4/CYBLE_eventHandler.c ****     uint8 addressValid = 0u;
 270              		.loc 1 1335 0
 271 0008 0E23     		mov	r3, #14
 272 000a FB18     		add	r3, r7, r3
 273 000c 0022     		mov	r2, #0
 274 000e 1A70     		strb	r2, [r3]
1336:.\Generated_Source\PSoC4/CYBLE_eventHandler.c ****     
1337:.\Generated_Source\PSoC4/CYBLE_eventHandler.c ****     if(deviceAddress -> type == CYBLE_GAP_ADDR_TYPE_PUBLIC)  
 275              		.loc 1 1337 0
 276 0010 7B68     		ldr	r3, [r7, #4]
 277 0012 9B79     		ldrb	r3, [r3, #6]
 278 0014 002B     		cmp	r3, #0
 279 0016 1CD1     		bne	.L14
1338:.\Generated_Source\PSoC4/CYBLE_eventHandler.c ****     {
1339:.\Generated_Source\PSoC4/CYBLE_eventHandler.c ****         for(i = 0u; i < CYBLE_GAP_BD_ADDR_SIZE; i++)
 280              		.loc 1 1339 0
 281 0018 0F23     		mov	r3, #15
 282 001a FB18     		add	r3, r7, r3
 283 001c 0022     		mov	r2, #0
 284 001e 1A70     		strb	r2, [r3]
 285 0020 12E0     		b	.L15
 286              	.L17:
1340:.\Generated_Source\PSoC4/CYBLE_eventHandler.c ****         {
1341:.\Generated_Source\PSoC4/CYBLE_eventHandler.c ****             if(deviceAddress->bdAddr[i] != 0u)
 287              		.loc 1 1341 0
 288 0022 0F23     		mov	r3, #15
 289 0024 FB18     		add	r3, r7, r3
 290 0026 1B78     		ldrb	r3, [r3]
 291 0028 7A68     		ldr	r2, [r7, #4]
 292 002a D35C     		ldrb	r3, [r2, r3]
 293 002c 002B     		cmp	r3, #0
 294 002e 04D0     		beq	.L16
1342:.\Generated_Source\PSoC4/CYBLE_eventHandler.c ****             {
1343:.\Generated_Source\PSoC4/CYBLE_eventHandler.c ****                 addressValid = 1u;
 295              		.loc 1 1343 0
 296 0030 0E23     		mov	r3, #14
 297 0032 FB18     		add	r3, r7, r3
 298 0034 0122     		mov	r2, #1
 299 0036 1A70     		strb	r2, [r3]
1344:.\Generated_Source\PSoC4/CYBLE_eventHandler.c ****                 break;
 300              		.loc 1 1344 0
 301 0038 0BE0     		b	.L14
 302              	.L16:
1339:.\Generated_Source\PSoC4/CYBLE_eventHandler.c ****         {
 303              		.loc 1 1339 0 discriminator 2
 304 003a 0F23     		mov	r3, #15
 305 003c FB18     		add	r3, r7, r3
 306 003e 1A78     		ldrb	r2, [r3]
 307 0040 0F23     		mov	r3, #15
 308 0042 FB18     		add	r3, r7, r3
ARM GAS  C:\Users\igreg\AppData\Local\Temp\ccnO9ZHN.s 			page 30


 309 0044 0132     		add	r2, r2, #1
 310 0046 1A70     		strb	r2, [r3]
 311              	.L15:
1339:.\Generated_Source\PSoC4/CYBLE_eventHandler.c ****         {
 312              		.loc 1 1339 0 is_stmt 0 discriminator 1
 313 0048 0F23     		mov	r3, #15
 314 004a FB18     		add	r3, r7, r3
 315 004c 1B78     		ldrb	r3, [r3]
 316 004e 052B     		cmp	r3, #5
 317 0050 E7D9     		bls	.L17
 318              	.L14:
1345:.\Generated_Source\PSoC4/CYBLE_eventHandler.c ****             }
1346:.\Generated_Source\PSoC4/CYBLE_eventHandler.c ****         }
1347:.\Generated_Source\PSoC4/CYBLE_eventHandler.c ****     }
1348:.\Generated_Source\PSoC4/CYBLE_eventHandler.c ****     return (addressValid);
 319              		.loc 1 1348 0 is_stmt 1
 320 0052 0E23     		mov	r3, #14
 321 0054 FB18     		add	r3, r7, r3
 322 0056 1B78     		ldrb	r3, [r3]
1349:.\Generated_Source\PSoC4/CYBLE_eventHandler.c **** }
 323              		.loc 1 1349 0
 324 0058 181C     		mov	r0, r3
 325 005a BD46     		mov	sp, r7
 326 005c 04B0     		add	sp, sp, #16
 327              		@ sp needed
 328 005e 80BD     		pop	{r7, pc}
 329              		.cfi_endproc
 330              	.LFE7:
 331              		.size	CyBle_IsDeviceAddressValid, .-CyBle_IsDeviceAddressValid
 332              		.section	.text.CyBle_L2Cap_ConnParamUpdateRspEventHandler,"ax",%progbits
 333              		.align	2
 334              		.code	16
 335              		.thumb_func
 336              		.type	CyBle_L2Cap_ConnParamUpdateRspEventHandler, %function
 337              	CyBle_L2Cap_ConnParamUpdateRspEventHandler:
 338              	.LFB8:
1350:.\Generated_Source\PSoC4/CYBLE_eventHandler.c **** #endif /* CYBLE_GATT_ROLE_SERVER || CYBLE_GATT_ROLE_CLIENT */
1351:.\Generated_Source\PSoC4/CYBLE_eventHandler.c **** 
1352:.\Generated_Source\PSoC4/CYBLE_eventHandler.c **** 
1353:.\Generated_Source\PSoC4/CYBLE_eventHandler.c **** /****************************************************************************** 
1354:.\Generated_Source\PSoC4/CYBLE_eventHandler.c **** * Function Name: CyBle_L2Cap_ConnParamUpdateRspHandler
1355:.\Generated_Source\PSoC4/CYBLE_eventHandler.c **** ***************************************************************************//**
1356:.\Generated_Source\PSoC4/CYBLE_eventHandler.c **** * 
1357:.\Generated_Source\PSoC4/CYBLE_eventHandler.c **** *  Handles the L2CAP connection parameter response event from
1358:.\Generated_Source\PSoC4/CYBLE_eventHandler.c **** *  the BLE stack.
1359:.\Generated_Source\PSoC4/CYBLE_eventHandler.c **** * 
1360:.\Generated_Source\PSoC4/CYBLE_eventHandler.c **** *  \param response:
1361:.\Generated_Source\PSoC4/CYBLE_eventHandler.c **** *      * Accepted = 0x0000
1362:.\Generated_Source\PSoC4/CYBLE_eventHandler.c **** *      * Rejected = 0x0001
1363:.\Generated_Source\PSoC4/CYBLE_eventHandler.c **** * 
1364:.\Generated_Source\PSoC4/CYBLE_eventHandler.c **** * \return
1365:.\Generated_Source\PSoC4/CYBLE_eventHandler.c **** *  None
1366:.\Generated_Source\PSoC4/CYBLE_eventHandler.c **** * 
1367:.\Generated_Source\PSoC4/CYBLE_eventHandler.c **** ******************************************************************************/
1368:.\Generated_Source\PSoC4/CYBLE_eventHandler.c **** static void CyBle_L2Cap_ConnParamUpdateRspEventHandler(uint16 response)
1369:.\Generated_Source\PSoC4/CYBLE_eventHandler.c **** {
 339              		.loc 1 1369 0
ARM GAS  C:\Users\igreg\AppData\Local\Temp\ccnO9ZHN.s 			page 31


 340              		.cfi_startproc
 341 0000 80B5     		push	{r7, lr}
 342              		.cfi_def_cfa_offset 8
 343              		.cfi_offset 7, -8
 344              		.cfi_offset 14, -4
 345 0002 82B0     		sub	sp, sp, #8
 346              		.cfi_def_cfa_offset 16
 347 0004 00AF     		add	r7, sp, #0
 348              		.cfi_def_cfa_register 7
 349 0006 021C     		mov	r2, r0
 350 0008 BB1D     		add	r3, r7, #6
 351 000a 1A80     		strh	r2, [r3]
1370:.\Generated_Source\PSoC4/CYBLE_eventHandler.c ****     #ifdef CYBLE_CPS_SERVER
1371:.\Generated_Source\PSoC4/CYBLE_eventHandler.c ****         CyBle_CpssConnParamUpdateRspEventHandler(response);
1372:.\Generated_Source\PSoC4/CYBLE_eventHandler.c ****     #endif /* CYBLE_CPS_SERVER */
1373:.\Generated_Source\PSoC4/CYBLE_eventHandler.c ****     
1374:.\Generated_Source\PSoC4/CYBLE_eventHandler.c ****     /* Unreferenced variable warning workaround */
1375:.\Generated_Source\PSoC4/CYBLE_eventHandler.c ****     if(response != 0u)
1376:.\Generated_Source\PSoC4/CYBLE_eventHandler.c ****     {
1377:.\Generated_Source\PSoC4/CYBLE_eventHandler.c ****     }
1378:.\Generated_Source\PSoC4/CYBLE_eventHandler.c **** }
 352              		.loc 1 1378 0
 353 000c BD46     		mov	sp, r7
 354 000e 02B0     		add	sp, sp, #8
 355              		@ sp needed
 356 0010 80BD     		pop	{r7, pc}
 357              		.cfi_endproc
 358              	.LFE8:
 359              		.size	CyBle_L2Cap_ConnParamUpdateRspEventHandler, .-CyBle_L2Cap_ConnParamUpdateRspEventHandler
 360 0012 C046     		.section	.text.CyBle_GapConnUpdateCompleteEventHandler,"ax",%progbits
 361              		.align	2
 362              		.code	16
 363              		.thumb_func
 364              		.type	CyBle_GapConnUpdateCompleteEventHandler, %function
 365              	CyBle_GapConnUpdateCompleteEventHandler:
 366              	.LFB9:
1379:.\Generated_Source\PSoC4/CYBLE_eventHandler.c **** 
1380:.\Generated_Source\PSoC4/CYBLE_eventHandler.c **** 
1381:.\Generated_Source\PSoC4/CYBLE_eventHandler.c **** /****************************************************************************** 
1382:.\Generated_Source\PSoC4/CYBLE_eventHandler.c **** * Function Name: CyBle_GapConnUpdateCompleteEventHandler
1383:.\Generated_Source\PSoC4/CYBLE_eventHandler.c **** ***************************************************************************//**
1384:.\Generated_Source\PSoC4/CYBLE_eventHandler.c **** * 
1385:.\Generated_Source\PSoC4/CYBLE_eventHandler.c **** *  Handles the CYBLE_EVT_GAP_CONNECTION_UPDATE_COMPLETE event from
1386:.\Generated_Source\PSoC4/CYBLE_eventHandler.c **** *  the BLE stack.
1387:.\Generated_Source\PSoC4/CYBLE_eventHandler.c **** * 
1388:.\Generated_Source\PSoC4/CYBLE_eventHandler.c **** *  \param eventParam: The pointer to the data structure specified by the event.
1389:.\Generated_Source\PSoC4/CYBLE_eventHandler.c **** * 
1390:.\Generated_Source\PSoC4/CYBLE_eventHandler.c **** * \return
1391:.\Generated_Source\PSoC4/CYBLE_eventHandler.c **** *  None
1392:.\Generated_Source\PSoC4/CYBLE_eventHandler.c **** * 
1393:.\Generated_Source\PSoC4/CYBLE_eventHandler.c **** ******************************************************************************/
1394:.\Generated_Source\PSoC4/CYBLE_eventHandler.c **** static void CyBle_GapConnUpdateCompleteEventHandler(const CYBLE_GAP_CONN_PARAM_UPDATED_IN_CONTROLLE
1395:.\Generated_Source\PSoC4/CYBLE_eventHandler.c **** {
 367              		.loc 1 1395 0
 368              		.cfi_startproc
 369 0000 80B5     		push	{r7, lr}
 370              		.cfi_def_cfa_offset 8
ARM GAS  C:\Users\igreg\AppData\Local\Temp\ccnO9ZHN.s 			page 32


 371              		.cfi_offset 7, -8
 372              		.cfi_offset 14, -4
 373 0002 82B0     		sub	sp, sp, #8
 374              		.cfi_def_cfa_offset 16
 375 0004 00AF     		add	r7, sp, #0
 376              		.cfi_def_cfa_register 7
 377 0006 7860     		str	r0, [r7, #4]
1396:.\Generated_Source\PSoC4/CYBLE_eventHandler.c ****     #ifdef CYBLE_CPS_SERVER
1397:.\Generated_Source\PSoC4/CYBLE_eventHandler.c ****         CyBle_CpssConnUpdateCompleteEventHandler(eventParam);
1398:.\Generated_Source\PSoC4/CYBLE_eventHandler.c ****     #endif /* CYBLE_CPS_SERVER */
1399:.\Generated_Source\PSoC4/CYBLE_eventHandler.c ****     
1400:.\Generated_Source\PSoC4/CYBLE_eventHandler.c ****     /* Unreferenced variable warning workaround */
1401:.\Generated_Source\PSoC4/CYBLE_eventHandler.c ****     if(eventParam != 0u)
1402:.\Generated_Source\PSoC4/CYBLE_eventHandler.c ****     {
1403:.\Generated_Source\PSoC4/CYBLE_eventHandler.c ****     }
1404:.\Generated_Source\PSoC4/CYBLE_eventHandler.c **** }
 378              		.loc 1 1404 0
 379 0008 BD46     		mov	sp, r7
 380 000a 02B0     		add	sp, sp, #8
 381              		@ sp needed
 382 000c 80BD     		pop	{r7, pc}
 383              		.cfi_endproc
 384              	.LFE9:
 385              		.size	CyBle_GapConnUpdateCompleteEventHandler, .-CyBle_GapConnUpdateCompleteEventHandler
 386              		.section	.text.CyBle_EventHandler,"ax",%progbits
 387              		.align	2
 388              		.global	CyBle_EventHandler
 389              		.code	16
 390              		.thumb_func
 391              		.type	CyBle_EventHandler, %function
 392              	CyBle_EventHandler:
 393              	.LFB10:
1405:.\Generated_Source\PSoC4/CYBLE_eventHandler.c **** 
1406:.\Generated_Source\PSoC4/CYBLE_eventHandler.c **** 
1407:.\Generated_Source\PSoC4/CYBLE_eventHandler.c **** /****************************************************************************** 
1408:.\Generated_Source\PSoC4/CYBLE_eventHandler.c **** * Function Name: CyBle_EventHandler
1409:.\Generated_Source\PSoC4/CYBLE_eventHandler.c **** ***************************************************************************//**
1410:.\Generated_Source\PSoC4/CYBLE_eventHandler.c **** * 
1411:.\Generated_Source\PSoC4/CYBLE_eventHandler.c **** *  Handles the events from the BLE stack
1412:.\Generated_Source\PSoC4/CYBLE_eventHandler.c **** * 
1413:.\Generated_Source\PSoC4/CYBLE_eventHandler.c **** *  \param eventCode:    the event code
1414:.\Generated_Source\PSoC4/CYBLE_eventHandler.c **** *  \param eventParam:  the event parameters
1415:.\Generated_Source\PSoC4/CYBLE_eventHandler.c **** * 
1416:.\Generated_Source\PSoC4/CYBLE_eventHandler.c **** * \return
1417:.\Generated_Source\PSoC4/CYBLE_eventHandler.c **** *  None.
1418:.\Generated_Source\PSoC4/CYBLE_eventHandler.c **** * 
1419:.\Generated_Source\PSoC4/CYBLE_eventHandler.c **** ******************************************************************************/
1420:.\Generated_Source\PSoC4/CYBLE_eventHandler.c **** void CyBle_EventHandler(uint8 eventCode, void *eventParam)
1421:.\Generated_Source\PSoC4/CYBLE_eventHandler.c **** {
 394              		.loc 1 1421 0
 395              		.cfi_startproc
 396 0000 80B5     		push	{r7, lr}
 397              		.cfi_def_cfa_offset 8
 398              		.cfi_offset 7, -8
 399              		.cfi_offset 14, -4
 400 0002 88B0     		sub	sp, sp, #32
 401              		.cfi_def_cfa_offset 40
ARM GAS  C:\Users\igreg\AppData\Local\Temp\ccnO9ZHN.s 			page 33


 402 0004 00AF     		add	r7, sp, #0
 403              		.cfi_def_cfa_register 7
 404 0006 021C     		mov	r2, r0
 405 0008 3960     		str	r1, [r7]
 406 000a FB1D     		add	r3, r7, #7
 407 000c 1A70     		strb	r2, [r3]
1422:.\Generated_Source\PSoC4/CYBLE_eventHandler.c ****     cyBle_eventHandlerFlag |= CYBLE_CALLBACK;
 408              		.loc 1 1422 0
 409 000e C94B     		ldr	r3, .L58
 410 0010 1B78     		ldrb	r3, [r3]
 411 0012 DBB2     		uxtb	r3, r3
 412 0014 0122     		mov	r2, #1
 413 0016 1343     		orr	r3, r2
 414 0018 DAB2     		uxtb	r2, r3
 415 001a C64B     		ldr	r3, .L58
 416 001c 1A70     		strb	r2, [r3]
1423:.\Generated_Source\PSoC4/CYBLE_eventHandler.c **** 
1424:.\Generated_Source\PSoC4/CYBLE_eventHandler.c ****     /* Common Profile event handling */
1425:.\Generated_Source\PSoC4/CYBLE_eventHandler.c ****     switch(eventCode)
 417              		.loc 1 1425 0
 418 001e FB1D     		add	r3, r7, #7
 419 0020 1B78     		ldrb	r3, [r3]
 420 0022 712B     		cmp	r3, #113
 421 0024 00D9     		bls	.LCB347
 422 0026 6AE1     		b	.L57	@long jump
 423              	.LCB347:
 424 0028 9A00     		lsl	r2, r3, #2
 425 002a C34B     		ldr	r3, .L58+4
 426 002c D318     		add	r3, r2, r3
 427 002e 1B68     		ldr	r3, [r3]
 428 0030 9F46     		mov	pc, r3
 429              		.section	.rodata
 430              		.align	2
 431              	.L24:
 432 0000 FE020000 		.word	.L57
 433 0004 32000000 		.word	.L23
 434 0008 2E010000 		.word	.L25
 435 000c FE020000 		.word	.L57
 436 0010 FE020000 		.word	.L57
 437 0014 38010000 		.word	.L26
 438 0018 42010000 		.word	.L27
 439 001c FE020000 		.word	.L57
 440 0020 FE020000 		.word	.L57
 441 0024 FE020000 		.word	.L57
 442 0028 FE020000 		.word	.L57
 443 002c FE020000 		.word	.L57
 444 0030 FE020000 		.word	.L57
 445 0034 FE020000 		.word	.L57
 446 0038 FE020000 		.word	.L57
 447 003c FE020000 		.word	.L57
 448 0040 FE020000 		.word	.L57
 449 0044 FE020000 		.word	.L57
 450 0048 FE020000 		.word	.L57
 451 004c FE020000 		.word	.L57
 452 0050 FE020000 		.word	.L57
 453 0054 FE020000 		.word	.L57
 454 0058 FE020000 		.word	.L57
ARM GAS  C:\Users\igreg\AppData\Local\Temp\ccnO9ZHN.s 			page 34


 455 005c FE020000 		.word	.L57
 456 0060 FE020000 		.word	.L57
 457 0064 FE020000 		.word	.L57
 458 0068 FE020000 		.word	.L57
 459 006c FE020000 		.word	.L57
 460 0070 FE020000 		.word	.L57
 461 0074 FE020000 		.word	.L57
 462 0078 FE020000 		.word	.L57
 463 007c FE020000 		.word	.L57
 464 0080 FE020000 		.word	.L57
 465 0084 82010000 		.word	.L28
 466 0088 FE020000 		.word	.L57
 467 008c FE020000 		.word	.L57
 468 0090 FE020000 		.word	.L57
 469 0094 FE020000 		.word	.L57
 470 0098 D2010000 		.word	.L30
 471 009c BA010000 		.word	.L31
 472 00a0 CA010000 		.word	.L32
 473 00a4 FE020000 		.word	.L57
 474 00a8 B0010000 		.word	.L33
 475 00ac FE020000 		.word	.L57
 476 00b0 FE020000 		.word	.L57
 477 00b4 FE020000 		.word	.L57
 478 00b8 FE020000 		.word	.L57
 479 00bc FE020000 		.word	.L57
 480 00c0 FE020000 		.word	.L57
 481 00c4 FE020000 		.word	.L57
 482 00c8 FE020000 		.word	.L57
 483 00cc FE020000 		.word	.L57
 484 00d0 FE020000 		.word	.L57
 485 00d4 FE020000 		.word	.L57
 486 00d8 FE020000 		.word	.L57
 487 00dc FE020000 		.word	.L57
 488 00e0 FE020000 		.word	.L57
 489 00e4 FE020000 		.word	.L57
 490 00e8 FE020000 		.word	.L57
 491 00ec FE020000 		.word	.L57
 492 00f0 FE020000 		.word	.L57
 493 00f4 FE020000 		.word	.L57
 494 00f8 FE020000 		.word	.L57
 495 00fc FE020000 		.word	.L57
 496 0100 FE020000 		.word	.L57
 497 0104 6A020000 		.word	.L34
 498 0108 AA020000 		.word	.L35
 499 010c B0020000 		.word	.L36
 500 0110 FE020000 		.word	.L57
 501 0114 FE020000 		.word	.L57
 502 0118 FE020000 		.word	.L57
 503 011c FE020000 		.word	.L57
 504 0120 FE020000 		.word	.L57
 505 0124 FE020000 		.word	.L57
 506 0128 FE020000 		.word	.L57
 507 012c FE020000 		.word	.L57
 508 0130 EA020000 		.word	.L37
 509 0134 FE020000 		.word	.L57
 510 0138 FE020000 		.word	.L57
 511 013c FE020000 		.word	.L57
ARM GAS  C:\Users\igreg\AppData\Local\Temp\ccnO9ZHN.s 			page 35


 512 0140 FE020000 		.word	.L57
 513 0144 FE020000 		.word	.L57
 514 0148 FE020000 		.word	.L57
 515 014c FE020000 		.word	.L57
 516 0150 F4020000 		.word	.L41
 517 0154 FE020000 		.word	.L57
 518 0158 FE020000 		.word	.L57
 519 015c FE020000 		.word	.L57
 520 0160 FE020000 		.word	.L57
 521 0164 FE020000 		.word	.L57
 522 0168 FE020000 		.word	.L57
 523 016c FE020000 		.word	.L57
 524 0170 FE020000 		.word	.L57
 525 0174 FE020000 		.word	.L57
 526 0178 FE020000 		.word	.L57
 527 017c FE020000 		.word	.L57
 528 0180 FE020000 		.word	.L57
 529 0184 FE020000 		.word	.L57
 530 0188 FE020000 		.word	.L57
 531 018c FE020000 		.word	.L57
 532 0190 FE020000 		.word	.L57
 533 0194 FE020000 		.word	.L57
 534 0198 FE020000 		.word	.L57
 535 019c FE020000 		.word	.L57
 536 01a0 FE020000 		.word	.L57
 537 01a4 FE020000 		.word	.L57
 538 01a8 FE020000 		.word	.L57
 539 01ac FE020000 		.word	.L57
 540 01b0 FE020000 		.word	.L57
 541 01b4 FE020000 		.word	.L57
 542 01b8 FE020000 		.word	.L57
 543 01bc FE020000 		.word	.L57
 544 01c0 FE020000 		.word	.L57
 545 01c4 5E020000 		.word	.L43
 546              		.section	.text.CyBle_EventHandler
 547              	.L23:
 548              	.LBB3:
1426:.\Generated_Source\PSoC4/CYBLE_eventHandler.c ****     {
1427:.\Generated_Source\PSoC4/CYBLE_eventHandler.c ****         /**********************************************************
1428:.\Generated_Source\PSoC4/CYBLE_eventHandler.c ****         * General events
1429:.\Generated_Source\PSoC4/CYBLE_eventHandler.c ****         ************************************************************/
1430:.\Generated_Source\PSoC4/CYBLE_eventHandler.c ****         case CYBLE_EVT_STACK_ON:
1431:.\Generated_Source\PSoC4/CYBLE_eventHandler.c ****         #if(CYBLE_MODE_PROFILE)
1432:.\Generated_Source\PSoC4/CYBLE_eventHandler.c ****         {
1433:.\Generated_Source\PSoC4/CYBLE_eventHandler.c ****             CYBLE_BLESS_PWR_IN_DB_T bleSsPowerLevel;
1434:.\Generated_Source\PSoC4/CYBLE_eventHandler.c ****             
1435:.\Generated_Source\PSoC4/CYBLE_eventHandler.c ****             /* Set Tx Power Level for advertising and connection channels */
1436:.\Generated_Source\PSoC4/CYBLE_eventHandler.c ****             bleSsPowerLevel.blePwrLevelInDbm = CYBLE_TX_POWER_LEVEL_ADV;
 549              		.loc 1 1436 0
 550 0032 1023     		mov	r3, #16
 551 0034 FB18     		add	r3, r7, r3
 552 0036 0722     		mov	r2, #7
 553 0038 1A70     		strb	r2, [r3]
1437:.\Generated_Source\PSoC4/CYBLE_eventHandler.c ****             bleSsPowerLevel.bleSsChId = CYBLE_LL_ADV_CH_TYPE;
 554              		.loc 1 1437 0
 555 003a 1023     		mov	r3, #16
 556 003c FB18     		add	r3, r7, r3
ARM GAS  C:\Users\igreg\AppData\Local\Temp\ccnO9ZHN.s 			page 36


 557 003e 0022     		mov	r2, #0
 558 0040 5A70     		strb	r2, [r3, #1]
1438:.\Generated_Source\PSoC4/CYBLE_eventHandler.c ****             (void) CyBle_SetTxPowerLevel (&bleSsPowerLevel);
 559              		.loc 1 1438 0
 560 0042 1023     		mov	r3, #16
 561 0044 FB18     		add	r3, r7, r3
 562 0046 181C     		mov	r0, r3
 563 0048 FFF7FEFF 		bl	CyBle_SetTxPowerLevel
1439:.\Generated_Source\PSoC4/CYBLE_eventHandler.c ****             bleSsPowerLevel.blePwrLevelInDbm = CYBLE_TX_POWER_LEVEL_CONN;
 564              		.loc 1 1439 0
 565 004c 1023     		mov	r3, #16
 566 004e FB18     		add	r3, r7, r3
 567 0050 0722     		mov	r2, #7
 568 0052 1A70     		strb	r2, [r3]
1440:.\Generated_Source\PSoC4/CYBLE_eventHandler.c ****             bleSsPowerLevel.bleSsChId = CYBLE_LL_CONN_CH_TYPE;
 569              		.loc 1 1440 0
 570 0054 1023     		mov	r3, #16
 571 0056 FB18     		add	r3, r7, r3
 572 0058 0122     		mov	r2, #1
 573 005a 5A70     		strb	r2, [r3, #1]
1441:.\Generated_Source\PSoC4/CYBLE_eventHandler.c ****             (void) CyBle_SetTxPowerLevel (&bleSsPowerLevel);
 574              		.loc 1 1441 0
 575 005c 1023     		mov	r3, #16
 576 005e FB18     		add	r3, r7, r3
 577 0060 181C     		mov	r0, r3
 578 0062 FFF7FEFF 		bl	CyBle_SetTxPowerLevel
 579              	.LBE3:
1442:.\Generated_Source\PSoC4/CYBLE_eventHandler.c ****             
1443:.\Generated_Source\PSoC4/CYBLE_eventHandler.c ****         }
1444:.\Generated_Source\PSoC4/CYBLE_eventHandler.c ****         #endif /* CYBLE_MODE_PROFILE */
1445:.\Generated_Source\PSoC4/CYBLE_eventHandler.c ****         #if (CYBLE_GATT_ROLE_SERVER || CYBLE_GATT_ROLE_CLIENT)
1446:.\Generated_Source\PSoC4/CYBLE_eventHandler.c ****             /* Set device Address  */
1447:.\Generated_Source\PSoC4/CYBLE_eventHandler.c ****             if(CyBle_IsDeviceAddressValid(cyBle_sflashDeviceAddress) != 0u)
 580              		.loc 1 1447 0
 581 0066 B54B     		ldr	r3, .L58+8
 582 0068 1B68     		ldr	r3, [r3]
 583 006a 181C     		mov	r0, r3
 584 006c FFF7FEFF 		bl	CyBle_IsDeviceAddressValid
 585 0070 031E     		sub	r3, r0, #0
 586 0072 11D0     		beq	.L44
1448:.\Generated_Source\PSoC4/CYBLE_eventHandler.c ****             {
1449:.\Generated_Source\PSoC4/CYBLE_eventHandler.c ****                 (void) CyBle_SetDeviceAddress(cyBle_sflashDeviceAddress);
 587              		.loc 1 1449 0
 588 0074 B14B     		ldr	r3, .L58+8
 589 0076 1B68     		ldr	r3, [r3]
 590 0078 181C     		mov	r0, r3
 591 007a FFF7FEFF 		bl	CyBle_SetDeviceAddress
1450:.\Generated_Source\PSoC4/CYBLE_eventHandler.c ****                 #if(CYBLE_GAP_ROLE_PERIPHERAL || CYBLE_GAP_ROLE_BROADCASTER)
1451:.\Generated_Source\PSoC4/CYBLE_eventHandler.c ****                     CyBle_ChangeAdDeviceAddress(cyBle_sflashDeviceAddress, 0u);
 592              		.loc 1 1451 0
 593 007e AF4B     		ldr	r3, .L58+8
 594 0080 1B68     		ldr	r3, [r3]
 595 0082 181C     		mov	r0, r3
 596 0084 0021     		mov	r1, #0
 597 0086 FFF7FEFF 		bl	CyBle_ChangeAdDeviceAddress
1452:.\Generated_Source\PSoC4/CYBLE_eventHandler.c ****                     CyBle_ChangeAdDeviceAddress(cyBle_sflashDeviceAddress, 1u);
 598              		.loc 1 1452 0
ARM GAS  C:\Users\igreg\AppData\Local\Temp\ccnO9ZHN.s 			page 37


 599 008a AC4B     		ldr	r3, .L58+8
 600 008c 1B68     		ldr	r3, [r3]
 601 008e 181C     		mov	r0, r3
 602 0090 0121     		mov	r1, #1
 603 0092 FFF7FEFF 		bl	CyBle_ChangeAdDeviceAddress
 604 0096 36E0     		b	.L45
 605              	.L44:
 606              	.LBB4:
1453:.\Generated_Source\PSoC4/CYBLE_eventHandler.c ****                 #endif /* CYBLE_GAP_ROLE_PERIPHERAL || CYBLE_GAP_ROLE_BROADCASTER */    
1454:.\Generated_Source\PSoC4/CYBLE_eventHandler.c ****             }
1455:.\Generated_Source\PSoC4/CYBLE_eventHandler.c ****             else
1456:.\Generated_Source\PSoC4/CYBLE_eventHandler.c ****             {
1457:.\Generated_Source\PSoC4/CYBLE_eventHandler.c ****             #if (SILICON_GENERATED_DEVICE_ADDRESS != 0u)
1458:.\Generated_Source\PSoC4/CYBLE_eventHandler.c ****             {
1459:.\Generated_Source\PSoC4/CYBLE_eventHandler.c ****                 uint32 bdAddrLoc;
1460:.\Generated_Source\PSoC4/CYBLE_eventHandler.c ****                 bdAddrLoc = (CYBLE_SFLASH_DIE_X_REG & CYBLE_SFLASH_DIE_X_MASK) |
 607              		.loc 1 1460 0
 608 0098 A94B     		ldr	r3, .L58+12
 609 009a 1B78     		ldrb	r3, [r3]
 610 009c 1A1C     		mov	r2, r3
 611 009e 3F23     		mov	r3, #63
 612 00a0 1A40     		and	r2, r3
1461:.\Generated_Source\PSoC4/CYBLE_eventHandler.c ****                     ((uint32)(((uint32)CYBLE_SFLASH_DIE_Y_REG) & ((uint32)CYBLE_SFLASH_DIE_Y_MASK))
 613              		.loc 1 1461 0
 614 00a2 A84B     		ldr	r3, .L58+16
 615 00a4 1B78     		ldrb	r3, [r3]
 616 00a6 191C     		mov	r1, r3
 617 00a8 3F23     		mov	r3, #63
 618 00aa 0B40     		and	r3, r1
 619 00ac 9B01     		lsl	r3, r3, #6
1460:.\Generated_Source\PSoC4/CYBLE_eventHandler.c ****                     ((uint32)(((uint32)CYBLE_SFLASH_DIE_Y_REG) & ((uint32)CYBLE_SFLASH_DIE_Y_MASK))
 620              		.loc 1 1460 0
 621 00ae 1A43     		orr	r2, r3
1462:.\Generated_Source\PSoC4/CYBLE_eventHandler.c ****                         CYBLE_SFLASH_DIE_X_BITS) |
1463:.\Generated_Source\PSoC4/CYBLE_eventHandler.c ****                     ((uint32)(((uint32)CYBLE_SFLASH_DIE_WAFER_REG) & ((uint32)CYBLE_SFLASH_DIE_WAFE
 622              		.loc 1 1463 0
 623 00b0 A54B     		ldr	r3, .L58+20
 624 00b2 1B78     		ldrb	r3, [r3]
 625 00b4 191C     		mov	r1, r3
 626 00b6 1F23     		mov	r3, #31
 627 00b8 0B40     		and	r3, r1
 628 00ba 1B03     		lsl	r3, r3, #12
1462:.\Generated_Source\PSoC4/CYBLE_eventHandler.c ****                         CYBLE_SFLASH_DIE_X_BITS) |
 629              		.loc 1 1462 0
 630 00bc 1A43     		orr	r2, r3
1464:.\Generated_Source\PSoC4/CYBLE_eventHandler.c ****                         CYBLE_SFLASH_DIE_XY_BITS) |
1465:.\Generated_Source\PSoC4/CYBLE_eventHandler.c ****                     ((uint32)(((uint32)CYBLE_SFLASH_DIE_LOT_REG) & ((uint32)CYBLE_SFLASH_DIE_LOT_MA
 631              		.loc 1 1465 0
 632 00be A34B     		ldr	r3, .L58+24
 633 00c0 1B78     		ldrb	r3, [r3]
 634 00c2 191C     		mov	r1, r3
 635 00c4 7F23     		mov	r3, #127
 636 00c6 0B40     		and	r3, r1
 637 00c8 5B04     		lsl	r3, r3, #17
1460:.\Generated_Source\PSoC4/CYBLE_eventHandler.c ****                     ((uint32)(((uint32)CYBLE_SFLASH_DIE_Y_REG) & ((uint32)CYBLE_SFLASH_DIE_Y_MASK))
 638              		.loc 1 1460 0
 639 00ca 1343     		orr	r3, r2
ARM GAS  C:\Users\igreg\AppData\Local\Temp\ccnO9ZHN.s 			page 38


 640 00cc BB61     		str	r3, [r7, #24]
1466:.\Generated_Source\PSoC4/CYBLE_eventHandler.c ****                         CYBLE_SFLASH_DIE_XYWAFER_BITS);
1467:.\Generated_Source\PSoC4/CYBLE_eventHandler.c ****                             
1468:.\Generated_Source\PSoC4/CYBLE_eventHandler.c ****                 cyBle_deviceAddress.bdAddr[0] = (uint8)bdAddrLoc;
 641              		.loc 1 1468 0
 642 00ce BB69     		ldr	r3, [r7, #24]
 643 00d0 DAB2     		uxtb	r2, r3
 644 00d2 9F4B     		ldr	r3, .L58+28
 645 00d4 1A70     		strb	r2, [r3]
1469:.\Generated_Source\PSoC4/CYBLE_eventHandler.c ****                 cyBle_deviceAddress.bdAddr[1] = (uint8)(bdAddrLoc >> 8u);
 646              		.loc 1 1469 0
 647 00d6 BB69     		ldr	r3, [r7, #24]
 648 00d8 1B0A     		lsr	r3, r3, #8
 649 00da DAB2     		uxtb	r2, r3
 650 00dc 9C4B     		ldr	r3, .L58+28
 651 00de 5A70     		strb	r2, [r3, #1]
1470:.\Generated_Source\PSoC4/CYBLE_eventHandler.c ****                 cyBle_deviceAddress.bdAddr[2] = (uint8)(bdAddrLoc >> 16u);
 652              		.loc 1 1470 0
 653 00e0 BB69     		ldr	r3, [r7, #24]
 654 00e2 1B0C     		lsr	r3, r3, #16
 655 00e4 DAB2     		uxtb	r2, r3
 656 00e6 9A4B     		ldr	r3, .L58+28
 657 00e8 9A70     		strb	r2, [r3, #2]
 658              	.LBE4:
1471:.\Generated_Source\PSoC4/CYBLE_eventHandler.c ****             }
1472:.\Generated_Source\PSoC4/CYBLE_eventHandler.c ****             #endif /* SILICON_GENERATED_DEVICE_ADDRESS != 0u */
1473:.\Generated_Source\PSoC4/CYBLE_eventHandler.c ****                 (void) CyBle_SetDeviceAddress(&cyBle_deviceAddress);
 659              		.loc 1 1473 0
 660 00ea 994B     		ldr	r3, .L58+28
 661 00ec 181C     		mov	r0, r3
 662 00ee FFF7FEFF 		bl	CyBle_SetDeviceAddress
1474:.\Generated_Source\PSoC4/CYBLE_eventHandler.c ****                 #if(CYBLE_GAP_ROLE_PERIPHERAL || CYBLE_GAP_ROLE_BROADCASTER)
1475:.\Generated_Source\PSoC4/CYBLE_eventHandler.c ****                     CyBle_ChangeAdDeviceAddress(&cyBle_deviceAddress, 0u);
 663              		.loc 1 1475 0
 664 00f2 974B     		ldr	r3, .L58+28
 665 00f4 181C     		mov	r0, r3
 666 00f6 0021     		mov	r1, #0
 667 00f8 FFF7FEFF 		bl	CyBle_ChangeAdDeviceAddress
1476:.\Generated_Source\PSoC4/CYBLE_eventHandler.c ****                     CyBle_ChangeAdDeviceAddress(&cyBle_deviceAddress, 1u);
 668              		.loc 1 1476 0
 669 00fc 944B     		ldr	r3, .L58+28
 670 00fe 181C     		mov	r0, r3
 671 0100 0121     		mov	r1, #1
 672 0102 FFF7FEFF 		bl	CyBle_ChangeAdDeviceAddress
 673              	.L45:
1477:.\Generated_Source\PSoC4/CYBLE_eventHandler.c ****                 #endif /* CYBLE_GAP_ROLE_PERIPHERAL || CYBLE_GAP_ROLE_BROADCASTER */    
1478:.\Generated_Source\PSoC4/CYBLE_eventHandler.c ****             }
1479:.\Generated_Source\PSoC4/CYBLE_eventHandler.c ****             /* Set device IO Capability  */
1480:.\Generated_Source\PSoC4/CYBLE_eventHandler.c ****             (void) CyBle_GapSetIoCap(CYBLE_IO_CAPABILITY);    
 674              		.loc 1 1480 0
 675 0106 0320     		mov	r0, #3
 676 0108 FFF7FEFF 		bl	CyBle_GapSetIoCap
 677              	.LBB5:
1481:.\Generated_Source\PSoC4/CYBLE_eventHandler.c ****             {
1482:.\Generated_Source\PSoC4/CYBLE_eventHandler.c ****                 /* Enable all 4.1 events and configured 4.2 events */
1483:.\Generated_Source\PSoC4/CYBLE_eventHandler.c ****                 uint8 leMask[CYBLE_LE_MASK_LENGTH] = {LO8(CYBLE_LE_MASK), HI8(CYBLE_LE_MASK)};
 678              		.loc 1 1483 0
ARM GAS  C:\Users\igreg\AppData\Local\Temp\ccnO9ZHN.s 			page 39


 679 010c 0C23     		mov	r3, #12
 680 010e FB18     		add	r3, r7, r3
 681 0110 3F22     		mov	r2, #63
 682 0112 1A70     		strb	r2, [r3]
 683 0114 0C23     		mov	r3, #12
 684 0116 FB18     		add	r3, r7, r3
 685 0118 0022     		mov	r2, #0
 686 011a 5A70     		strb	r2, [r3, #1]
1484:.\Generated_Source\PSoC4/CYBLE_eventHandler.c ****                 (void) CyBle_GapSetLeEventMask(leMask);
 687              		.loc 1 1484 0
 688 011c 0C23     		mov	r3, #12
 689 011e FB18     		add	r3, r7, r3
 690 0120 181C     		mov	r0, r3
 691 0122 FFF7FEFF 		bl	CyBle_GapSetLeEventMask
 692              	.LBE5:
1485:.\Generated_Source\PSoC4/CYBLE_eventHandler.c ****             }
1486:.\Generated_Source\PSoC4/CYBLE_eventHandler.c ****         #if(CYBLE_DLE_FEATURE_ENABLED)
1487:.\Generated_Source\PSoC4/CYBLE_eventHandler.c ****         {
1488:.\Generated_Source\PSoC4/CYBLE_eventHandler.c ****             /* Set maximum suggested TX payload size */
1489:.\Generated_Source\PSoC4/CYBLE_eventHandler.c ****             uint16 payloadTime = CYBLE_LL_MAX_TX_TIME;
1490:.\Generated_Source\PSoC4/CYBLE_eventHandler.c ****             (void) CyBle_GapConvertOctetToTime(CYBLE_GAP_PHY_1MBPS, CYBLE_LL_MAX_TX_PAYLOAD_SIZE, &
1491:.\Generated_Source\PSoC4/CYBLE_eventHandler.c ****             (void) CyBle_GapSetSuggestedDataLength(CYBLE_LL_MAX_TX_PAYLOAD_SIZE, payloadTime); 
1492:.\Generated_Source\PSoC4/CYBLE_eventHandler.c ****         }
1493:.\Generated_Source\PSoC4/CYBLE_eventHandler.c ****         #endif /* CYBLE_DLE_FEATURE != 0u */
1494:.\Generated_Source\PSoC4/CYBLE_eventHandler.c ****         
1495:.\Generated_Source\PSoC4/CYBLE_eventHandler.c ****         #endif /* CYBLE_GATT_ROLE_SERVER || CYBLE_GATT_ROLE_CLIENT */
1496:.\Generated_Source\PSoC4/CYBLE_eventHandler.c ****             CyBle_SetState(CYBLE_STATE_DISCONNECTED);
 693              		.loc 1 1496 0
 694 0126 8B4B     		ldr	r3, .L58+32
 695 0128 0422     		mov	r2, #4
 696 012a 1A70     		strb	r2, [r3]
1497:.\Generated_Source\PSoC4/CYBLE_eventHandler.c ****             break;
 697              		.loc 1 1497 0
 698 012c E8E0     		b	.L46
 699              	.L25:
1498:.\Generated_Source\PSoC4/CYBLE_eventHandler.c ****         case CYBLE_EVT_TIMEOUT:
1499:.\Generated_Source\PSoC4/CYBLE_eventHandler.c ****             CyBle_TimeOutEventHandler((CYBLE_TO_REASON_CODE_T *)eventParam);
 700              		.loc 1 1499 0
 701 012e 3B68     		ldr	r3, [r7]
 702 0130 181C     		mov	r0, r3
 703 0132 FFF7FEFF 		bl	CyBle_TimeOutEventHandler
1500:.\Generated_Source\PSoC4/CYBLE_eventHandler.c ****             break;
 704              		.loc 1 1500 0
 705 0136 E3E0     		b	.L46
 706              	.L26:
1501:.\Generated_Source\PSoC4/CYBLE_eventHandler.c ****     	case CYBLE_EVT_STACK_BUSY_STATUS:
1502:.\Generated_Source\PSoC4/CYBLE_eventHandler.c ****             cyBle_busyStatus = *(uint8 *)eventParam;
 707              		.loc 1 1502 0
 708 0138 3B68     		ldr	r3, [r7]
 709 013a 1A78     		ldrb	r2, [r3]
 710 013c 864B     		ldr	r3, .L58+36
 711 013e 1A70     		strb	r2, [r3]
1503:.\Generated_Source\PSoC4/CYBLE_eventHandler.c ****             break;
 712              		.loc 1 1503 0
 713 0140 DEE0     		b	.L46
 714              	.L27:
 715              	.LBB6:
ARM GAS  C:\Users\igreg\AppData\Local\Temp\ccnO9ZHN.s 			page 40


1504:.\Generated_Source\PSoC4/CYBLE_eventHandler.c ****     	case CYBLE_EVT_MEMORY_REQUEST:
1505:.\Generated_Source\PSoC4/CYBLE_eventHandler.c ****         #if(CYBLE_MODE_PROFILE)
1506:.\Generated_Source\PSoC4/CYBLE_eventHandler.c ****         {
1507:.\Generated_Source\PSoC4/CYBLE_eventHandler.c ****             CYBLE_MEMORY_REQUEST_T *memReq = (CYBLE_MEMORY_REQUEST_T *)eventParam;
 716              		.loc 1 1507 0
 717 0142 3B68     		ldr	r3, [r7]
 718 0144 7B61     		str	r3, [r7, #20]
1508:.\Generated_Source\PSoC4/CYBLE_eventHandler.c ****             if(memReq->request == CYBLE_PREPARED_WRITE_REQUEST)
 719              		.loc 1 1508 0
 720 0146 7B69     		ldr	r3, [r7, #20]
 721 0148 1B78     		ldrb	r3, [r3]
 722 014a 002B     		cmp	r3, #0
 723 014c 18D1     		bne	.L47
1509:.\Generated_Source\PSoC4/CYBLE_eventHandler.c ****             {  
1510:.\Generated_Source\PSoC4/CYBLE_eventHandler.c ****             #if(CYBLE_GATT_ENABLE_EXTERNAL_PREP_WRITE_BUFF == 0u)
1511:.\Generated_Source\PSoC4/CYBLE_eventHandler.c ****                 /* Stack requests to provide memory to process remote request */
1512:.\Generated_Source\PSoC4/CYBLE_eventHandler.c ****                 if(memReq->allocFree == CYBLE_ALLOC_MEMORY)
 724              		.loc 1 1512 0
 725 014e 7B69     		ldr	r3, [r7, #20]
 726 0150 5B78     		ldrb	r3, [r3, #1]
 727 0152 002B     		cmp	r3, #0
 728 0154 0BD1     		bne	.L48
 729              	.LBB7:
1513:.\Generated_Source\PSoC4/CYBLE_eventHandler.c ****                 {
1514:.\Generated_Source\PSoC4/CYBLE_eventHandler.c ****                     static CYBLE_PREPARE_WRITE_REQUEST_MEMORY_T gPrepWriteReqMem;
1515:.\Generated_Source\PSoC4/CYBLE_eventHandler.c ****                     
1516:.\Generated_Source\PSoC4/CYBLE_eventHandler.c ****                     /* Configure and return statically allocated buffer at the end of cyBle_stackMe
1517:.\Generated_Source\PSoC4/CYBLE_eventHandler.c ****                     gPrepWriteReqMem.prepareWriteQueueSize = CYBLE_GATT_MAX_PREPARE_BUFF_COUNT;
 730              		.loc 1 1517 0
 731 0156 814B     		ldr	r3, .L58+40
 732 0158 0022     		mov	r2, #0
 733 015a DA80     		strh	r2, [r3, #6]
1518:.\Generated_Source\PSoC4/CYBLE_eventHandler.c ****                     gPrepWriteReqMem.totalAttrValueLength = CYBLE_GATT_PREPARE_LENGTH_ALIGN;
 734              		.loc 1 1518 0
 735 015c 7F4B     		ldr	r3, .L58+40
 736 015e 0022     		mov	r2, #0
 737 0160 9A80     		strh	r2, [r3, #4]
1519:.\Generated_Source\PSoC4/CYBLE_eventHandler.c ****                     gPrepWriteReqMem.queueBuffer = &cyBle_stackMemoryRam[CYBLE_STACK_RAM_SIZE - 
 738              		.loc 1 1519 0
 739 0162 7E4B     		ldr	r3, .L58+40
 740 0164 7E4A     		ldr	r2, .L58+44
 741 0166 1A60     		str	r2, [r3]
1520:.\Generated_Source\PSoC4/CYBLE_eventHandler.c ****                                                                          CYBLE_GATT_PREPARE_WRITE_B
1521:.\Generated_Source\PSoC4/CYBLE_eventHandler.c ****                     memReq->configMemory = &gPrepWriteReqMem;  
 742              		.loc 1 1521 0
 743 0168 7B69     		ldr	r3, [r7, #20]
 744 016a 7C4A     		ldr	r2, .L58+40
 745 016c 5A60     		str	r2, [r3, #4]
 746              	.L48:
 747              	.LBE7:
1522:.\Generated_Source\PSoC4/CYBLE_eventHandler.c ****                 }                
1523:.\Generated_Source\PSoC4/CYBLE_eventHandler.c ****                 /* Clear CYBLE_CALLBACK flag not to provide handled event to application */
1524:.\Generated_Source\PSoC4/CYBLE_eventHandler.c ****                 cyBle_eventHandlerFlag &= (uint8)~CYBLE_CALLBACK;
 748              		.loc 1 1524 0
 749 016e 714B     		ldr	r3, .L58
 750 0170 1B78     		ldrb	r3, [r3]
 751 0172 DBB2     		uxtb	r3, r3
ARM GAS  C:\Users\igreg\AppData\Local\Temp\ccnO9ZHN.s 			page 41


 752 0174 0122     		mov	r2, #1
 753 0176 9343     		bic	r3, r2
 754 0178 DAB2     		uxtb	r2, r3
 755 017a 6E4B     		ldr	r3, .L58
 756 017c 1A70     		strb	r2, [r3]
 757              	.LBE6:
1525:.\Generated_Source\PSoC4/CYBLE_eventHandler.c ****             #endif  /* CYBLE_GATT_ENABLE_EXTERNAL_PREP_WRITE_BUFF == 0u */
1526:.\Generated_Source\PSoC4/CYBLE_eventHandler.c ****             }
1527:.\Generated_Source\PSoC4/CYBLE_eventHandler.c ****         }
1528:.\Generated_Source\PSoC4/CYBLE_eventHandler.c ****         #endif /* CYBLE_MODE_PROFILE */
1529:.\Generated_Source\PSoC4/CYBLE_eventHandler.c ****             break;
 758              		.loc 1 1529 0
 759 017e BFE0     		b	.L46
 760              	.L47:
 761 0180 BEE0     		b	.L46
 762              	.L28:
1530:.\Generated_Source\PSoC4/CYBLE_eventHandler.c ****         /**********************************************************
1531:.\Generated_Source\PSoC4/CYBLE_eventHandler.c ****         * GAP events
1532:.\Generated_Source\PSoC4/CYBLE_eventHandler.c ****         ************************************************************/
1533:.\Generated_Source\PSoC4/CYBLE_eventHandler.c ****         case CYBLE_EVT_GAP_AUTH_REQ:
1534:.\Generated_Source\PSoC4/CYBLE_eventHandler.c ****         #if(CYBLE_MODE_PROFILE)
1535:.\Generated_Source\PSoC4/CYBLE_eventHandler.c ****             if(0u == (cyBle_eventHandlerFlag & CYBLE_DISABLE_AUTOMATIC_AUTH))
 763              		.loc 1 1535 0
 764 0182 6C4B     		ldr	r3, .L58
 765 0184 1B78     		ldrb	r3, [r3]
 766 0186 DBB2     		uxtb	r3, r3
 767 0188 1A1C     		mov	r2, r3
 768 018a 2023     		mov	r3, #32
 769 018c 1340     		and	r3, r2
 770 018e 0ED1     		bne	.L49
1536:.\Generated_Source\PSoC4/CYBLE_eventHandler.c ****             {
1537:.\Generated_Source\PSoC4/CYBLE_eventHandler.c ****                 /* If the responding device does not support pairing then the responding 
1538:.\Generated_Source\PSoC4/CYBLE_eventHandler.c ****                    device shall respond using the Pairing Failed message with the error 
1539:.\Generated_Source\PSoC4/CYBLE_eventHandler.c ****                    code "Pairing Not Supported" otherwise it responds with a Pairing 
1540:.\Generated_Source\PSoC4/CYBLE_eventHandler.c ****                    Response message.
1541:.\Generated_Source\PSoC4/CYBLE_eventHandler.c ****                 */
1542:.\Generated_Source\PSoC4/CYBLE_eventHandler.c ****                 if(cyBle_authInfo.security == (CYBLE_GAP_SEC_MODE_1 | CYBLE_GAP_SEC_LEVEL_1))
 771              		.loc 1 1542 0
 772 0190 744B     		ldr	r3, .L58+48
 773 0192 1B78     		ldrb	r3, [r3]
 774 0194 102B     		cmp	r3, #16
 775 0196 02D1     		bne	.L50
1543:.\Generated_Source\PSoC4/CYBLE_eventHandler.c ****                 {
1544:.\Generated_Source\PSoC4/CYBLE_eventHandler.c ****                     cyBle_authInfo.authErr = CYBLE_GAP_AUTH_ERROR_PAIRING_NOT_SUPPORTED;
 776              		.loc 1 1544 0
 777 0198 724B     		ldr	r3, .L58+48
 778 019a 0522     		mov	r2, #5
 779 019c DA70     		strb	r2, [r3, #3]
 780              	.L50:
1545:.\Generated_Source\PSoC4/CYBLE_eventHandler.c ****                 }    
1546:.\Generated_Source\PSoC4/CYBLE_eventHandler.c ****             #if(CYBLE_GAP_ROLE_PERIPHERAL)
1547:.\Generated_Source\PSoC4/CYBLE_eventHandler.c ****                 (void)CyBle_GappAuthReqReply(cyBle_connHandle.bdHandle, &cyBle_authInfo);
 781              		.loc 1 1547 0
 782 019e 724B     		ldr	r3, .L58+52
 783 01a0 1A78     		ldrb	r2, [r3]
 784 01a2 704B     		ldr	r3, .L58+48
 785 01a4 101C     		mov	r0, r2
ARM GAS  C:\Users\igreg\AppData\Local\Temp\ccnO9ZHN.s 			page 42


 786 01a6 191C     		mov	r1, r3
 787 01a8 FFF7FEFF 		bl	CyBle_GappAuthReqReply
1548:.\Generated_Source\PSoC4/CYBLE_eventHandler.c ****             #endif /* CYBLE_GAP_ROLE_PERIPHERAL */
1549:.\Generated_Source\PSoC4/CYBLE_eventHandler.c ****             #if (CYBLE_GAP_ROLE_CENTRAL)
1550:.\Generated_Source\PSoC4/CYBLE_eventHandler.c ****                 (void)CyBle_GapAuthReq(cyBle_connHandle.bdHandle, &cyBle_authInfo);
1551:.\Generated_Source\PSoC4/CYBLE_eventHandler.c ****             #endif /* CYBLE_GAP_ROLE_CENTRAL */
1552:.\Generated_Source\PSoC4/CYBLE_eventHandler.c ****             }
1553:.\Generated_Source\PSoC4/CYBLE_eventHandler.c ****         #endif /* CYBLE_MODE_PROFILE */
1554:.\Generated_Source\PSoC4/CYBLE_eventHandler.c ****             break;
 788              		.loc 1 1554 0
 789 01ac A8E0     		b	.L46
 790              	.L49:
 791 01ae A7E0     		b	.L46
 792              	.L33:
1555:.\Generated_Source\PSoC4/CYBLE_eventHandler.c ****         
1556:.\Generated_Source\PSoC4/CYBLE_eventHandler.c ****         case CYBLE_EVT_GAP_AUTH_COMPLETE:
1557:.\Generated_Source\PSoC4/CYBLE_eventHandler.c ****         #if((CYBLE_GAP_ROLE_PERIPHERAL || CYBLE_GAP_ROLE_CENTRAL) && (CYBLE_BONDING_REQUIREMENT == 
1558:.\Generated_Source\PSoC4/CYBLE_eventHandler.c ****             cyBle_peerBonding = ((CYBLE_GAP_AUTH_INFO_T *)eventParam)->bonding;
1559:.\Generated_Source\PSoC4/CYBLE_eventHandler.c ****         #endif  /* CYBLE_BONDING_REQUIREMENT == CYBLE_BONDING_YES */
1560:.\Generated_Source\PSoC4/CYBLE_eventHandler.c ****             break;
1561:.\Generated_Source\PSoC4/CYBLE_eventHandler.c ****         
1562:.\Generated_Source\PSoC4/CYBLE_eventHandler.c ****         case CYBLE_EVT_GAP_CONNECTION_UPDATE_COMPLETE:
1563:.\Generated_Source\PSoC4/CYBLE_eventHandler.c ****             CyBle_GapConnUpdateCompleteEventHandler((const CYBLE_GAP_CONN_PARAM_UPDATED_IN_CONTROLL
 793              		.loc 1 1563 0
 794 01b0 3B68     		ldr	r3, [r7]
 795 01b2 181C     		mov	r0, r3
 796 01b4 FFF7FEFF 		bl	CyBle_GapConnUpdateCompleteEventHandler
1564:.\Generated_Source\PSoC4/CYBLE_eventHandler.c ****             break;
 797              		.loc 1 1564 0
 798 01b8 A2E0     		b	.L46
 799              	.L31:
1565:.\Generated_Source\PSoC4/CYBLE_eventHandler.c ****             
1566:.\Generated_Source\PSoC4/CYBLE_eventHandler.c ****     #if(CYBLE_LL_PRIVACY_FEATURE != 0u)        
1567:.\Generated_Source\PSoC4/CYBLE_eventHandler.c ****         case CYBLE_EVT_GAP_ENHANCE_CONN_COMPLETE:
1568:.\Generated_Source\PSoC4/CYBLE_eventHandler.c ****         {
1569:.\Generated_Source\PSoC4/CYBLE_eventHandler.c ****             CYBLE_GAP_CONN_PARAM_UPDATED_IN_CONTROLLER_T  connCParam;
1570:.\Generated_Source\PSoC4/CYBLE_eventHandler.c ****             CYBLE_GAP_ENHANCE_CONN_COMPLETE_T *connEnhanceParam;
1571:.\Generated_Source\PSoC4/CYBLE_eventHandler.c ****             
1572:.\Generated_Source\PSoC4/CYBLE_eventHandler.c ****             connEnhanceParam = (CYBLE_GAP_ENHANCE_CONN_COMPLETE_T *)eventParam;
1573:.\Generated_Source\PSoC4/CYBLE_eventHandler.c ****             connCParam.status = connEnhanceParam->status;
1574:.\Generated_Source\PSoC4/CYBLE_eventHandler.c ****             connCParam.connIntv = connEnhanceParam->connIntv;
1575:.\Generated_Source\PSoC4/CYBLE_eventHandler.c ****             connCParam.connLatency = connEnhanceParam->connLatency;
1576:.\Generated_Source\PSoC4/CYBLE_eventHandler.c ****             connCParam.supervisionTO = connEnhanceParam->supervisionTo;
1577:.\Generated_Source\PSoC4/CYBLE_eventHandler.c ****             CyBle_GapConnUpdateCompleteEventHandler((const CYBLE_GAP_CONN_PARAM_UPDATED_IN_CONTROLL
1578:.\Generated_Source\PSoC4/CYBLE_eventHandler.c ****             
1579:.\Generated_Source\PSoC4/CYBLE_eventHandler.c ****             #if(CYBLE_GAP_ROLE_CENTRAL)
1580:.\Generated_Source\PSoC4/CYBLE_eventHandler.c ****                 if(cyBle_connectingTimeout != 0u)
1581:.\Generated_Source\PSoC4/CYBLE_eventHandler.c ****                 {
1582:.\Generated_Source\PSoC4/CYBLE_eventHandler.c ****                    (void)CyBle_StopTimer();
1583:.\Generated_Source\PSoC4/CYBLE_eventHandler.c ****                 }
1584:.\Generated_Source\PSoC4/CYBLE_eventHandler.c ****             #endif /* CYBLE_GAP_ROLE_CENTRAL */
1585:.\Generated_Source\PSoC4/CYBLE_eventHandler.c ****             CyBle_SetState(CYBLE_STATE_CONNECTED);
1586:.\Generated_Source\PSoC4/CYBLE_eventHandler.c ****         }
1587:.\Generated_Source\PSoC4/CYBLE_eventHandler.c ****             break;
1588:.\Generated_Source\PSoC4/CYBLE_eventHandler.c ****     #endif /* CYBLE_LL_PRIVACY_FEATURE != 0u */      
1589:.\Generated_Source\PSoC4/CYBLE_eventHandler.c ****             
1590:.\Generated_Source\PSoC4/CYBLE_eventHandler.c ****         case CYBLE_EVT_GAP_DEVICE_CONNECTED:
ARM GAS  C:\Users\igreg\AppData\Local\Temp\ccnO9ZHN.s 			page 43


1591:.\Generated_Source\PSoC4/CYBLE_eventHandler.c ****             CyBle_GapConnUpdateCompleteEventHandler((const CYBLE_GAP_CONN_PARAM_UPDATED_IN_CONTROLL
 800              		.loc 1 1591 0
 801 01ba 3B68     		ldr	r3, [r7]
 802 01bc 181C     		mov	r0, r3
 803 01be FFF7FEFF 		bl	CyBle_GapConnUpdateCompleteEventHandler
1592:.\Generated_Source\PSoC4/CYBLE_eventHandler.c ****             #if(CYBLE_GAP_ROLE_CENTRAL)
1593:.\Generated_Source\PSoC4/CYBLE_eventHandler.c ****                 if(cyBle_connectingTimeout != 0u)
1594:.\Generated_Source\PSoC4/CYBLE_eventHandler.c ****                 {
1595:.\Generated_Source\PSoC4/CYBLE_eventHandler.c ****                    (void)CyBle_StopTimer();
1596:.\Generated_Source\PSoC4/CYBLE_eventHandler.c ****                 }
1597:.\Generated_Source\PSoC4/CYBLE_eventHandler.c ****             #endif /* CYBLE_GAP_ROLE_CENTRAL */
1598:.\Generated_Source\PSoC4/CYBLE_eventHandler.c ****             CyBle_SetState(CYBLE_STATE_CONNECTED);
 804              		.loc 1 1598 0
 805 01c2 644B     		ldr	r3, .L58+32
 806 01c4 0222     		mov	r2, #2
 807 01c6 1A70     		strb	r2, [r3]
1599:.\Generated_Source\PSoC4/CYBLE_eventHandler.c ****             break;
 808              		.loc 1 1599 0
 809 01c8 9AE0     		b	.L46
 810              	.L32:
1600:.\Generated_Source\PSoC4/CYBLE_eventHandler.c **** 
1601:.\Generated_Source\PSoC4/CYBLE_eventHandler.c ****         case CYBLE_EVT_GAP_DEVICE_DISCONNECTED:
1602:.\Generated_Source\PSoC4/CYBLE_eventHandler.c ****             CyBle_SetState(CYBLE_STATE_DISCONNECTED);
 811              		.loc 1 1602 0
 812 01ca 624B     		ldr	r3, .L58+32
 813 01cc 0422     		mov	r2, #4
 814 01ce 1A70     		strb	r2, [r3]
1603:.\Generated_Source\PSoC4/CYBLE_eventHandler.c ****             break;
 815              		.loc 1 1603 0
 816 01d0 96E0     		b	.L46
 817              	.L30:
1604:.\Generated_Source\PSoC4/CYBLE_eventHandler.c ****         #if(CYBLE_GAP_ROLE_PERIPHERAL || CYBLE_GAP_ROLE_BROADCASTER)
1605:.\Generated_Source\PSoC4/CYBLE_eventHandler.c ****             
1606:.\Generated_Source\PSoC4/CYBLE_eventHandler.c ****         case CYBLE_EVT_GAPP_ADVERTISEMENT_START_STOP:
1607:.\Generated_Source\PSoC4/CYBLE_eventHandler.c ****             #ifdef CYBLE_CPS_SERVER
1608:.\Generated_Source\PSoC4/CYBLE_eventHandler.c ****                 #if(CYBLE_GAP_ROLE_BROADCASTER)
1609:.\Generated_Source\PSoC4/CYBLE_eventHandler.c ****                     CyBle_CpssAdvertisementStartStopEventHandler();
1610:.\Generated_Source\PSoC4/CYBLE_eventHandler.c ****                 #endif /* CYBLE_GAP_ROLE_BROADCASTER */
1611:.\Generated_Source\PSoC4/CYBLE_eventHandler.c ****             #endif /* CYBLE_CPS_SERVER */
1612:.\Generated_Source\PSoC4/CYBLE_eventHandler.c ****             
1613:.\Generated_Source\PSoC4/CYBLE_eventHandler.c ****             if((CYBLE_STATE_CONNECTED != CyBle_GetState()) && ((cyBle_eventHandlerFlag & CYBLE_CALL
 818              		.loc 1 1613 0
 819 01d2 604B     		ldr	r3, .L58+32
 820 01d4 1B78     		ldrb	r3, [r3]
 821 01d6 022B     		cmp	r3, #2
 822 01d8 40D0     		beq	.L51
 823              		.loc 1 1613 0 is_stmt 0 discriminator 1
 824 01da 564B     		ldr	r3, .L58
 825 01dc 1B78     		ldrb	r3, [r3]
 826 01de DBB2     		uxtb	r3, r3
 827 01e0 1A1C     		mov	r2, r3
 828 01e2 0123     		mov	r3, #1
 829 01e4 1340     		and	r3, r2
 830 01e6 39D0     		beq	.L51
1614:.\Generated_Source\PSoC4/CYBLE_eventHandler.c ****             {
1615:.\Generated_Source\PSoC4/CYBLE_eventHandler.c ****                 /* After CyBle_GappStartAdvertisement first event indicates that advertising has be
1616:.\Generated_Source\PSoC4/CYBLE_eventHandler.c ****                 if(0u != (cyBle_eventHandlerFlag & CYBLE_START_FLAG))
ARM GAS  C:\Users\igreg\AppData\Local\Temp\ccnO9ZHN.s 			page 44


 831              		.loc 1 1616 0 is_stmt 1
 832 01e8 524B     		ldr	r3, .L58
 833 01ea 1B78     		ldrb	r3, [r3]
 834 01ec DBB2     		uxtb	r3, r3
 835 01ee 1A1C     		mov	r2, r3
 836 01f0 0423     		mov	r3, #4
 837 01f2 1340     		and	r3, r2
 838 01f4 0BD0     		beq	.L52
1617:.\Generated_Source\PSoC4/CYBLE_eventHandler.c ****                 {
1618:.\Generated_Source\PSoC4/CYBLE_eventHandler.c ****                     CyBle_SetState(CYBLE_STATE_ADVERTISING);
 839              		.loc 1 1618 0
 840 01f6 574B     		ldr	r3, .L58+32
 841 01f8 0322     		mov	r2, #3
 842 01fa 1A70     		strb	r2, [r3]
1619:.\Generated_Source\PSoC4/CYBLE_eventHandler.c ****                     cyBle_eventHandlerFlag &= (uint8)~CYBLE_START_FLAG;
 843              		.loc 1 1619 0
 844 01fc 4D4B     		ldr	r3, .L58
 845 01fe 1B78     		ldrb	r3, [r3]
 846 0200 DBB2     		uxtb	r3, r3
 847 0202 0422     		mov	r2, #4
 848 0204 9343     		bic	r3, r2
 849 0206 DAB2     		uxtb	r2, r3
 850 0208 4A4B     		ldr	r3, .L58
 851 020a 1A70     		strb	r2, [r3]
 852 020c 26E0     		b	.L51
 853              	.L52:
1620:.\Generated_Source\PSoC4/CYBLE_eventHandler.c ****                 }
1621:.\Generated_Source\PSoC4/CYBLE_eventHandler.c ****                 /* When application initiated stop advertisement */
1622:.\Generated_Source\PSoC4/CYBLE_eventHandler.c ****                 else if(0u != (cyBle_eventHandlerFlag & CYBLE_STOP_FLAG))
 854              		.loc 1 1622 0
 855 020e 494B     		ldr	r3, .L58
 856 0210 1B78     		ldrb	r3, [r3]
 857 0212 DBB2     		uxtb	r3, r3
 858 0214 1A1C     		mov	r2, r3
 859 0216 0823     		mov	r3, #8
 860 0218 1340     		and	r3, r2
 861 021a 0BD0     		beq	.L53
1623:.\Generated_Source\PSoC4/CYBLE_eventHandler.c ****                 {
1624:.\Generated_Source\PSoC4/CYBLE_eventHandler.c ****                     CyBle_SetState(CYBLE_STATE_DISCONNECTED);  
 862              		.loc 1 1624 0
 863 021c 4D4B     		ldr	r3, .L58+32
 864 021e 0422     		mov	r2, #4
 865 0220 1A70     		strb	r2, [r3]
1625:.\Generated_Source\PSoC4/CYBLE_eventHandler.c ****                     cyBle_eventHandlerFlag &= (uint8)~CYBLE_STOP_FLAG;
 866              		.loc 1 1625 0
 867 0222 444B     		ldr	r3, .L58
 868 0224 1B78     		ldrb	r3, [r3]
 869 0226 DBB2     		uxtb	r3, r3
 870 0228 0822     		mov	r2, #8
 871 022a 9343     		bic	r3, r2
 872 022c DAB2     		uxtb	r2, r3
 873 022e 414B     		ldr	r3, .L58
 874 0230 1A70     		strb	r2, [r3]
 875 0232 13E0     		b	.L51
 876              	.L53:
1626:.\Generated_Source\PSoC4/CYBLE_eventHandler.c ****                 }
1627:.\Generated_Source\PSoC4/CYBLE_eventHandler.c ****                 else /* Following event indicates that advertising has been stopped */
ARM GAS  C:\Users\igreg\AppData\Local\Temp\ccnO9ZHN.s 			page 45


1628:.\Generated_Source\PSoC4/CYBLE_eventHandler.c ****                 {
1629:.\Generated_Source\PSoC4/CYBLE_eventHandler.c ****                     if(CYBLE_STATE_ADVERTISING == CyBle_GetState())
 877              		.loc 1 1629 0
 878 0234 474B     		ldr	r3, .L58+32
 879 0236 1B78     		ldrb	r3, [r3]
 880 0238 032B     		cmp	r3, #3
 881 023a 0FD1     		bne	.L51
1630:.\Generated_Source\PSoC4/CYBLE_eventHandler.c ****                     {
1631:.\Generated_Source\PSoC4/CYBLE_eventHandler.c ****                         CyBle_SetState(CYBLE_STATE_DISCONNECTED);
 882              		.loc 1 1631 0
 883 023c 454B     		ldr	r3, .L58+32
 884 023e 0422     		mov	r2, #4
 885 0240 1A70     		strb	r2, [r3]
1632:.\Generated_Source\PSoC4/CYBLE_eventHandler.c ****                     #if ((CYBLE_SLOW_ADV_ENABLED != 0u) && (CYBLE_FAST_ADV_TIMEOUT != 0u))
1633:.\Generated_Source\PSoC4/CYBLE_eventHandler.c ****                         if(cyBle_advertisingIntervalType == CYBLE_ADVERTISING_FAST)
 886              		.loc 1 1633 0
 887 0242 4A4B     		ldr	r3, .L58+56
 888 0244 1B78     		ldrb	r3, [r3]
 889 0246 002B     		cmp	r3, #0
 890 0248 08D1     		bne	.L51
1634:.\Generated_Source\PSoC4/CYBLE_eventHandler.c ****                         {
1635:.\Generated_Source\PSoC4/CYBLE_eventHandler.c ****                             /* When fast advertising time out occur: Start slow advertising */
1636:.\Generated_Source\PSoC4/CYBLE_eventHandler.c ****                             if(CYBLE_ERROR_OK == CyBle_GappStartAdvertisement(CYBLE_ADVERTISING_SLO
 891              		.loc 1 1636 0
 892 024a 0120     		mov	r0, #1
 893 024c FFF7FEFF 		bl	CyBle_GappStartAdvertisement
 894 0250 031E     		sub	r3, r0, #0
 895 0252 03D1     		bne	.L51
1637:.\Generated_Source\PSoC4/CYBLE_eventHandler.c ****                             {
1638:.\Generated_Source\PSoC4/CYBLE_eventHandler.c ****                                 CyBle_SetState(CYBLE_STATE_ADVERTISING);
 896              		.loc 1 1638 0
 897 0254 3F4B     		ldr	r3, .L58+32
 898 0256 0322     		mov	r2, #3
 899 0258 1A70     		strb	r2, [r3]
1639:.\Generated_Source\PSoC4/CYBLE_eventHandler.c ****                             }
1640:.\Generated_Source\PSoC4/CYBLE_eventHandler.c ****                         }
1641:.\Generated_Source\PSoC4/CYBLE_eventHandler.c ****                     #endif /* CYBLE_SLOW_ADV_ENABLED */
1642:.\Generated_Source\PSoC4/CYBLE_eventHandler.c ****                     }
1643:.\Generated_Source\PSoC4/CYBLE_eventHandler.c ****                 }
1644:.\Generated_Source\PSoC4/CYBLE_eventHandler.c ****             }
1645:.\Generated_Source\PSoC4/CYBLE_eventHandler.c ****             break;
 900              		.loc 1 1645 0
 901 025a 51E0     		b	.L46
 902              	.L51:
 903 025c 50E0     		b	.L46
 904              	.L43:
1646:.\Generated_Source\PSoC4/CYBLE_eventHandler.c ****         #endif /* CYBLE_GAP_ROLE_PERIPHERAL || CYBLE_GAP_ROLE_BROADCASTER */
1647:.\Generated_Source\PSoC4/CYBLE_eventHandler.c ****         
1648:.\Generated_Source\PSoC4/CYBLE_eventHandler.c ****         #if(CYBLE_GAP_ROLE_CENTRAL || CYBLE_GAP_ROLE_OBSERVER)    
1649:.\Generated_Source\PSoC4/CYBLE_eventHandler.c ****         case CYBLE_EVT_GAPC_SCAN_START_STOP:
1650:.\Generated_Source\PSoC4/CYBLE_eventHandler.c ****             #ifdef CYBLE_CPS_CLIENT
1651:.\Generated_Source\PSoC4/CYBLE_eventHandler.c ****                 CyBle_CpscScanStartStopEventHandler();
1652:.\Generated_Source\PSoC4/CYBLE_eventHandler.c ****             #endif /* CYBLE_CPS_CLIENT */
1653:.\Generated_Source\PSoC4/CYBLE_eventHandler.c ****             
1654:.\Generated_Source\PSoC4/CYBLE_eventHandler.c ****             if((CYBLE_STATE_CONNECTED != CyBle_GetState()) && ((cyBle_eventHandlerFlag & CYBLE_CALL
1655:.\Generated_Source\PSoC4/CYBLE_eventHandler.c ****             {
1656:.\Generated_Source\PSoC4/CYBLE_eventHandler.c ****                 /* After CyBle_GapcStartScan first event indicates that scanning has been started *
ARM GAS  C:\Users\igreg\AppData\Local\Temp\ccnO9ZHN.s 			page 46


1657:.\Generated_Source\PSoC4/CYBLE_eventHandler.c ****                 if(0u != (cyBle_eventHandlerFlag & CYBLE_START_FLAG))
1658:.\Generated_Source\PSoC4/CYBLE_eventHandler.c ****                 {
1659:.\Generated_Source\PSoC4/CYBLE_eventHandler.c ****                     CyBle_SetState(CYBLE_STATE_SCANNING);
1660:.\Generated_Source\PSoC4/CYBLE_eventHandler.c ****                     cyBle_eventHandlerFlag &= (uint8)~CYBLE_START_FLAG;
1661:.\Generated_Source\PSoC4/CYBLE_eventHandler.c ****                 }
1662:.\Generated_Source\PSoC4/CYBLE_eventHandler.c ****                 /* When application initiated stop scanning */
1663:.\Generated_Source\PSoC4/CYBLE_eventHandler.c ****                 else if(0u != (cyBle_eventHandlerFlag & CYBLE_STOP_FLAG))
1664:.\Generated_Source\PSoC4/CYBLE_eventHandler.c ****                 {
1665:.\Generated_Source\PSoC4/CYBLE_eventHandler.c ****                     CyBle_SetState(CYBLE_STATE_DISCONNECTED);  
1666:.\Generated_Source\PSoC4/CYBLE_eventHandler.c ****                     cyBle_eventHandlerFlag &= (uint8)~CYBLE_STOP_FLAG;
1667:.\Generated_Source\PSoC4/CYBLE_eventHandler.c ****                 }
1668:.\Generated_Source\PSoC4/CYBLE_eventHandler.c ****                 else /* Following event indicates that scanning has been stopped by stack */
1669:.\Generated_Source\PSoC4/CYBLE_eventHandler.c ****                 {
1670:.\Generated_Source\PSoC4/CYBLE_eventHandler.c ****                     if(CYBLE_STATE_SCANNING == CyBle_GetState())
1671:.\Generated_Source\PSoC4/CYBLE_eventHandler.c ****                     {
1672:.\Generated_Source\PSoC4/CYBLE_eventHandler.c ****                         CyBle_SetState(CYBLE_STATE_DISCONNECTED);  
1673:.\Generated_Source\PSoC4/CYBLE_eventHandler.c ****                     #if ((CYBLE_SLOW_SCAN_ENABLED != 0u) && (CYBLE_FAST_SCAN_TIMEOUT != 0u))
1674:.\Generated_Source\PSoC4/CYBLE_eventHandler.c ****                         if(cyBle_scanningIntervalType == CYBLE_SCANNING_FAST)
1675:.\Generated_Source\PSoC4/CYBLE_eventHandler.c ****                         {
1676:.\Generated_Source\PSoC4/CYBLE_eventHandler.c ****                             /* When fast scanning time out occur: Start slow scanning */
1677:.\Generated_Source\PSoC4/CYBLE_eventHandler.c ****                             if(CYBLE_ERROR_OK == CyBle_GapcStartScan(CYBLE_SCANNING_SLOW))
1678:.\Generated_Source\PSoC4/CYBLE_eventHandler.c ****                             {
1679:.\Generated_Source\PSoC4/CYBLE_eventHandler.c ****                                 CyBle_SetState(CYBLE_STATE_SCANNING);
1680:.\Generated_Source\PSoC4/CYBLE_eventHandler.c ****                             }
1681:.\Generated_Source\PSoC4/CYBLE_eventHandler.c ****                         }
1682:.\Generated_Source\PSoC4/CYBLE_eventHandler.c ****                     #endif /* CYBLE_SLOW_SCAN_ENABLED */
1683:.\Generated_Source\PSoC4/CYBLE_eventHandler.c ****                     }
1684:.\Generated_Source\PSoC4/CYBLE_eventHandler.c ****                 }
1685:.\Generated_Source\PSoC4/CYBLE_eventHandler.c ****             }
1686:.\Generated_Source\PSoC4/CYBLE_eventHandler.c ****             break;
1687:.\Generated_Source\PSoC4/CYBLE_eventHandler.c ****         #endif /* CYBLE_GAP_ROLE_CENTRAL || CYBLE_GAP_ROLE_OBSERVER */
1688:.\Generated_Source\PSoC4/CYBLE_eventHandler.c **** 
1689:.\Generated_Source\PSoC4/CYBLE_eventHandler.c ****         /**********************************************************
1690:.\Generated_Source\PSoC4/CYBLE_eventHandler.c ****         * L2AP events 
1691:.\Generated_Source\PSoC4/CYBLE_eventHandler.c ****         ************************************************************/
1692:.\Generated_Source\PSoC4/CYBLE_eventHandler.c ****         case CYBLE_EVT_L2CAP_CONN_PARAM_UPDATE_RSP:
1693:.\Generated_Source\PSoC4/CYBLE_eventHandler.c ****             CyBle_L2Cap_ConnParamUpdateRspEventHandler(*(uint16 *)eventParam);
 905              		.loc 1 1693 0
 906 025e 3B68     		ldr	r3, [r7]
 907 0260 1B88     		ldrh	r3, [r3]
 908 0262 181C     		mov	r0, r3
 909 0264 FFF7FEFF 		bl	CyBle_L2Cap_ConnParamUpdateRspEventHandler
1694:.\Generated_Source\PSoC4/CYBLE_eventHandler.c ****             break;
 910              		.loc 1 1694 0
 911 0268 4AE0     		b	.L46
 912              	.L34:
1695:.\Generated_Source\PSoC4/CYBLE_eventHandler.c ****         
1696:.\Generated_Source\PSoC4/CYBLE_eventHandler.c ****         /**********************************************************
1697:.\Generated_Source\PSoC4/CYBLE_eventHandler.c ****         * GATT events
1698:.\Generated_Source\PSoC4/CYBLE_eventHandler.c ****         ************************************************************/        
1699:.\Generated_Source\PSoC4/CYBLE_eventHandler.c ****         case CYBLE_EVT_GATT_CONNECT_IND:
1700:.\Generated_Source\PSoC4/CYBLE_eventHandler.c ****             cyBle_connHandle = *(CYBLE_CONN_HANDLE_T *)eventParam;
 913              		.loc 1 1700 0
 914 026a 3F4A     		ldr	r2, .L58+52
 915 026c 3B68     		ldr	r3, [r7]
 916 026e 111C     		mov	r1, r2
 917 0270 1A1C     		mov	r2, r3
ARM GAS  C:\Users\igreg\AppData\Local\Temp\ccnO9ZHN.s 			page 47


 918 0272 0223     		mov	r3, #2
 919 0274 081C     		mov	r0, r1
 920 0276 111C     		mov	r1, r2
 921 0278 1A1C     		mov	r2, r3
 922 027a FFF7FEFF 		bl	memcpy
1701:.\Generated_Source\PSoC4/CYBLE_eventHandler.c ****             cyBle_busyStatus = CYBLE_STACK_STATE_FREE;
 923              		.loc 1 1701 0
 924 027e 364B     		ldr	r3, .L58+36
 925 0280 0022     		mov	r2, #0
 926 0282 1A70     		strb	r2, [r3]
1702:.\Generated_Source\PSoC4/CYBLE_eventHandler.c ****             
1703:.\Generated_Source\PSoC4/CYBLE_eventHandler.c ****         #if((CYBLE_GATT_ROLE_SERVER) && (CYBLE_GATT_DB_CCCD_COUNT != 0u))
1704:.\Generated_Source\PSoC4/CYBLE_eventHandler.c ****             /* Init CCCD values in RAM */
1705:.\Generated_Source\PSoC4/CYBLE_eventHandler.c ****         	(void) memcpy (cyBle_attValuesCCCD, cyBle_flashStorage.attValuesCCCDFlashMemory[cyBle_conn
 927              		.loc 1 1705 0
 928 0284 384B     		ldr	r3, .L58+52
 929 0286 1B78     		ldrb	r3, [r3]
 930 0288 5A33     		add	r3, r3, #90
 931 028a 9A00     		lsl	r2, r3, #2
 932 028c 384B     		ldr	r3, .L58+60
 933 028e D318     		add	r3, r2, r3
 934 0290 0533     		add	r3, r3, #5
 935 0292 384A     		ldr	r2, .L58+64
 936 0294 111C     		mov	r1, r2
 937 0296 1A1C     		mov	r2, r3
 938 0298 0423     		mov	r3, #4
 939 029a 081C     		mov	r0, r1
 940 029c 111C     		mov	r1, r2
 941 029e 1A1C     		mov	r2, r3
 942 02a0 FFF7FEFF 		bl	memcpy
1706:.\Generated_Source\PSoC4/CYBLE_eventHandler.c ****                             CYBLE_GATT_DB_CCCD_COUNT);
1707:.\Generated_Source\PSoC4/CYBLE_eventHandler.c ****         #endif /* CYBLE_GATT_ROLE_SERVER */
1708:.\Generated_Source\PSoC4/CYBLE_eventHandler.c ****         
1709:.\Generated_Source\PSoC4/CYBLE_eventHandler.c ****         #if (CYBLE_GATT_ROLE_CLIENT)
1710:.\Generated_Source\PSoC4/CYBLE_eventHandler.c ****             CyBle_SetClientState(CYBLE_CLIENT_STATE_CONNECTED);
1711:.\Generated_Source\PSoC4/CYBLE_eventHandler.c ****         #endif /* CYBLE_GATT_ROLE_CLIENT */
1712:.\Generated_Source\PSoC4/CYBLE_eventHandler.c ****         
1713:.\Generated_Source\PSoC4/CYBLE_eventHandler.c ****             CyBle_GattConnectReqHandler();
 943              		.loc 1 1713 0
 944 02a4 FFF7FEFF 		bl	CyBle_GattConnectReqHandler
1714:.\Generated_Source\PSoC4/CYBLE_eventHandler.c ****             break;
 945              		.loc 1 1714 0
 946 02a8 2AE0     		b	.L46
 947              	.L35:
1715:.\Generated_Source\PSoC4/CYBLE_eventHandler.c **** 
1716:.\Generated_Source\PSoC4/CYBLE_eventHandler.c ****         case CYBLE_EVT_GATT_DISCONNECT_IND:
1717:.\Generated_Source\PSoC4/CYBLE_eventHandler.c ****             CyBle_GattDisconnectEventHandler();
 948              		.loc 1 1717 0
 949 02aa FFF7FEFF 		bl	CyBle_GattDisconnectEventHandler
1718:.\Generated_Source\PSoC4/CYBLE_eventHandler.c ****             break;
 950              		.loc 1 1718 0
 951 02ae 27E0     		b	.L46
 952              	.L36:
 953              	.LBB8:
1719:.\Generated_Source\PSoC4/CYBLE_eventHandler.c **** 
1720:.\Generated_Source\PSoC4/CYBLE_eventHandler.c ****     #if((CYBLE_GATT_ROLE_SERVER) || (CYBLE_GATT_ROLE_CLIENT))
1721:.\Generated_Source\PSoC4/CYBLE_eventHandler.c ****         case CYBLE_EVT_GATTS_XCNHG_MTU_REQ:
ARM GAS  C:\Users\igreg\AppData\Local\Temp\ccnO9ZHN.s 			page 48


1722:.\Generated_Source\PSoC4/CYBLE_eventHandler.c ****             {
1723:.\Generated_Source\PSoC4/CYBLE_eventHandler.c ****                 uint16 cyBle_mtuSize;
1724:.\Generated_Source\PSoC4/CYBLE_eventHandler.c ****                 if(CYBLE_GATT_MTU > ((CYBLE_GATT_XCHG_MTU_PARAM_T *)eventParam)->mtu)
 954              		.loc 1 1724 0
 955 02b0 3B68     		ldr	r3, [r7]
 956 02b2 5B88     		ldrh	r3, [r3, #2]
 957 02b4 162B     		cmp	r3, #22
 958 02b6 05D8     		bhi	.L54
1725:.\Generated_Source\PSoC4/CYBLE_eventHandler.c ****                 {
1726:.\Generated_Source\PSoC4/CYBLE_eventHandler.c ****                     cyBle_mtuSize = ((CYBLE_GATT_XCHG_MTU_PARAM_T *)eventParam)->mtu;
 959              		.loc 1 1726 0
 960 02b8 1E23     		mov	r3, #30
 961 02ba FB18     		add	r3, r7, r3
 962 02bc 3A68     		ldr	r2, [r7]
 963 02be 5288     		ldrh	r2, [r2, #2]
 964 02c0 1A80     		strh	r2, [r3]
 965 02c2 03E0     		b	.L55
 966              	.L54:
1727:.\Generated_Source\PSoC4/CYBLE_eventHandler.c ****                 }
1728:.\Generated_Source\PSoC4/CYBLE_eventHandler.c ****                 else
1729:.\Generated_Source\PSoC4/CYBLE_eventHandler.c ****                 {
1730:.\Generated_Source\PSoC4/CYBLE_eventHandler.c ****                     cyBle_mtuSize = CYBLE_GATT_MTU;
 967              		.loc 1 1730 0
 968 02c4 1E23     		mov	r3, #30
 969 02c6 FB18     		add	r3, r7, r3
 970 02c8 1722     		mov	r2, #23
 971 02ca 1A80     		strh	r2, [r3]
 972              	.L55:
1731:.\Generated_Source\PSoC4/CYBLE_eventHandler.c ****                 }
1732:.\Generated_Source\PSoC4/CYBLE_eventHandler.c ****                 (void)CyBle_GattsExchangeMtuRsp(((CYBLE_GATT_XCHG_MTU_PARAM_T *)eventParam)->connHa
 973              		.loc 1 1732 0
 974 02cc 3B68     		ldr	r3, [r7]
 975 02ce 1E22     		mov	r2, #30
 976 02d0 BA18     		add	r2, r7, r2
 977 02d2 1188     		ldrh	r1, [r2]
 978 02d4 1A88     		ldrh	r2, [r3]
 979 02d6 0023     		mov	r3, #0
 980 02d8 1204     		lsl	r2, r2, #16
 981 02da 120C     		lsr	r2, r2, #16
 982 02dc 1B0C     		lsr	r3, r3, #16
 983 02de 1B04     		lsl	r3, r3, #16
 984 02e0 1343     		orr	r3, r2
 985 02e2 181C     		mov	r0, r3
 986 02e4 FFF7FEFF 		bl	CyBle_GattsExchangeMtuRsp
 987              	.LBE8:
1733:.\Generated_Source\PSoC4/CYBLE_eventHandler.c ****             }
1734:.\Generated_Source\PSoC4/CYBLE_eventHandler.c ****             break;
 988              		.loc 1 1734 0
 989 02e8 0AE0     		b	.L46
 990              	.L37:
1735:.\Generated_Source\PSoC4/CYBLE_eventHandler.c ****     #endif /* CYBLE_GATT_ROLE_SERVER || CYBLE_GATT_ROLE_CLIENT */
1736:.\Generated_Source\PSoC4/CYBLE_eventHandler.c ****     
1737:.\Generated_Source\PSoC4/CYBLE_eventHandler.c ****     #if (CYBLE_GATT_ROLE_CLIENT)
1738:.\Generated_Source\PSoC4/CYBLE_eventHandler.c ****         case CYBLE_EVT_GAPC_SCAN_PROGRESS_RESULT:
1739:.\Generated_Source\PSoC4/CYBLE_eventHandler.c ****         #ifdef CYBLE_CPS_CLIENT
1740:.\Generated_Source\PSoC4/CYBLE_eventHandler.c ****             CyBle_CpscScanProcessEventHandler((CYBLE_GAPC_ADV_REPORT_T *)eventParam);
1741:.\Generated_Source\PSoC4/CYBLE_eventHandler.c ****         #endif /* CYBLE_CPS_CLIENT */
ARM GAS  C:\Users\igreg\AppData\Local\Temp\ccnO9ZHN.s 			page 49


1742:.\Generated_Source\PSoC4/CYBLE_eventHandler.c ****             break;
1743:.\Generated_Source\PSoC4/CYBLE_eventHandler.c ****     #endif /* CYBLE_GATT_ROLE_CLIENT */
1744:.\Generated_Source\PSoC4/CYBLE_eventHandler.c **** 
1745:.\Generated_Source\PSoC4/CYBLE_eventHandler.c ****     #if(CYBLE_GATT_ROLE_SERVER)
1746:.\Generated_Source\PSoC4/CYBLE_eventHandler.c ****         case CYBLE_EVT_GATTS_WRITE_REQ:
1747:.\Generated_Source\PSoC4/CYBLE_eventHandler.c ****             CyBle_WriteReqHandler((CYBLE_GATTS_WRITE_REQ_PARAM_T *)eventParam);
 991              		.loc 1 1747 0
 992 02ea 3B68     		ldr	r3, [r7]
 993 02ec 181C     		mov	r0, r3
 994 02ee FFF7FEFF 		bl	CyBle_WriteReqHandler
1748:.\Generated_Source\PSoC4/CYBLE_eventHandler.c ****             break;
 995              		.loc 1 1748 0
 996 02f2 05E0     		b	.L46
 997              	.L41:
1749:.\Generated_Source\PSoC4/CYBLE_eventHandler.c **** 
1750:.\Generated_Source\PSoC4/CYBLE_eventHandler.c ****         case CYBLE_EVT_GATTS_WRITE_CMD_REQ:
1751:.\Generated_Source\PSoC4/CYBLE_eventHandler.c ****         #ifdef CYBLE_IAS_SERVER
1752:.\Generated_Source\PSoC4/CYBLE_eventHandler.c ****             if((cyBle_eventHandlerFlag & CYBLE_CALLBACK) != 0u)
1753:.\Generated_Source\PSoC4/CYBLE_eventHandler.c ****             {
1754:.\Generated_Source\PSoC4/CYBLE_eventHandler.c ****                 (void)CyBle_IassWriteCmdEventHandler((CYBLE_GATTS_WRITE_REQ_PARAM_T *)eventParam);
1755:.\Generated_Source\PSoC4/CYBLE_eventHandler.c ****             }
1756:.\Generated_Source\PSoC4/CYBLE_eventHandler.c ****         #endif /* CYBLE_IAS_SERVER */
1757:.\Generated_Source\PSoC4/CYBLE_eventHandler.c ****         #ifdef CYBLE_HIDS_SERVER
1758:.\Generated_Source\PSoC4/CYBLE_eventHandler.c ****             if((cyBle_eventHandlerFlag & CYBLE_CALLBACK) != 0u)
1759:.\Generated_Source\PSoC4/CYBLE_eventHandler.c ****             {
1760:.\Generated_Source\PSoC4/CYBLE_eventHandler.c ****                 (void)CyBle_HidssWriteEventHandler((CYBLE_GATTS_WRITE_REQ_PARAM_T *)eventParam);
1761:.\Generated_Source\PSoC4/CYBLE_eventHandler.c ****             }
1762:.\Generated_Source\PSoC4/CYBLE_eventHandler.c ****         #endif /* CYBLE_HIDS_SERVER */
1763:.\Generated_Source\PSoC4/CYBLE_eventHandler.c ****         #ifdef CYBLE_PASS_SERVER
1764:.\Generated_Source\PSoC4/CYBLE_eventHandler.c ****             if((cyBle_eventHandlerFlag & CYBLE_CALLBACK) != 0u)
1765:.\Generated_Source\PSoC4/CYBLE_eventHandler.c ****             {
1766:.\Generated_Source\PSoC4/CYBLE_eventHandler.c ****                 (void)CyBle_PasssWriteCmdEventHandler((CYBLE_GATTS_WRITE_REQ_PARAM_T *)eventParam);
1767:.\Generated_Source\PSoC4/CYBLE_eventHandler.c ****             }
1768:.\Generated_Source\PSoC4/CYBLE_eventHandler.c ****         #endif /* CYBLE_PASS_SERVER */
1769:.\Generated_Source\PSoC4/CYBLE_eventHandler.c ****         #ifdef CYBLE_RTUS_SERVER
1770:.\Generated_Source\PSoC4/CYBLE_eventHandler.c ****             if((cyBle_eventHandlerFlag & CYBLE_CALLBACK) != 0u)
1771:.\Generated_Source\PSoC4/CYBLE_eventHandler.c ****             {
1772:.\Generated_Source\PSoC4/CYBLE_eventHandler.c ****                 (void)CyBle_RtussWriteCmdEventHandler((CYBLE_GATTS_WRITE_REQ_PARAM_T *)eventParam);
1773:.\Generated_Source\PSoC4/CYBLE_eventHandler.c ****             }
1774:.\Generated_Source\PSoC4/CYBLE_eventHandler.c ****         #endif /* CYBLE_RTUS_SERVER */
1775:.\Generated_Source\PSoC4/CYBLE_eventHandler.c ****         #ifdef CYBLE_SCPS_SERVER
1776:.\Generated_Source\PSoC4/CYBLE_eventHandler.c ****             if((cyBle_eventHandlerFlag & CYBLE_CALLBACK) != 0u)
1777:.\Generated_Source\PSoC4/CYBLE_eventHandler.c ****             {
1778:.\Generated_Source\PSoC4/CYBLE_eventHandler.c ****                 (void)CyBle_ScpssWriteEventHandler((CYBLE_GATTS_WRITE_REQ_PARAM_T *)eventParam);
1779:.\Generated_Source\PSoC4/CYBLE_eventHandler.c ****             }
1780:.\Generated_Source\PSoC4/CYBLE_eventHandler.c ****         #endif /* CYBLE_SCPS_SERVER */
1781:.\Generated_Source\PSoC4/CYBLE_eventHandler.c ****             break;
1782:.\Generated_Source\PSoC4/CYBLE_eventHandler.c ****         
1783:.\Generated_Source\PSoC4/CYBLE_eventHandler.c ****         case CYBLE_EVT_GATTS_PREP_WRITE_REQ:
1784:.\Generated_Source\PSoC4/CYBLE_eventHandler.c ****         #ifdef CYBLE_BMS_SERVER
1785:.\Generated_Source\PSoC4/CYBLE_eventHandler.c ****             CyBle_BmssPrepareWriteRequestEventHandler((CYBLE_GATTS_PREP_WRITE_REQ_PARAM_T *)eventPa
1786:.\Generated_Source\PSoC4/CYBLE_eventHandler.c ****         #endif /* CYBLE_BMS_SERVER */
1787:.\Generated_Source\PSoC4/CYBLE_eventHandler.c ****         #ifdef CYBLE_BTS_SERVER
1788:.\Generated_Source\PSoC4/CYBLE_eventHandler.c ****             if((cyBle_eventHandlerFlag & CYBLE_CALLBACK) != 0u)
1789:.\Generated_Source\PSoC4/CYBLE_eventHandler.c ****             {
1790:.\Generated_Source\PSoC4/CYBLE_eventHandler.c ****                 CyBle_BtssPrepareWriteRequestEventHandler((CYBLE_GATTS_PREP_WRITE_REQ_PARAM_T *)eve
1791:.\Generated_Source\PSoC4/CYBLE_eventHandler.c ****             }
ARM GAS  C:\Users\igreg\AppData\Local\Temp\ccnO9ZHN.s 			page 50


1792:.\Generated_Source\PSoC4/CYBLE_eventHandler.c ****         #endif /* CYBLE_BTS_SERVER */
1793:.\Generated_Source\PSoC4/CYBLE_eventHandler.c ****         #ifdef CYBLE_ESS_SERVER
1794:.\Generated_Source\PSoC4/CYBLE_eventHandler.c ****             if((cyBle_eventHandlerFlag & CYBLE_CALLBACK) != 0u)
1795:.\Generated_Source\PSoC4/CYBLE_eventHandler.c ****             {
1796:.\Generated_Source\PSoC4/CYBLE_eventHandler.c ****                 CyBle_EsssPrepareWriteRequestEventHandler((CYBLE_GATTS_PREP_WRITE_REQ_PARAM_T *)eve
1797:.\Generated_Source\PSoC4/CYBLE_eventHandler.c ****             }
1798:.\Generated_Source\PSoC4/CYBLE_eventHandler.c ****         #endif /* CYBLE_ESS_SERVER */
1799:.\Generated_Source\PSoC4/CYBLE_eventHandler.c ****         #ifdef CYBLE_HPS_SERVER
1800:.\Generated_Source\PSoC4/CYBLE_eventHandler.c ****             if((cyBle_eventHandlerFlag & CYBLE_CALLBACK) != 0u)
1801:.\Generated_Source\PSoC4/CYBLE_eventHandler.c ****             {
1802:.\Generated_Source\PSoC4/CYBLE_eventHandler.c ****                 CyBle_HpssPrepareWriteRequestEventHandler((CYBLE_GATTS_PREP_WRITE_REQ_PARAM_T *)eve
1803:.\Generated_Source\PSoC4/CYBLE_eventHandler.c ****             }
1804:.\Generated_Source\PSoC4/CYBLE_eventHandler.c ****         #endif /* CYBLE_HPS_SERVER */
1805:.\Generated_Source\PSoC4/CYBLE_eventHandler.c **** 		#ifdef CYBLE_UDS_SERVER
1806:.\Generated_Source\PSoC4/CYBLE_eventHandler.c ****             if((cyBle_eventHandlerFlag & CYBLE_CALLBACK) != 0u)
1807:.\Generated_Source\PSoC4/CYBLE_eventHandler.c ****             {
1808:.\Generated_Source\PSoC4/CYBLE_eventHandler.c ****                 CyBle_UdssPrepareWriteRequestEventHandler((CYBLE_GATTS_PREP_WRITE_REQ_PARAM_T *)eve
1809:.\Generated_Source\PSoC4/CYBLE_eventHandler.c ****             }
1810:.\Generated_Source\PSoC4/CYBLE_eventHandler.c ****         #endif /* CYBLE_UDS_SERVER */
1811:.\Generated_Source\PSoC4/CYBLE_eventHandler.c ****             break;
1812:.\Generated_Source\PSoC4/CYBLE_eventHandler.c **** 
1813:.\Generated_Source\PSoC4/CYBLE_eventHandler.c ****         case CYBLE_EVT_GATTS_EXEC_WRITE_REQ:
1814:.\Generated_Source\PSoC4/CYBLE_eventHandler.c ****         #ifdef CYBLE_BMS_SERVER
1815:.\Generated_Source\PSoC4/CYBLE_eventHandler.c ****             CyBle_BmssExecuteWriteRequestEventHandler((CYBLE_GATTS_EXEC_WRITE_REQ_T *)eventParam);
1816:.\Generated_Source\PSoC4/CYBLE_eventHandler.c ****         #endif /* CYBLE_BMS_SERVER */
1817:.\Generated_Source\PSoC4/CYBLE_eventHandler.c ****         #ifdef CYBLE_BTS_SERVER
1818:.\Generated_Source\PSoC4/CYBLE_eventHandler.c ****             CyBle_BtssExecuteWriteRequestEventHandler((CYBLE_GATTS_EXEC_WRITE_REQ_T *)eventParam);
1819:.\Generated_Source\PSoC4/CYBLE_eventHandler.c ****         #endif /* CYBLE_BTS_SERVER */
1820:.\Generated_Source\PSoC4/CYBLE_eventHandler.c ****         #ifdef CYBLE_ESS_SERVER
1821:.\Generated_Source\PSoC4/CYBLE_eventHandler.c ****             CyBle_EsssExecuteWriteRequestEventHandler((CYBLE_GATTS_EXEC_WRITE_REQ_T *)eventParam);
1822:.\Generated_Source\PSoC4/CYBLE_eventHandler.c ****         #endif /* CYBLE_ESS_SERVER */
1823:.\Generated_Source\PSoC4/CYBLE_eventHandler.c ****         #ifdef CYBLE_HPS_SERVER
1824:.\Generated_Source\PSoC4/CYBLE_eventHandler.c ****             CyBle_HpssExecuteWriteRequestEventHandler((CYBLE_GATTS_EXEC_WRITE_REQ_T *)eventParam);
1825:.\Generated_Source\PSoC4/CYBLE_eventHandler.c ****         #endif /* CYBLE_HPS_SERVER */
1826:.\Generated_Source\PSoC4/CYBLE_eventHandler.c **** 		#ifdef CYBLE_UDS_SERVER
1827:.\Generated_Source\PSoC4/CYBLE_eventHandler.c ****             CyBle_UdssExecuteWriteRequestEventHandler((CYBLE_GATTS_EXEC_WRITE_REQ_T *)eventParam);
1828:.\Generated_Source\PSoC4/CYBLE_eventHandler.c ****         #endif /* CYBLE_UDS_SERVER */
1829:.\Generated_Source\PSoC4/CYBLE_eventHandler.c ****             break;
1830:.\Generated_Source\PSoC4/CYBLE_eventHandler.c ****         
1831:.\Generated_Source\PSoC4/CYBLE_eventHandler.c ****         case CYBLE_EVT_GATTS_HANDLE_VALUE_CNF:
1832:.\Generated_Source\PSoC4/CYBLE_eventHandler.c ****             CyBle_ValueConfirmation((CYBLE_CONN_HANDLE_T *)eventParam);
 998              		.loc 1 1832 0
 999 02f4 3B68     		ldr	r3, [r7]
 1000 02f6 181C     		mov	r0, r3
 1001 02f8 FFF7FEFF 		bl	CyBle_ValueConfirmation
1833:.\Generated_Source\PSoC4/CYBLE_eventHandler.c ****             break;
 1002              		.loc 1 1833 0
 1003 02fc 00E0     		b	.L46
 1004              	.L57:
1834:.\Generated_Source\PSoC4/CYBLE_eventHandler.c ****             
1835:.\Generated_Source\PSoC4/CYBLE_eventHandler.c ****         case CYBLE_EVT_GATTS_READ_CHAR_VAL_ACCESS_REQ:
1836:.\Generated_Source\PSoC4/CYBLE_eventHandler.c ****         #ifdef CYBLE_UDS_SERVER
1837:.\Generated_Source\PSoC4/CYBLE_eventHandler.c ****             CyBle_UdssReadRequestEventHandler((CYBLE_GATTS_CHAR_VAL_READ_REQ_T *)eventParam);
1838:.\Generated_Source\PSoC4/CYBLE_eventHandler.c ****         #endif /* CYBLE_UDS_SERVER */
1839:.\Generated_Source\PSoC4/CYBLE_eventHandler.c ****             break;
1840:.\Generated_Source\PSoC4/CYBLE_eventHandler.c ****             
1841:.\Generated_Source\PSoC4/CYBLE_eventHandler.c ****     #endif /* CYBLE_GATT_ROLE_SERVER */
ARM GAS  C:\Users\igreg\AppData\Local\Temp\ccnO9ZHN.s 			page 51


1842:.\Generated_Source\PSoC4/CYBLE_eventHandler.c **** 
1843:.\Generated_Source\PSoC4/CYBLE_eventHandler.c ****     #if (CYBLE_GATT_ROLE_CLIENT)
1844:.\Generated_Source\PSoC4/CYBLE_eventHandler.c ****         
1845:.\Generated_Source\PSoC4/CYBLE_eventHandler.c ****         case CYBLE_EVT_GATTC_READ_BY_GROUP_TYPE_RSP:
1846:.\Generated_Source\PSoC4/CYBLE_eventHandler.c ****             CyBle_ReadByGroupEventHandler((CYBLE_GATTC_READ_BY_GRP_RSP_PARAM_T *)eventParam);
1847:.\Generated_Source\PSoC4/CYBLE_eventHandler.c ****             break;
1848:.\Generated_Source\PSoC4/CYBLE_eventHandler.c **** 
1849:.\Generated_Source\PSoC4/CYBLE_eventHandler.c ****         case CYBLE_EVT_GATTC_READ_BY_TYPE_RSP:
1850:.\Generated_Source\PSoC4/CYBLE_eventHandler.c ****             CyBle_ReadByTypeEventHandler((CYBLE_GATTC_READ_BY_TYPE_RSP_PARAM_T *)eventParam);
1851:.\Generated_Source\PSoC4/CYBLE_eventHandler.c ****             break;
1852:.\Generated_Source\PSoC4/CYBLE_eventHandler.c **** 
1853:.\Generated_Source\PSoC4/CYBLE_eventHandler.c ****         case CYBLE_EVT_GATTC_READ_BLOB_RSP:
1854:.\Generated_Source\PSoC4/CYBLE_eventHandler.c ****         #ifdef CYBLE_ESS_CLIENT
1855:.\Generated_Source\PSoC4/CYBLE_eventHandler.c ****             CyBle_EsscReadLongRespEventHandler((CYBLE_GATTC_READ_RSP_PARAM_T *)eventParam);
1856:.\Generated_Source\PSoC4/CYBLE_eventHandler.c ****         #endif /* CYBLE_ESS_CLIENT */
1857:.\Generated_Source\PSoC4/CYBLE_eventHandler.c ****         #ifdef CYBLE_HPS_CLIENT
1858:.\Generated_Source\PSoC4/CYBLE_eventHandler.c ****             CyBle_HpscReadLongRespEventHandler((CYBLE_GATTC_READ_RSP_PARAM_T *)eventParam);
1859:.\Generated_Source\PSoC4/CYBLE_eventHandler.c ****         #endif /* CYBLE_HPS_CLIENT */
1860:.\Generated_Source\PSoC4/CYBLE_eventHandler.c ****         #ifdef CYBLE_UDS_CLIENT
1861:.\Generated_Source\PSoC4/CYBLE_eventHandler.c ****             if((cyBle_eventHandlerFlag & CYBLE_CALLBACK) != 0u)
1862:.\Generated_Source\PSoC4/CYBLE_eventHandler.c ****             {
1863:.\Generated_Source\PSoC4/CYBLE_eventHandler.c ****                 CyBle_UdscReadLongRespEventHandler((CYBLE_GATTC_READ_RSP_PARAM_T *)eventParam);
1864:.\Generated_Source\PSoC4/CYBLE_eventHandler.c ****             }
1865:.\Generated_Source\PSoC4/CYBLE_eventHandler.c ****         #endif /* CYBLE_UDS_CLIENT */
1866:.\Generated_Source\PSoC4/CYBLE_eventHandler.c ****             break;
1867:.\Generated_Source\PSoC4/CYBLE_eventHandler.c ****         
1868:.\Generated_Source\PSoC4/CYBLE_eventHandler.c ****         case CYBLE_EVT_GATTC_LONG_PROCEDURE_END:
1869:.\Generated_Source\PSoC4/CYBLE_eventHandler.c ****             if((cyBle_eventHandlerFlag & CYBLE_AUTO_DISCOVERY) != 0u)
1870:.\Generated_Source\PSoC4/CYBLE_eventHandler.c ****             {   /* Do not propagate this event to application level during automatic discovery proc
1871:.\Generated_Source\PSoC4/CYBLE_eventHandler.c ****                 cyBle_eventHandlerFlag &= (uint8)~CYBLE_CALLBACK;
1872:.\Generated_Source\PSoC4/CYBLE_eventHandler.c ****             }
1873:.\Generated_Source\PSoC4/CYBLE_eventHandler.c ****             break;
1874:.\Generated_Source\PSoC4/CYBLE_eventHandler.c ****         
1875:.\Generated_Source\PSoC4/CYBLE_eventHandler.c ****         case CYBLE_EVT_GATTC_FIND_INFO_RSP:
1876:.\Generated_Source\PSoC4/CYBLE_eventHandler.c ****             CyBle_FindInfoEventHandler((CYBLE_GATTC_FIND_INFO_RSP_PARAM_T *)eventParam);
1877:.\Generated_Source\PSoC4/CYBLE_eventHandler.c ****             break;
1878:.\Generated_Source\PSoC4/CYBLE_eventHandler.c **** 
1879:.\Generated_Source\PSoC4/CYBLE_eventHandler.c ****         case CYBLE_EVT_GATTC_ERROR_RSP:
1880:.\Generated_Source\PSoC4/CYBLE_eventHandler.c ****             CyBle_ErrorResponseEventHandler((CYBLE_GATTC_ERR_RSP_PARAM_T *)eventParam);
1881:.\Generated_Source\PSoC4/CYBLE_eventHandler.c ****             break;
1882:.\Generated_Source\PSoC4/CYBLE_eventHandler.c **** 
1883:.\Generated_Source\PSoC4/CYBLE_eventHandler.c ****         case CYBLE_EVT_GATTC_HANDLE_VALUE_NTF:
1884:.\Generated_Source\PSoC4/CYBLE_eventHandler.c ****             CyBle_NotificationEventHandler((CYBLE_GATTC_HANDLE_VALUE_NTF_PARAM_T *)eventParam);
1885:.\Generated_Source\PSoC4/CYBLE_eventHandler.c ****             break;
1886:.\Generated_Source\PSoC4/CYBLE_eventHandler.c **** 
1887:.\Generated_Source\PSoC4/CYBLE_eventHandler.c ****         case CYBLE_EVT_GATTC_HANDLE_VALUE_IND:
1888:.\Generated_Source\PSoC4/CYBLE_eventHandler.c ****             CyBle_GattcIndicationEventHandler((CYBLE_GATTC_HANDLE_VALUE_IND_PARAM_T *)eventParam);
1889:.\Generated_Source\PSoC4/CYBLE_eventHandler.c ****             CyBle_IndicationEventHandler((CYBLE_GATTC_HANDLE_VALUE_IND_PARAM_T *)eventParam);
1890:.\Generated_Source\PSoC4/CYBLE_eventHandler.c ****         
1891:.\Generated_Source\PSoC4/CYBLE_eventHandler.c ****             /* Respond with a Handle Value Confirmation when request handled */
1892:.\Generated_Source\PSoC4/CYBLE_eventHandler.c ****             if((cyBle_eventHandlerFlag & CYBLE_CALLBACK) == 0u)
1893:.\Generated_Source\PSoC4/CYBLE_eventHandler.c ****             {
1894:.\Generated_Source\PSoC4/CYBLE_eventHandler.c ****                 (void)CyBle_GattcConfirmation(((CYBLE_GATTC_HANDLE_VALUE_IND_PARAM_T *)eventParam)-
1895:.\Generated_Source\PSoC4/CYBLE_eventHandler.c ****             }
1896:.\Generated_Source\PSoC4/CYBLE_eventHandler.c ****             break;
1897:.\Generated_Source\PSoC4/CYBLE_eventHandler.c ****         
1898:.\Generated_Source\PSoC4/CYBLE_eventHandler.c ****         case CYBLE_EVT_GATTC_READ_RSP:
ARM GAS  C:\Users\igreg\AppData\Local\Temp\ccnO9ZHN.s 			page 52


1899:.\Generated_Source\PSoC4/CYBLE_eventHandler.c ****             CyBle_ReadResponseEventHandler((CYBLE_GATTC_READ_RSP_PARAM_T *)eventParam);
1900:.\Generated_Source\PSoC4/CYBLE_eventHandler.c ****             break;
1901:.\Generated_Source\PSoC4/CYBLE_eventHandler.c **** 
1902:.\Generated_Source\PSoC4/CYBLE_eventHandler.c ****         case CYBLE_EVT_GATTC_WRITE_RSP:
1903:.\Generated_Source\PSoC4/CYBLE_eventHandler.c ****             CyBle_GattcWriteResponseEventHandler((CYBLE_CONN_HANDLE_T *)eventParam);
1904:.\Generated_Source\PSoC4/CYBLE_eventHandler.c ****             break;
1905:.\Generated_Source\PSoC4/CYBLE_eventHandler.c ****             
1906:.\Generated_Source\PSoC4/CYBLE_eventHandler.c ****         case CYBLE_EVT_GATTC_EXEC_WRITE_RSP:
1907:.\Generated_Source\PSoC4/CYBLE_eventHandler.c ****         #ifdef CYBLE_BMS_CLIENT
1908:.\Generated_Source\PSoC4/CYBLE_eventHandler.c ****             CyBle_BmscExecuteWriteResponseEventHandler((CYBLE_GATTC_EXEC_WRITE_RSP_T *)eventParam);
1909:.\Generated_Source\PSoC4/CYBLE_eventHandler.c ****         #endif /* CYBLE_BMS_CLIENT */
1910:.\Generated_Source\PSoC4/CYBLE_eventHandler.c ****         #ifdef CYBLE_ESS_CLIENT
1911:.\Generated_Source\PSoC4/CYBLE_eventHandler.c ****             if((cyBle_eventHandlerFlag & CYBLE_CALLBACK) != 0u)
1912:.\Generated_Source\PSoC4/CYBLE_eventHandler.c ****             {
1913:.\Generated_Source\PSoC4/CYBLE_eventHandler.c ****                 CyBle_EsscExecuteWriteResponseEventHandler((CYBLE_GATTC_EXEC_WRITE_RSP_T *)eventPar
1914:.\Generated_Source\PSoC4/CYBLE_eventHandler.c ****             }
1915:.\Generated_Source\PSoC4/CYBLE_eventHandler.c ****         #endif /* CYBLE_ESS_CLIENT */
1916:.\Generated_Source\PSoC4/CYBLE_eventHandler.c ****         #ifdef CYBLE_HPS_CLIENT
1917:.\Generated_Source\PSoC4/CYBLE_eventHandler.c ****             if((cyBle_eventHandlerFlag & CYBLE_CALLBACK) != 0u)
1918:.\Generated_Source\PSoC4/CYBLE_eventHandler.c ****             {
1919:.\Generated_Source\PSoC4/CYBLE_eventHandler.c ****                 CyBle_HpscExecuteWriteResponseEventHandler((CYBLE_GATTC_EXEC_WRITE_RSP_T *)eventPar
1920:.\Generated_Source\PSoC4/CYBLE_eventHandler.c ****             }
1921:.\Generated_Source\PSoC4/CYBLE_eventHandler.c ****         #endif /* CYBLE_HPS_CLIENT */
1922:.\Generated_Source\PSoC4/CYBLE_eventHandler.c ****         #ifdef CYBLE_UDS_CLIENT
1923:.\Generated_Source\PSoC4/CYBLE_eventHandler.c ****             if((cyBle_eventHandlerFlag & CYBLE_CALLBACK) != 0u)
1924:.\Generated_Source\PSoC4/CYBLE_eventHandler.c ****             {
1925:.\Generated_Source\PSoC4/CYBLE_eventHandler.c ****                 CyBle_UdscExecuteWriteResponseEventHandler((CYBLE_GATTC_EXEC_WRITE_RSP_T *)eventPar
1926:.\Generated_Source\PSoC4/CYBLE_eventHandler.c ****             }
1927:.\Generated_Source\PSoC4/CYBLE_eventHandler.c ****         #endif /* CYBLE_UDS_CLIENT */
1928:.\Generated_Source\PSoC4/CYBLE_eventHandler.c ****             break;
1929:.\Generated_Source\PSoC4/CYBLE_eventHandler.c ****             
1930:.\Generated_Source\PSoC4/CYBLE_eventHandler.c ****     #endif /* CYBLE_GATT_ROLE_CLIENT */
1931:.\Generated_Source\PSoC4/CYBLE_eventHandler.c **** 
1932:.\Generated_Source\PSoC4/CYBLE_eventHandler.c ****     #if((CYBLE_GAP_ROLE_PERIPHERAL || CYBLE_GAP_ROLE_CENTRAL) && (CYBLE_BONDING_REQUIREMENT == CYBL
1933:.\Generated_Source\PSoC4/CYBLE_eventHandler.c **** 
1934:.\Generated_Source\PSoC4/CYBLE_eventHandler.c ****         case CYBLE_EVT_PENDING_FLASH_WRITE:
1935:.\Generated_Source\PSoC4/CYBLE_eventHandler.c ****             cyBle_pendingFlashWrite |= CYBLE_PENDING_STACK_FLASH_WRITE_BIT;
1936:.\Generated_Source\PSoC4/CYBLE_eventHandler.c ****             break;
1937:.\Generated_Source\PSoC4/CYBLE_eventHandler.c ****         
1938:.\Generated_Source\PSoC4/CYBLE_eventHandler.c ****     #endif  /* (CYBLE_BONDING_REQUIREMENT == CYBLE_BONDING_YES) */
1939:.\Generated_Source\PSoC4/CYBLE_eventHandler.c ****     
1940:.\Generated_Source\PSoC4/CYBLE_eventHandler.c ****         default:
1941:.\Generated_Source\PSoC4/CYBLE_eventHandler.c ****             break;
 1005              		.loc 1 1941 0
 1006 02fe C046     		mov	r8, r8
 1007              	.L46:
1942:.\Generated_Source\PSoC4/CYBLE_eventHandler.c ****     }
1943:.\Generated_Source\PSoC4/CYBLE_eventHandler.c **** 
1944:.\Generated_Source\PSoC4/CYBLE_eventHandler.c ****     if(0u != (cyBle_eventHandlerFlag & (CYBLE_CALLBACK | CYBLE_ENABLE_ALL_EVENTS))) 
 1008              		.loc 1 1944 0
 1009 0300 0C4B     		ldr	r3, .L58
 1010 0302 1B78     		ldrb	r3, [r3]
 1011 0304 DBB2     		uxtb	r3, r3
 1012 0306 1A1C     		mov	r2, r3
 1013 0308 1123     		mov	r3, #17
 1014 030a 1340     		and	r3, r2
 1015 030c 0FD0     		beq	.L21
ARM GAS  C:\Users\igreg\AppData\Local\Temp\ccnO9ZHN.s 			page 53


1945:.\Generated_Source\PSoC4/CYBLE_eventHandler.c ****     {
1946:.\Generated_Source\PSoC4/CYBLE_eventHandler.c ****         cyBle_eventHandlerFlag &= (uint8)~CYBLE_CALLBACK;
 1016              		.loc 1 1946 0
 1017 030e 094B     		ldr	r3, .L58
 1018 0310 1B78     		ldrb	r3, [r3]
 1019 0312 DBB2     		uxtb	r3, r3
 1020 0314 0122     		mov	r2, #1
 1021 0316 9343     		bic	r3, r2
 1022 0318 DAB2     		uxtb	r2, r3
 1023 031a 064B     		ldr	r3, .L58
 1024 031c 1A70     		strb	r2, [r3]
1947:.\Generated_Source\PSoC4/CYBLE_eventHandler.c ****         CyBle_ApplCallback((uint32)eventCode, eventParam);
 1025              		.loc 1 1947 0
 1026 031e 164B     		ldr	r3, .L58+68
 1027 0320 1B68     		ldr	r3, [r3]
 1028 0322 FA1D     		add	r2, r7, #7
 1029 0324 1178     		ldrb	r1, [r2]
 1030 0326 3A68     		ldr	r2, [r7]
 1031 0328 081C     		mov	r0, r1
 1032 032a 111C     		mov	r1, r2
 1033 032c 9847     		blx	r3
 1034              	.L21:
1948:.\Generated_Source\PSoC4/CYBLE_eventHandler.c ****     }
1949:.\Generated_Source\PSoC4/CYBLE_eventHandler.c **** }
 1035              		.loc 1 1949 0
 1036 032e BD46     		mov	sp, r7
 1037 0330 08B0     		add	sp, sp, #32
 1038              		@ sp needed
 1039 0332 80BD     		pop	{r7, pc}
 1040              	.L59:
 1041              		.align	2
 1042              	.L58:
 1043 0334 00000000 		.word	cyBle_eventHandlerFlag
 1044 0338 00000000 		.word	.L24
 1045 033c 00000000 		.word	cyBle_sflashDeviceAddress
 1046 0340 7CF1FF0F 		.word	268431740
 1047 0344 7DF1FF0F 		.word	268431741
 1048 0348 7BF1FF0F 		.word	268431739
 1049 034c 78F1FF0F 		.word	268431736
 1050 0350 00000000 		.word	cyBle_deviceAddress
 1051 0354 00000000 		.word	cyBle_state
 1052 0358 00000000 		.word	cyBle_busyStatus
 1053 035c 00000000 		.word	gPrepWriteReqMem.6369
 1054 0360 E00A0000 		.word	cyBle_stackMemoryRam+2784
 1055 0364 00000000 		.word	cyBle_authInfo
 1056 0368 00000000 		.word	cyBle_connHandle
 1057 036c 00000000 		.word	cyBle_advertisingIntervalType
 1058 0370 00000000 		.word	cyBle_flashStorage
 1059 0374 00000000 		.word	cyBle_attValuesCCCD
 1060 0378 00000000 		.word	CyBle_ApplCallback
 1061              		.cfi_endproc
 1062              	.LFE10:
 1063              		.size	CyBle_EventHandler, .-CyBle_EventHandler
 1064              		.bss
 1065              		.align	2
 1066              	gPrepWriteReqMem.6369:
 1067 0000 00000000 		.space	8
ARM GAS  C:\Users\igreg\AppData\Local\Temp\ccnO9ZHN.s 			page 54


 1067      00000000 
 1068              		.text
 1069              	.Letext0:
 1070              		.file 2 ".\\Generated_Source\\PSoC4\\cytypes.h"
 1071              		.file 3 ".\\Generated_Source\\PSoC4\\CYBLE_Stack.h"
 1072              		.file 4 ".\\Generated_Source\\PSoC4\\CYBLE_StackHostMain.h"
 1073              		.file 5 ".\\Generated_Source\\PSoC4\\CYBLE_StackGap.h"
 1074              		.file 6 ".\\Generated_Source\\PSoC4\\CYBLE_StackGatt.h"
 1075              		.file 7 ".\\Generated_Source\\PSoC4\\CYBLE_StackGattServer.h"
 1076              		.file 8 ".\\Generated_Source\\PSoC4\\CYBLE.h"
 1077              		.file 9 ".\\Generated_Source\\PSoC4\\CYBLE_gatt.h"
 1078              		.file 10 ".\\Generated_Source\\PSoC4\\CYBLE_dis.h"
 1079              		.file 11 ".\\Generated_Source\\PSoC4\\CYBLE_hrs.h"
 1080              		.file 12 ".\\Generated_Source\\PSoC4\\CYBLE_eventHandler.h"