ARM GAS  C:\Users\igreg\AppData\Local\Temp\cc7shsH2.s 			page 1


   1              		.cpu cortex-m0
   2              		.fpu softvfp
   3              		.eabi_attribute 20, 1
   4              		.eabi_attribute 21, 1
   5              		.eabi_attribute 23, 3
   6              		.eabi_attribute 24, 1
   7              		.eabi_attribute 25, 1
   8              		.eabi_attribute 26, 1
   9              		.eabi_attribute 30, 6
  10              		.eabi_attribute 34, 0
  11              		.eabi_attribute 18, 4
  12              		.code	16
  13              		.file	"hrss.c"
  14              		.text
  15              	.Ltext0:
  16              		.cfi_sections	.debug_frame
  17              		.global	energyExpended
  18              		.bss
  19              		.align	1
  20              		.type	energyExpended, %object
  21              		.size	energyExpended, 2
  22              	energyExpended:
  23 0000 0000     		.space	2
  24              		.comm	hrsHeartRate,24,4
  25              		.comm	hrssRrIntPtr,1,1
  26              		.comm	hrssRrIntCnt,1,1
  27              		.global	heartRateSimulation
  28              		.type	heartRateSimulation, %object
  29              		.size	heartRateSimulation, 1
  30              	heartRateSimulation:
  31 0002 00       		.space	1
  32 0003 00       		.section	.rodata
  33              		.align	2
  34              	.LC1:
  35 0000 48656172 		.ascii	"Heart Rate Measurement Notification is Enabled \015"
  35      74205261 
  35      7465204D 
  35      65617375 
  35      72656D65 
  36 0030 00       		.ascii	"\000"
  37 0031 000000   		.align	2
  38              	.LC3:
  39 0034 48656172 		.ascii	"Heart Rate Measurement Notification is Disabled \015"
  39      74205261 
  39      7465204D 
  39      65617375 
  39      72656D65 
  40 0065 00       		.ascii	"\000"
  41 0066 0000     		.align	2
  42              	.LC6:
  43 0068 456E6572 		.ascii	"Energy Expended Reset \015\000"
  43      67792045 
  43      7870656E 
  43      64656420 
  43      52657365 
  44              		.align	2
  45              	.LC8:
ARM GAS  C:\Users\igreg\AppData\Local\Temp\cc7shsH2.s 			page 2


  46 0080 556E6B6E 		.ascii	"Unknown HRS event: %lx \015\012\000"
  46      6F776E20 
  46      48525320 
  46      6576656E 
  46      743A2025 
  47              		.section	.text.HeartRateCallBack,"ax",%progbits
  48              		.align	2
  49              		.global	HeartRateCallBack
  50              		.code	16
  51              		.thumb_func
  52              		.type	HeartRateCallBack, %function
  53              	HeartRateCallBack:
  54              	.LFB37:
  55              		.file 1 ".\\hrss.c"
   1:.\hrss.c      **** /*******************************************************************************
   2:.\hrss.c      **** * File Name: hrss.c
   3:.\hrss.c      **** *
   4:.\hrss.c      **** * Version 1.0
   5:.\hrss.c      **** *
   6:.\hrss.c      **** * Description:
   7:.\hrss.c      **** *  This file contains HRS service related code.
   8:.\hrss.c      **** *
   9:.\hrss.c      **** * Hardware Dependency:
  10:.\hrss.c      **** *  CY8CKIT-042 BLE
  11:.\hrss.c      **** *
  12:.\hrss.c      **** ********************************************************************************
  13:.\hrss.c      **** * Copyright 2014, Cypress Semiconductor Corporation.  All rights reserved.
  14:.\hrss.c      **** * You may use this file only in accordance with the license, terms, conditions,
  15:.\hrss.c      **** * disclaimers, and limitations in the end user license agreement accompanying
  16:.\hrss.c      **** * the software package with which this file was provided.
  17:.\hrss.c      **** *******************************************************************************/
  18:.\hrss.c      **** 
  19:.\hrss.c      **** #include "hrss.h"
  20:.\hrss.c      **** 
  21:.\hrss.c      **** uint16 energyExpended = 0u;
  22:.\hrss.c      **** 
  23:.\hrss.c      **** /* Heart Rate Measurement characteristic data structure */
  24:.\hrss.c      **** CYBLE_HRS_HRM_T hrsHeartRate;
  25:.\hrss.c      **** 
  26:.\hrss.c      **** /* Pointer and counter for RR-Interval data */
  27:.\hrss.c      **** uint8 hrssRrIntPtr;
  28:.\hrss.c      **** uint8 hrssRrIntCnt;
  29:.\hrss.c      **** uint8 heartRateSimulation = DISABLED;
  30:.\hrss.c      **** 
  31:.\hrss.c      **** /* Heart Rate Service callback */
  32:.\hrss.c      **** void HeartRateCallBack(uint32 event, void* eventParam)
  33:.\hrss.c      **** {
  56              		.loc 1 33 0
  57              		.cfi_startproc
  58 0000 80B5     		push	{r7, lr}
  59              		.cfi_def_cfa_offset 8
  60              		.cfi_offset 7, -8
  61              		.cfi_offset 14, -4
  62 0002 82B0     		sub	sp, sp, #8
  63              		.cfi_def_cfa_offset 16
  64 0004 00AF     		add	r7, sp, #0
  65              		.cfi_def_cfa_register 7
ARM GAS  C:\Users\igreg\AppData\Local\Temp\cc7shsH2.s 			page 3


  66 0006 7860     		str	r0, [r7, #4]
  67 0008 3960     		str	r1, [r7]
  34:.\hrss.c      ****     if(0u != eventParam)
  35:.\hrss.c      ****     {
  36:.\hrss.c      ****         /* This dummy operation is to avoid warning about unused eventParam */
  37:.\hrss.c      ****     }
  38:.\hrss.c      **** 
  39:.\hrss.c      ****     switch(event)
  68              		.loc 1 39 0
  69 000a 7B68     		ldr	r3, [r7, #4]
  70 000c 9E22     		mov	r2, #158
  71 000e FF32     		add	r2, r2, #255
  72 0010 9342     		cmp	r3, r2
  73 0012 08D0     		beq	.L3
  74 0014 CF22     		mov	r2, #207
  75 0016 5200     		lsl	r2, r2, #1
  76 0018 9342     		cmp	r3, r2
  77 001a 0CD0     		beq	.L4
  78 001c CE22     		mov	r2, #206
  79 001e 5200     		lsl	r2, r2, #1
  80 0020 9342     		cmp	r3, r2
  81 0022 10D0     		beq	.L5
  82 0024 1CE0     		b	.L7
  83              	.L3:
  40:.\hrss.c      ****     {
  41:.\hrss.c      ****         case CYBLE_EVT_HRSS_NOTIFICATION_ENABLED:
  42:.\hrss.c      ****             heartRateSimulation = ENABLED;
  84              		.loc 1 42 0
  85 0026 134B     		ldr	r3, .L8
  86 0028 0122     		mov	r2, #1
  87 002a 1A70     		strb	r2, [r3]
  43:.\hrss.c      ****             printf("Heart Rate Measurement Notification is Enabled \r\n");
  88              		.loc 1 43 0
  89 002c 124B     		ldr	r3, .L8+4
  90 002e 181C     		mov	r0, r3
  91 0030 FFF7FEFF 		bl	puts
  44:.\hrss.c      ****             break;
  92              		.loc 1 44 0
  93 0034 1BE0     		b	.L1
  94              	.L4:
  45:.\hrss.c      **** 
  46:.\hrss.c      ****         case CYBLE_EVT_HRSS_NOTIFICATION_DISABLED:
  47:.\hrss.c      ****             heartRateSimulation = DISABLED;
  95              		.loc 1 47 0
  96 0036 0F4B     		ldr	r3, .L8
  97 0038 0022     		mov	r2, #0
  98 003a 1A70     		strb	r2, [r3]
  48:.\hrss.c      ****             printf("Heart Rate Measurement Notification is Disabled \r\n");
  99              		.loc 1 48 0
 100 003c 0F4B     		ldr	r3, .L8+8
 101 003e 181C     		mov	r0, r3
 102 0040 FFF7FEFF 		bl	puts
  49:.\hrss.c      ****             break;
 103              		.loc 1 49 0
 104 0044 13E0     		b	.L1
 105              	.L5:
  50:.\hrss.c      **** 
ARM GAS  C:\Users\igreg\AppData\Local\Temp\cc7shsH2.s 			page 4


  51:.\hrss.c      ****         /* This event is received when client writes Control Point characteristic value */
  52:.\hrss.c      ****         case CYBLE_EVT_HRSS_ENERGY_EXPENDED_RESET:
  53:.\hrss.c      ****             energyExpended = 0u;
 106              		.loc 1 53 0
 107 0046 0E4B     		ldr	r3, .L8+12
 108 0048 0022     		mov	r2, #0
 109 004a 1A80     		strh	r2, [r3]
  54:.\hrss.c      ****             HrssSetEnergyExpended(energyExpended);
 110              		.loc 1 54 0
 111 004c 0C4B     		ldr	r3, .L8+12
 112 004e 1B88     		ldrh	r3, [r3]
 113 0050 181C     		mov	r0, r3
 114 0052 FFF7FEFF 		bl	HrssSetEnergyExpended
  55:.\hrss.c      ****             printf("Energy Expended Reset \r\n");
 115              		.loc 1 55 0
 116 0056 0B4B     		ldr	r3, .L8+16
 117 0058 181C     		mov	r0, r3
 118 005a FFF7FEFF 		bl	puts
  56:.\hrss.c      ****             break;
 119              		.loc 1 56 0
 120 005e 06E0     		b	.L1
 121              	.L7:
  57:.\hrss.c      **** 
  58:.\hrss.c      ****         default:
  59:.\hrss.c      ****             printf("Unknown HRS event: %lx \r\n", event);
 122              		.loc 1 59 0
 123 0060 094A     		ldr	r2, .L8+20
 124 0062 7B68     		ldr	r3, [r7, #4]
 125 0064 101C     		mov	r0, r2
 126 0066 191C     		mov	r1, r3
 127 0068 FFF7FEFF 		bl	printf
  60:.\hrss.c      ****             break;
 128              		.loc 1 60 0
 129 006c C046     		mov	r8, r8
 130              	.L1:
  61:.\hrss.c      ****     }
  62:.\hrss.c      **** }
 131              		.loc 1 62 0
 132 006e BD46     		mov	sp, r7
 133 0070 02B0     		add	sp, sp, #8
 134              		@ sp needed
 135 0072 80BD     		pop	{r7, pc}
 136              	.L9:
 137              		.align	2
 138              	.L8:
 139 0074 00000000 		.word	heartRateSimulation
 140 0078 00000000 		.word	.LC1
 141 007c 34000000 		.word	.LC3
 142 0080 00000000 		.word	energyExpended
 143 0084 68000000 		.word	.LC6
 144 0088 80000000 		.word	.LC8
 145              		.cfi_endproc
 146              	.LFE37:
 147              		.size	HeartRateCallBack, .-HeartRateCallBack
 148              		.section	.text.HrsInit,"ax",%progbits
 149              		.align	2
 150              		.global	HrsInit
ARM GAS  C:\Users\igreg\AppData\Local\Temp\cc7shsH2.s 			page 5


 151              		.code	16
 152              		.thumb_func
 153              		.type	HrsInit, %function
 154              	HrsInit:
 155              	.LFB38:
  63:.\hrss.c      **** 
  64:.\hrss.c      **** /*******************************************************************************
  65:.\hrss.c      **** * Function Name: HrsInit
  66:.\hrss.c      **** ********************************************************************************
  67:.\hrss.c      **** *
  68:.\hrss.c      **** * Summary:
  69:.\hrss.c      **** *  Initializes the Heart Rate application global variables.
  70:.\hrss.c      **** *
  71:.\hrss.c      **** * Parameters:
  72:.\hrss.c      **** *  None
  73:.\hrss.c      **** *
  74:.\hrss.c      **** * Return:
  75:.\hrss.c      **** *  None.
  76:.\hrss.c      **** *
  77:.\hrss.c      **** *******************************************************************************/
  78:.\hrss.c      **** 
  79:.\hrss.c      **** void HrsInit(void)
  80:.\hrss.c      **** {
 156              		.loc 1 80 0
 157              		.cfi_startproc
 158 0000 80B5     		push	{r7, lr}
 159              		.cfi_def_cfa_offset 8
 160              		.cfi_offset 7, -8
 161              		.cfi_offset 14, -4
 162 0002 82B0     		sub	sp, sp, #8
 163              		.cfi_def_cfa_offset 16
 164 0004 00AF     		add	r7, sp, #0
 165              		.cfi_def_cfa_register 7
  81:.\hrss.c      ****     uint16 i;
  82:.\hrss.c      ****     
  83:.\hrss.c      ****     CyBle_HrsRegisterAttrCallback(HeartRateCallBack);
 166              		.loc 1 83 0
 167 0006 124B     		ldr	r3, .L13
 168 0008 181C     		mov	r0, r3
 169 000a FFF7FEFF 		bl	CyBle_HrsRegisterAttrCallback
  84:.\hrss.c      **** 
  85:.\hrss.c      ****     hrsHeartRate.flags = 0u;
 170              		.loc 1 85 0
 171 000e 114B     		ldr	r3, .L13+4
 172 0010 0022     		mov	r2, #0
 173 0012 1A70     		strb	r2, [r3]
  86:.\hrss.c      ****     hrsHeartRate.heartRateValue = 0u;
 174              		.loc 1 86 0
 175 0014 0F4B     		ldr	r3, .L13+4
 176 0016 0022     		mov	r2, #0
 177 0018 5A80     		strh	r2, [r3, #2]
  87:.\hrss.c      ****     hrsHeartRate.energyExpendedValue = 0u;
 178              		.loc 1 87 0
 179 001a 0E4B     		ldr	r3, .L13+4
 180 001c 0022     		mov	r2, #0
 181 001e 9A80     		strh	r2, [r3, #4]
  88:.\hrss.c      **** 
ARM GAS  C:\Users\igreg\AppData\Local\Temp\cc7shsH2.s 			page 6


  89:.\hrss.c      ****     for(i = 0; i < CYBLE_HRS_HRM_RRSIZE; i++)
 182              		.loc 1 89 0
 183 0020 BB1D     		add	r3, r7, #6
 184 0022 0022     		mov	r2, #0
 185 0024 1A80     		strh	r2, [r3]
 186 0026 0BE0     		b	.L11
 187              	.L12:
  90:.\hrss.c      ****     {
  91:.\hrss.c      ****         hrsHeartRate.rrInterval[i] = 0u;
 188              		.loc 1 91 0 discriminator 3
 189 0028 BB1D     		add	r3, r7, #6
 190 002a 1B88     		ldrh	r3, [r3]
 191 002c 094A     		ldr	r2, .L13+4
 192 002e 5B00     		lsl	r3, r3, #1
 193 0030 D318     		add	r3, r2, r3
 194 0032 0022     		mov	r2, #0
 195 0034 DA80     		strh	r2, [r3, #6]
  89:.\hrss.c      ****     {
 196              		.loc 1 89 0 discriminator 3
 197 0036 BB1D     		add	r3, r7, #6
 198 0038 1A88     		ldrh	r2, [r3]
 199 003a BB1D     		add	r3, r7, #6
 200 003c 0132     		add	r2, r2, #1
 201 003e 1A80     		strh	r2, [r3]
 202              	.L11:
  89:.\hrss.c      ****     {
 203              		.loc 1 89 0 is_stmt 0 discriminator 1
 204 0040 BB1D     		add	r3, r7, #6
 205 0042 1B88     		ldrh	r3, [r3]
 206 0044 082B     		cmp	r3, #8
 207 0046 EFD9     		bls	.L12
  92:.\hrss.c      ****     }
  93:.\hrss.c      **** }
 208              		.loc 1 93 0 is_stmt 1
 209 0048 BD46     		mov	sp, r7
 210 004a 02B0     		add	sp, sp, #8
 211              		@ sp needed
 212 004c 80BD     		pop	{r7, pc}
 213              	.L14:
 214 004e C046     		.align	2
 215              	.L13:
 216 0050 00000000 		.word	HeartRateCallBack
 217 0054 00000000 		.word	hrsHeartRate
 218              		.cfi_endproc
 219              	.LFE38:
 220              		.size	HrsInit, .-HrsInit
 221              		.section	.rodata
 222 009a 0000     		.align	2
 223              	.LC13:
 224 009c 48727373 		.ascii	"HrssSetBodySensorLocation API Error: %x \015\012\000"
 224      53657442 
 224      6F647953 
 224      656E736F 
 224      724C6F63 
 225 00c7 00       		.align	2
 226              	.LC15:
 227 00c8 426F6479 		.ascii	"Body Sensor Location is set successfully: %d \015\012"
ARM GAS  C:\Users\igreg\AppData\Local\Temp\cc7shsH2.s 			page 7


 227      2053656E 
 227      736F7220 
 227      4C6F6361 
 227      74696F6E 
 228 00f7 00       		.ascii	"\000"
 229              		.section	.text.HrssSetBodySensorLocation,"ax",%progbits
 230              		.align	2
 231              		.global	HrssSetBodySensorLocation
 232              		.code	16
 233              		.thumb_func
 234              		.type	HrssSetBodySensorLocation, %function
 235              	HrssSetBodySensorLocation:
 236              	.LFB39:
  94:.\hrss.c      **** 
  95:.\hrss.c      **** /***************************************
  96:.\hrss.c      **** *        Functions
  97:.\hrss.c      **** ***************************************/
  98:.\hrss.c      **** 
  99:.\hrss.c      **** 
 100:.\hrss.c      **** /*******************************************************************************
 101:.\hrss.c      **** * Function Name: HrssSetBodySensorLocation
 102:.\hrss.c      **** ********************************************************************************
 103:.\hrss.c      **** *
 104:.\hrss.c      **** * Summary:
 105:.\hrss.c      **** *  Set the Body Sensor Location characteristic value.
 106:.\hrss.c      **** *
 107:.\hrss.c      **** * Parameters:
 108:.\hrss.c      **** *  CYBLE_HRS_BSL_T location:  Body Sensor Location characteristic value.
 109:.\hrss.c      **** * Return:
 110:.\hrss.c      **** *  CYBLE_API_RESULT_T: API result will state if API succeeded
 111:.\hrss.c      **** *                      (CYBLE_ERROR_OK)
 112:.\hrss.c      **** *                      or failed with error codes.
 113:.\hrss.c      **** *
 114:.\hrss.c      **** *******************************************************************************/
 115:.\hrss.c      **** void HrssSetBodySensorLocation(CYBLE_HRS_BSL_T location)
 116:.\hrss.c      **** {
 237              		.loc 1 116 0
 238              		.cfi_startproc
 239 0000 80B5     		push	{r7, lr}
 240              		.cfi_def_cfa_offset 8
 241              		.cfi_offset 7, -8
 242              		.cfi_offset 14, -4
 243 0002 82B0     		sub	sp, sp, #8
 244              		.cfi_def_cfa_offset 16
 245 0004 00AF     		add	r7, sp, #0
 246              		.cfi_def_cfa_register 7
 247 0006 021C     		mov	r2, r0
 248 0008 FB1D     		add	r3, r7, #7
 249 000a 1A70     		strb	r2, [r3]
 117:.\hrss.c      ****     apiResult = CyBle_HrssSetCharacteristicValue(CYBLE_HRS_BSL, CYBLE_HRS_BSL_CHAR_LEN, (uint8*)&lo
 250              		.loc 1 117 0
 251 000c FB1D     		add	r3, r7, #7
 252 000e 0120     		mov	r0, #1
 253 0010 0121     		mov	r1, #1
 254 0012 1A1C     		mov	r2, r3
 255 0014 FFF7FEFF 		bl	CyBle_HrssSetCharacteristicValue
 256 0018 031C     		mov	r3, r0
ARM GAS  C:\Users\igreg\AppData\Local\Temp\cc7shsH2.s 			page 8


 257 001a 1A1C     		mov	r2, r3
 258 001c 0C4B     		ldr	r3, .L18
 259 001e 1A80     		strh	r2, [r3]
 118:.\hrss.c      ****     
 119:.\hrss.c      ****     if(apiResult != CYBLE_ERROR_OK)
 260              		.loc 1 119 0
 261 0020 0B4B     		ldr	r3, .L18
 262 0022 1B88     		ldrh	r3, [r3]
 263 0024 002B     		cmp	r3, #0
 264 0026 08D0     		beq	.L16
 120:.\hrss.c      ****     {
 121:.\hrss.c      ****         printf("HrssSetBodySensorLocation API Error: %x \r\n", (int) apiResult);
 265              		.loc 1 121 0
 266 0028 094B     		ldr	r3, .L18
 267 002a 1B88     		ldrh	r3, [r3]
 268 002c 1A1C     		mov	r2, r3
 269 002e 094B     		ldr	r3, .L18+4
 270 0030 181C     		mov	r0, r3
 271 0032 111C     		mov	r1, r2
 272 0034 FFF7FEFF 		bl	printf
 273 0038 07E0     		b	.L15
 274              	.L16:
 122:.\hrss.c      ****     }
 123:.\hrss.c      ****     else
 124:.\hrss.c      ****     {
 125:.\hrss.c      ****         printf("Body Sensor Location is set successfully: %d \r\n", location);
 275              		.loc 1 125 0
 276 003a FB1D     		add	r3, r7, #7
 277 003c 1B78     		ldrb	r3, [r3]
 278 003e 1A1C     		mov	r2, r3
 279 0040 054B     		ldr	r3, .L18+8
 280 0042 181C     		mov	r0, r3
 281 0044 111C     		mov	r1, r2
 282 0046 FFF7FEFF 		bl	printf
 283              	.L15:
 126:.\hrss.c      ****     }
 127:.\hrss.c      **** }
 284              		.loc 1 127 0
 285 004a BD46     		mov	sp, r7
 286 004c 02B0     		add	sp, sp, #8
 287              		@ sp needed
 288 004e 80BD     		pop	{r7, pc}
 289              	.L19:
 290              		.align	2
 291              	.L18:
 292 0050 00000000 		.word	apiResult
 293 0054 9C000000 		.word	.LC13
 294 0058 C8000000 		.word	.LC15
 295              		.cfi_endproc
 296              	.LFE39:
 297              		.size	HrssSetBodySensorLocation, .-HrssSetBodySensorLocation
 298              		.section	.text.HrssSetEnergyExpended,"ax",%progbits
 299              		.align	2
 300              		.global	HrssSetEnergyExpended
 301              		.code	16
 302              		.thumb_func
 303              		.type	HrssSetEnergyExpended, %function
ARM GAS  C:\Users\igreg\AppData\Local\Temp\cc7shsH2.s 			page 9


 304              	HrssSetEnergyExpended:
 305              	.LFB40:
 128:.\hrss.c      **** 
 129:.\hrss.c      **** /*******************************************************************************
 130:.\hrss.c      **** * Function Name: CyBle_HrssSetEnergyExpended
 131:.\hrss.c      **** ********************************************************************************
 132:.\hrss.c      **** *
 133:.\hrss.c      **** * Summary:
 134:.\hrss.c      **** *  Sets Energy Expended value into the Heart Rate Measurument characteristic
 135:.\hrss.c      **** *
 136:.\hrss.c      **** * Parameters:
 137:.\hrss.c      **** *  uint16 energyExpended - Energy Expended value to be set.
 138:.\hrss.c      **** *
 139:.\hrss.c      **** * Return:
 140:.\hrss.c      **** *  None
 141:.\hrss.c      **** *
 142:.\hrss.c      **** *******************************************************************************/
 143:.\hrss.c      **** void HrssSetEnergyExpended(uint16 energyExpended)
 144:.\hrss.c      **** {
 306              		.loc 1 144 0
 307              		.cfi_startproc
 308 0000 80B5     		push	{r7, lr}
 309              		.cfi_def_cfa_offset 8
 310              		.cfi_offset 7, -8
 311              		.cfi_offset 14, -4
 312 0002 82B0     		sub	sp, sp, #8
 313              		.cfi_def_cfa_offset 16
 314 0004 00AF     		add	r7, sp, #0
 315              		.cfi_def_cfa_register 7
 316 0006 021C     		mov	r2, r0
 317 0008 BB1D     		add	r3, r7, #6
 318 000a 1A80     		strh	r2, [r3]
 145:.\hrss.c      ****     hrsHeartRate.energyExpendedValue = energyExpended;
 319              		.loc 1 145 0
 320 000c 064B     		ldr	r3, .L21
 321 000e BA1D     		add	r2, r7, #6
 322 0010 1288     		ldrh	r2, [r2]
 323 0012 9A80     		strh	r2, [r3, #4]
 146:.\hrss.c      ****     hrsHeartRate.flags |= CYBLE_HRS_HRM_ENEXP;
 324              		.loc 1 146 0
 325 0014 044B     		ldr	r3, .L21
 326 0016 1B78     		ldrb	r3, [r3]
 327 0018 0822     		mov	r2, #8
 328 001a 1343     		orr	r3, r2
 329 001c DAB2     		uxtb	r2, r3
 330 001e 024B     		ldr	r3, .L21
 331 0020 1A70     		strb	r2, [r3]
 147:.\hrss.c      **** }
 332              		.loc 1 147 0
 333 0022 BD46     		mov	sp, r7
 334 0024 02B0     		add	sp, sp, #8
 335              		@ sp needed
 336 0026 80BD     		pop	{r7, pc}
 337              	.L22:
 338              		.align	2
 339              	.L21:
 340 0028 00000000 		.word	hrsHeartRate
ARM GAS  C:\Users\igreg\AppData\Local\Temp\cc7shsH2.s 			page 10


 341              		.cfi_endproc
 342              	.LFE40:
 343              		.size	HrssSetEnergyExpended, .-HrssSetEnergyExpended
 344              		.section	.text.HrssGetHrmDescriptor,"ax",%progbits
 345              		.align	2
 346              		.global	HrssGetHrmDescriptor
 347              		.code	16
 348              		.thumb_func
 349              		.type	HrssGetHrmDescriptor, %function
 350              	HrssGetHrmDescriptor:
 351              	.LFB41:
 148:.\hrss.c      **** 
 149:.\hrss.c      **** /*******************************************************************************
 150:.\hrss.c      **** * Function Name: HrssGetHrmDescriptor
 151:.\hrss.c      **** ********************************************************************************
 152:.\hrss.c      **** *
 153:.\hrss.c      **** * Summary:
 154:.\hrss.c      **** *   Gets the Heart Rate Measurement characteristic
 155:.\hrss.c      **** *   Configuration Descriptor value
 156:.\hrss.c      **** *
 157:.\hrss.c      **** * Parameters:
 158:.\hrss.c      **** *   None.
 159:.\hrss.c      **** *
 160:.\hrss.c      **** * Return:
 161:.\hrss.c      **** *   uint16 value of the Heart Rate Measurement characteristic
 162:.\hrss.c      **** *   configuration Descriptor.
 163:.\hrss.c      **** *
 164:.\hrss.c      **** *******************************************************************************/
 165:.\hrss.c      **** uint16 HrssGetHrmDescriptor(void)
 166:.\hrss.c      **** {
 352              		.loc 1 166 0
 353              		.cfi_startproc
 354 0000 90B5     		push	{r4, r7, lr}
 355              		.cfi_def_cfa_offset 12
 356              		.cfi_offset 4, -12
 357              		.cfi_offset 7, -8
 358              		.cfi_offset 14, -4
 359 0002 83B0     		sub	sp, sp, #12
 360              		.cfi_def_cfa_offset 24
 361 0004 00AF     		add	r7, sp, #0
 362              		.cfi_def_cfa_register 7
 167:.\hrss.c      ****     uint8 val[CYBLE_CCCD_LEN];
 168:.\hrss.c      ****     uint16 retVal;
 169:.\hrss.c      **** 
 170:.\hrss.c      ****     if(CYBLE_ERROR_OK == CyBle_HrssGetCharacteristicDescriptor(CYBLE_HRS_HRM,
 363              		.loc 1 170 0
 364 0006 3B1D     		add	r3, r7, #4
 365 0008 0020     		mov	r0, #0
 366 000a 0021     		mov	r1, #0
 367 000c 0222     		mov	r2, #2
 368 000e FFF7FEFF 		bl	CyBle_HrssGetCharacteristicDescriptor
 369 0012 031E     		sub	r3, r0, #0
 370 0014 07D1     		bne	.L24
 171:.\hrss.c      ****         CYBLE_HRS_HRM_CCCD, CYBLE_CCCD_LEN, val))
 172:.\hrss.c      ****     {
 173:.\hrss.c      ****         /* Using the length as a temporary variable with suitable type to return */
 174:.\hrss.c      ****         retVal = CyBle_Get16ByPtr(val);
ARM GAS  C:\Users\igreg\AppData\Local\Temp\cc7shsH2.s 			page 11


 371              		.loc 1 174 0
 372 0016 BC1D     		add	r4, r7, #6
 373 0018 3B1D     		add	r3, r7, #4
 374 001a 181C     		mov	r0, r3
 375 001c FFF7FEFF 		bl	CyBle_Get16ByPtr
 376 0020 031C     		mov	r3, r0
 377 0022 2380     		strh	r3, [r4]
 378 0024 02E0     		b	.L25
 379              	.L24:
 175:.\hrss.c      ****     }
 176:.\hrss.c      ****     else
 177:.\hrss.c      ****     {
 178:.\hrss.c      ****         retVal = 0u;
 380              		.loc 1 178 0
 381 0026 BB1D     		add	r3, r7, #6
 382 0028 0022     		mov	r2, #0
 383 002a 1A80     		strh	r2, [r3]
 384              	.L25:
 179:.\hrss.c      ****     }
 180:.\hrss.c      **** 
 181:.\hrss.c      ****     return (retVal);
 385              		.loc 1 181 0
 386 002c BB1D     		add	r3, r7, #6
 387 002e 1B88     		ldrh	r3, [r3]
 182:.\hrss.c      **** }
 388              		.loc 1 182 0
 389 0030 181C     		mov	r0, r3
 390 0032 BD46     		mov	sp, r7
 391 0034 03B0     		add	sp, sp, #12
 392              		@ sp needed
 393 0036 90BD     		pop	{r4, r7, pc}
 394              		.cfi_endproc
 395              	.LFE41:
 396              		.size	HrssGetHrmDescriptor, .-HrssGetHrmDescriptor
 397              		.section	.text.HrssAddRrInterval,"ax",%progbits
 398              		.align	2
 399              		.global	HrssAddRrInterval
 400              		.code	16
 401              		.thumb_func
 402              		.type	HrssAddRrInterval, %function
 403              	HrssAddRrInterval:
 404              	.LFB42:
 183:.\hrss.c      **** 
 184:.\hrss.c      **** 
 185:.\hrss.c      **** /*******************************************************************************
 186:.\hrss.c      **** * Function Name: HrssAddRrInterval
 187:.\hrss.c      **** ********************************************************************************
 188:.\hrss.c      **** *
 189:.\hrss.c      **** * Summary:
 190:.\hrss.c      **** *  Adds the next RR-Interval into the
 191:.\hrss.c      **** *  Heart Rate Measurument characteristic structure.
 192:.\hrss.c      **** *
 193:.\hrss.c      **** * Parameters:
 194:.\hrss.c      **** *  uint16 rrIntervalValue: RR-Interval value to be set.
 195:.\hrss.c      **** *
 196:.\hrss.c      **** * Return:
 197:.\hrss.c      **** *  None
ARM GAS  C:\Users\igreg\AppData\Local\Temp\cc7shsH2.s 			page 12


 198:.\hrss.c      **** *
 199:.\hrss.c      **** *******************************************************************************/
 200:.\hrss.c      **** void HrssAddRrInterval(uint16 rrIntervalValue)
 201:.\hrss.c      **** {
 405              		.loc 1 201 0
 406              		.cfi_startproc
 407 0000 80B5     		push	{r7, lr}
 408              		.cfi_def_cfa_offset 8
 409              		.cfi_offset 7, -8
 410              		.cfi_offset 14, -4
 411 0002 82B0     		sub	sp, sp, #8
 412              		.cfi_def_cfa_offset 16
 413 0004 00AF     		add	r7, sp, #0
 414              		.cfi_def_cfa_register 7
 415 0006 021C     		mov	r2, r0
 416 0008 BB1D     		add	r3, r7, #6
 417 000a 1A80     		strh	r2, [r3]
 202:.\hrss.c      ****     hrsHeartRate.flags |= CYBLE_HRS_HRM_RRINT;
 418              		.loc 1 202 0
 419 000c 144B     		ldr	r3, .L31
 420 000e 1B78     		ldrb	r3, [r3]
 421 0010 1022     		mov	r2, #16
 422 0012 1343     		orr	r3, r2
 423 0014 DAB2     		uxtb	r2, r3
 424 0016 124B     		ldr	r3, .L31
 425 0018 1A70     		strb	r2, [r3]
 203:.\hrss.c      **** 
 204:.\hrss.c      ****     if(hrssRrIntPtr == CYBLE_HRS_HRM_RRSIZE - 1)
 426              		.loc 1 204 0
 427 001a 124B     		ldr	r3, .L31+4
 428 001c 1B78     		ldrb	r3, [r3]
 429 001e 082B     		cmp	r3, #8
 430 0020 03D1     		bne	.L28
 205:.\hrss.c      ****     {
 206:.\hrss.c      ****         hrssRrIntPtr = 0;
 431              		.loc 1 206 0
 432 0022 104B     		ldr	r3, .L31+4
 433 0024 0022     		mov	r2, #0
 434 0026 1A70     		strb	r2, [r3]
 435 0028 05E0     		b	.L29
 436              	.L28:
 207:.\hrss.c      ****     }
 208:.\hrss.c      ****     else
 209:.\hrss.c      ****     {
 210:.\hrss.c      ****         hrssRrIntPtr++;
 437              		.loc 1 210 0
 438 002a 0E4B     		ldr	r3, .L31+4
 439 002c 1B78     		ldrb	r3, [r3]
 440 002e 0133     		add	r3, r3, #1
 441 0030 DAB2     		uxtb	r2, r3
 442 0032 0C4B     		ldr	r3, .L31+4
 443 0034 1A70     		strb	r2, [r3]
 444              	.L29:
 211:.\hrss.c      ****     }
 212:.\hrss.c      **** 
 213:.\hrss.c      ****     if(hrssRrIntCnt <= CYBLE_HRS_HRM_RRSIZE)
 445              		.loc 1 213 0
ARM GAS  C:\Users\igreg\AppData\Local\Temp\cc7shsH2.s 			page 13


 446 0036 0C4B     		ldr	r3, .L31+8
 447 0038 1B78     		ldrb	r3, [r3]
 448 003a 092B     		cmp	r3, #9
 449 003c 05D8     		bhi	.L30
 214:.\hrss.c      ****     {
 215:.\hrss.c      ****         hrssRrIntCnt++;
 450              		.loc 1 215 0
 451 003e 0A4B     		ldr	r3, .L31+8
 452 0040 1B78     		ldrb	r3, [r3]
 453 0042 0133     		add	r3, r3, #1
 454 0044 DAB2     		uxtb	r2, r3
 455 0046 084B     		ldr	r3, .L31+8
 456 0048 1A70     		strb	r2, [r3]
 457              	.L30:
 216:.\hrss.c      ****     }
 217:.\hrss.c      **** 
 218:.\hrss.c      ****     hrsHeartRate.rrInterval[hrssRrIntPtr] = rrIntervalValue;
 458              		.loc 1 218 0
 459 004a 064B     		ldr	r3, .L31+4
 460 004c 1B78     		ldrb	r3, [r3]
 461 004e 0449     		ldr	r1, .L31
 462 0050 5B00     		lsl	r3, r3, #1
 463 0052 BA1D     		add	r2, r7, #6
 464 0054 CB18     		add	r3, r1, r3
 465 0056 1288     		ldrh	r2, [r2]
 466 0058 DA80     		strh	r2, [r3, #6]
 219:.\hrss.c      **** }
 467              		.loc 1 219 0
 468 005a BD46     		mov	sp, r7
 469 005c 02B0     		add	sp, sp, #8
 470              		@ sp needed
 471 005e 80BD     		pop	{r7, pc}
 472              	.L32:
 473              		.align	2
 474              	.L31:
 475 0060 00000000 		.word	hrsHeartRate
 476 0064 00000000 		.word	hrssRrIntPtr
 477 0068 00000000 		.word	hrssRrIntCnt
 478              		.cfi_endproc
 479              	.LFE42:
 480              		.size	HrssAddRrInterval, .-HrssAddRrInterval
 481              		.section	.rodata
 482              		.align	2
 483              	.LC26:
 484 00f8 48727373 		.ascii	"HrssSendHeartRateNtf API Error: %x \015\012\000"
 484      53656E64 
 484      48656172 
 484      74526174 
 484      654E7466 
 485 011e 0000     		.align	2
 486              	.LC28:
 487 0120 48656172 		.ascii	"Heart Rate Notification is sent successfully, Heart"
 487      74205261 
 487      7465204E 
 487      6F746966 
 487      69636174 
 488 0153 20526174 		.ascii	" Rate = %d \015\012\000"
ARM GAS  C:\Users\igreg\AppData\Local\Temp\cc7shsH2.s 			page 14


 488      65203D20 
 488      2564200D 
 488      0A00
 489 0161 000000   		.section	.text.HrssSendHeartRateNtf,"ax",%progbits
 490              		.align	2
 491              		.global	HrssSendHeartRateNtf
 492              		.code	16
 493              		.thumb_func
 494              		.type	HrssSendHeartRateNtf, %function
 495              	HrssSendHeartRateNtf:
 496              	.LFB43:
 220:.\hrss.c      **** 
 221:.\hrss.c      **** 
 222:.\hrss.c      **** /*******************************************************************************
 223:.\hrss.c      **** * Function Name: HrssSendHeartRateNtf
 224:.\hrss.c      **** ********************************************************************************
 225:.\hrss.c      **** *
 226:.\hrss.c      **** * Summary:
 227:.\hrss.c      **** *  Packs the Heart Rate Measurement characteristic structure into the
 228:.\hrss.c      **** *  uint8 array prior to sending it to the collector. Also clears the
 229:.\hrss.c      **** *  CYBLE_HRS_HRM_HRVAL16, CYBLE_HRS_HRM_ENEXP and CYBLE_HRS_HRM_RRINT flags.
 230:.\hrss.c      **** *
 231:.\hrss.c      **** * Parameters:
 232:.\hrss.c      **** *  attHandle:  Pointer to the handle which consists of device ID and ATT
 233:.\hrss.c      **** *              connection ID.
 234:.\hrss.c      **** *
 235:.\hrss.c      **** * Return:
 236:.\hrss.c      **** *  CYBLE_API_RESULT_T: API result will state if API succeeded
 237:.\hrss.c      **** *                      (CYBLE_ERROR_OK)
 238:.\hrss.c      **** *                      or failed with error codes.
 239:.\hrss.c      **** *
 240:.\hrss.c      **** *******************************************************************************/
 241:.\hrss.c      **** void HrssSendHeartRateNtf()
 242:.\hrss.c      **** {
 497              		.loc 1 242 0
 498              		.cfi_startproc
 499 0000 B0B5     		push	{r4, r5, r7, lr}
 500              		.cfi_def_cfa_offset 16
 501              		.cfi_offset 4, -16
 502              		.cfi_offset 5, -12
 503              		.cfi_offset 7, -8
 504              		.cfi_offset 14, -4
 505 0002 86B0     		sub	sp, sp, #24
 506              		.cfi_def_cfa_offset 40
 507 0004 00AF     		add	r7, sp, #0
 508              		.cfi_def_cfa_register 7
 243:.\hrss.c      ****     uint8 pdu[CYBLE_HRS_HRM_CHAR_LEN];
 244:.\hrss.c      ****     uint8 nextPtr;
 245:.\hrss.c      ****     uint8 length;
 246:.\hrss.c      ****     uint8 rrInt;
 247:.\hrss.c      **** 
 248:.\hrss.c      ****     /* Flags field is always the first byte */
 249:.\hrss.c      ****     pdu[0u] = hrsHeartRate.flags & (uint8) ~CYBLE_HRS_HRM_HRVAL16;
 509              		.loc 1 249 0
 510 0006 734B     		ldr	r3, .L45
 511 0008 1B78     		ldrb	r3, [r3]
 512 000a 0122     		mov	r2, #1
ARM GAS  C:\Users\igreg\AppData\Local\Temp\cc7shsH2.s 			page 15


 513 000c 9343     		bic	r3, r2
 514 000e DAB2     		uxtb	r2, r3
 515 0010 3B1C     		mov	r3, r7
 516 0012 1A70     		strb	r2, [r3]
 250:.\hrss.c      **** 
 251:.\hrss.c      ****     /* If the Heart Rate value exceeds one byte */
 252:.\hrss.c      ****     if(hrsHeartRate.heartRateValue > 0x00FFu)
 517              		.loc 1 252 0
 518 0014 6F4B     		ldr	r3, .L45
 519 0016 5B88     		ldrh	r3, [r3, #2]
 520 0018 FF2B     		cmp	r3, #255
 521 001a 13D9     		bls	.L34
 253:.\hrss.c      ****     {
 254:.\hrss.c      ****         /* then set the CYBLE_HRS_HRM_HRVAL16 flag */
 255:.\hrss.c      ****         pdu[0u] |= CYBLE_HRS_HRM_HRVAL16;
 522              		.loc 1 255 0
 523 001c 3B1C     		mov	r3, r7
 524 001e 1B78     		ldrb	r3, [r3]
 525 0020 0122     		mov	r2, #1
 526 0022 1343     		orr	r3, r2
 527 0024 DAB2     		uxtb	r2, r3
 528 0026 3B1C     		mov	r3, r7
 529 0028 1A70     		strb	r2, [r3]
 256:.\hrss.c      ****         /* and set the full 2-bytes Heart Rate value */
 257:.\hrss.c      ****         CyBle_Set16ByPtr(&pdu[1u], hrsHeartRate.heartRateValue);
 530              		.loc 1 257 0
 531 002a 6A4B     		ldr	r3, .L45
 532 002c 5A88     		ldrh	r2, [r3, #2]
 533 002e 3B1C     		mov	r3, r7
 534 0030 0133     		add	r3, r3, #1
 535 0032 181C     		mov	r0, r3
 536 0034 111C     		mov	r1, r2
 537 0036 FFF7FEFF 		bl	CyBle_Set16ByPtr
 258:.\hrss.c      ****         /* The next data will be located beginning from 3rd byte */
 259:.\hrss.c      ****         nextPtr = 3u;
 538              		.loc 1 259 0
 539 003a 1723     		mov	r3, #23
 540 003c FB18     		add	r3, r7, r3
 541 003e 0322     		mov	r2, #3
 542 0040 1A70     		strb	r2, [r3]
 543 0042 08E0     		b	.L35
 544              	.L34:
 260:.\hrss.c      ****     }
 261:.\hrss.c      ****     else
 262:.\hrss.c      ****     {
 263:.\hrss.c      ****         /* Else leave the CYBLE_HRS_HRM_HRVAL16 flag remains being cleared */
 264:.\hrss.c      ****         /* and set only LSB of the  Heart Rate value */
 265:.\hrss.c      ****         pdu[1u] = (uint8) hrsHeartRate.heartRateValue;
 545              		.loc 1 265 0
 546 0044 634B     		ldr	r3, .L45
 547 0046 5B88     		ldrh	r3, [r3, #2]
 548 0048 DAB2     		uxtb	r2, r3
 549 004a 3B1C     		mov	r3, r7
 550 004c 5A70     		strb	r2, [r3, #1]
 266:.\hrss.c      ****         /* The next data will be located beginning from 2nd byte */
 267:.\hrss.c      ****         nextPtr = 2u;
 551              		.loc 1 267 0
ARM GAS  C:\Users\igreg\AppData\Local\Temp\cc7shsH2.s 			page 16


 552 004e 1723     		mov	r3, #23
 553 0050 FB18     		add	r3, r7, r3
 554 0052 0222     		mov	r2, #2
 555 0054 1A70     		strb	r2, [r3]
 556              	.L35:
 268:.\hrss.c      ****     }
 269:.\hrss.c      **** 
 270:.\hrss.c      ****     /* If the Energy Expended flag is set */
 271:.\hrss.c      ****     if(0u != (hrsHeartRate.flags & CYBLE_HRS_HRM_ENEXP))
 557              		.loc 1 271 0
 558 0056 5F4B     		ldr	r3, .L45
 559 0058 1B78     		ldrb	r3, [r3]
 560 005a 1A1C     		mov	r2, r3
 561 005c 0823     		mov	r3, #8
 562 005e 1340     		and	r3, r2
 563 0060 18D0     		beq	.L36
 272:.\hrss.c      ****     {
 273:.\hrss.c      ****         /* clear the CYBLE_HRS_HRM_ENEXP flag */
 274:.\hrss.c      ****         hrsHeartRate.flags &= (uint8) ~CYBLE_HRS_HRM_ENEXP;
 564              		.loc 1 274 0
 565 0062 5C4B     		ldr	r3, .L45
 566 0064 1B78     		ldrb	r3, [r3]
 567 0066 0822     		mov	r2, #8
 568 0068 9343     		bic	r3, r2
 569 006a DAB2     		uxtb	r2, r3
 570 006c 594B     		ldr	r3, .L45
 571 006e 1A70     		strb	r2, [r3]
 275:.\hrss.c      ****         /* and set the 2-bytes Energy Expended value */
 276:.\hrss.c      ****         CyBle_Set16ByPtr(&pdu[nextPtr], hrsHeartRate.energyExpendedValue);
 572              		.loc 1 276 0
 573 0070 1723     		mov	r3, #23
 574 0072 FB18     		add	r3, r7, r3
 575 0074 1B78     		ldrb	r3, [r3]
 576 0076 3A1C     		mov	r2, r7
 577 0078 D218     		add	r2, r2, r3
 578 007a 564B     		ldr	r3, .L45
 579 007c 9B88     		ldrh	r3, [r3, #4]
 580 007e 101C     		mov	r0, r2
 581 0080 191C     		mov	r1, r3
 582 0082 FFF7FEFF 		bl	CyBle_Set16ByPtr
 277:.\hrss.c      ****         /* add 2 bytes: Energy Expended value is uint16 */
 278:.\hrss.c      ****         nextPtr += 2u;
 583              		.loc 1 278 0
 584 0086 1723     		mov	r3, #23
 585 0088 FB18     		add	r3, r7, r3
 586 008a 1722     		mov	r2, #23
 587 008c BA18     		add	r2, r7, r2
 588 008e 1278     		ldrb	r2, [r2]
 589 0090 0232     		add	r2, r2, #2
 590 0092 1A70     		strb	r2, [r3]
 591              	.L36:
 279:.\hrss.c      ****     }
 280:.\hrss.c      **** 
 281:.\hrss.c      ****     if(HrssAreThereRrIntervals())
 592              		.loc 1 281 0
 593 0094 4F4B     		ldr	r3, .L45
 594 0096 1B78     		ldrb	r3, [r3]
ARM GAS  C:\Users\igreg\AppData\Local\Temp\cc7shsH2.s 			page 17


 595 0098 1A1C     		mov	r2, r3
 596 009a 1023     		mov	r3, #16
 597 009c 1340     		and	r3, r2
 598 009e 67D0     		beq	.L37
 282:.\hrss.c      ****     {
 283:.\hrss.c      ****         /* Calculate the actual length of pdu: the RR-interval block length should be an even numbe
 284:.\hrss.c      ****         length = ((CYBLE_HRS_HRM_CHAR_LEN - nextPtr) & ~0x01) + nextPtr;
 599              		.loc 1 284 0
 600 00a0 1723     		mov	r3, #23
 601 00a2 FB18     		add	r3, r7, r3
 602 00a4 1B78     		ldrb	r3, [r3]
 603 00a6 1422     		mov	r2, #20
 604 00a8 D31A     		sub	r3, r2, r3
 605 00aa DBB2     		uxtb	r3, r3
 606 00ac 0122     		mov	r2, #1
 607 00ae 9343     		bic	r3, r2
 608 00b0 D9B2     		uxtb	r1, r3
 609 00b2 1523     		mov	r3, #21
 610 00b4 FB18     		add	r3, r7, r3
 611 00b6 1722     		mov	r2, #23
 612 00b8 BA18     		add	r2, r7, r2
 613 00ba 1278     		ldrb	r2, [r2]
 614 00bc 8A18     		add	r2, r1, r2
 615 00be 1A70     		strb	r2, [r3]
 285:.\hrss.c      **** 
 286:.\hrss.c      ****         rrInt = hrssRrIntPtr;
 616              		.loc 1 286 0
 617 00c0 1623     		mov	r3, #22
 618 00c2 FB18     		add	r3, r7, r3
 619 00c4 444A     		ldr	r2, .L45+4
 620 00c6 1278     		ldrb	r2, [r2]
 621 00c8 1A70     		strb	r2, [r3]
 287:.\hrss.c      **** 
 288:.\hrss.c      ****         while(nextPtr < length)
 622              		.loc 1 288 0
 623 00ca 46E0     		b	.L38
 624              	.L42:
 289:.\hrss.c      ****         {
 290:.\hrss.c      ****             /* Increment the rrInterval array pointer in RR-Interval buffer size loop */
 291:.\hrss.c      ****             rrInt++;
 625              		.loc 1 291 0
 626 00cc 1623     		mov	r3, #22
 627 00ce FB18     		add	r3, r7, r3
 628 00d0 1A78     		ldrb	r2, [r3]
 629 00d2 1623     		mov	r3, #22
 630 00d4 FB18     		add	r3, r7, r3
 631 00d6 0132     		add	r2, r2, #1
 632 00d8 1A70     		strb	r2, [r3]
 292:.\hrss.c      ****             if(rrInt >= CYBLE_HRS_HRM_RRSIZE)
 633              		.loc 1 292 0
 634 00da 1623     		mov	r3, #22
 635 00dc FB18     		add	r3, r7, r3
 636 00de 1B78     		ldrb	r3, [r3]
 637 00e0 082B     		cmp	r3, #8
 638 00e2 03D9     		bls	.L39
 293:.\hrss.c      ****             {
 294:.\hrss.c      ****                 rrInt = 0;
ARM GAS  C:\Users\igreg\AppData\Local\Temp\cc7shsH2.s 			page 18


 639              		.loc 1 294 0
 640 00e4 1623     		mov	r3, #22
 641 00e6 FB18     		add	r3, r7, r3
 642 00e8 0022     		mov	r2, #0
 643 00ea 1A70     		strb	r2, [r3]
 644              	.L39:
 295:.\hrss.c      ****             }
 296:.\hrss.c      **** 
 297:.\hrss.c      ****             if(hrsHeartRate.rrInterval[rrInt] != 0)
 645              		.loc 1 297 0
 646 00ec 1623     		mov	r3, #22
 647 00ee FB18     		add	r3, r7, r3
 648 00f0 1B78     		ldrb	r3, [r3]
 649 00f2 384A     		ldr	r2, .L45
 650 00f4 5B00     		lsl	r3, r3, #1
 651 00f6 D318     		add	r3, r2, r3
 652 00f8 DB88     		ldrh	r3, [r3, #6]
 653 00fa 002B     		cmp	r3, #0
 654 00fc 1ED0     		beq	.L40
 298:.\hrss.c      ****             {
 299:.\hrss.c      ****                 /* Copy the non-zero RR-Interval into the pdu */
 300:.\hrss.c      ****                 CyBle_Set16ByPtr(&pdu[nextPtr], hrsHeartRate.rrInterval[rrInt]);
 655              		.loc 1 300 0
 656 00fe 1723     		mov	r3, #23
 657 0100 FB18     		add	r3, r7, r3
 658 0102 1B78     		ldrb	r3, [r3]
 659 0104 3A1C     		mov	r2, r7
 660 0106 D118     		add	r1, r2, r3
 661 0108 1623     		mov	r3, #22
 662 010a FB18     		add	r3, r7, r3
 663 010c 1B78     		ldrb	r3, [r3]
 664 010e 314A     		ldr	r2, .L45
 665 0110 5B00     		lsl	r3, r3, #1
 666 0112 D318     		add	r3, r2, r3
 667 0114 DB88     		ldrh	r3, [r3, #6]
 668 0116 081C     		mov	r0, r1
 669 0118 191C     		mov	r1, r3
 670 011a FFF7FEFF 		bl	CyBle_Set16ByPtr
 301:.\hrss.c      ****                 /* Clear the current RR-Interval in the buffer */
 302:.\hrss.c      ****                 hrsHeartRate.rrInterval[rrInt] = 0;
 671              		.loc 1 302 0
 672 011e 1623     		mov	r3, #22
 673 0120 FB18     		add	r3, r7, r3
 674 0122 1B78     		ldrb	r3, [r3]
 675 0124 2B4A     		ldr	r2, .L45
 676 0126 5B00     		lsl	r3, r3, #1
 677 0128 D318     		add	r3, r2, r3
 678 012a 0022     		mov	r2, #0
 679 012c DA80     		strh	r2, [r3, #6]
 303:.\hrss.c      ****                 /* Add 2 bytes: RR-Interval value is uint16 */
 304:.\hrss.c      ****                 nextPtr += 2u;
 680              		.loc 1 304 0
 681 012e 1723     		mov	r3, #23
 682 0130 FB18     		add	r3, r7, r3
 683 0132 1722     		mov	r2, #23
 684 0134 BA18     		add	r2, r7, r2
 685 0136 1278     		ldrb	r2, [r2]
ARM GAS  C:\Users\igreg\AppData\Local\Temp\cc7shsH2.s 			page 19


 686 0138 0232     		add	r2, r2, #2
 687 013a 1A70     		strb	r2, [r3]
 688              	.L40:
 305:.\hrss.c      ****             }
 306:.\hrss.c      **** 
 307:.\hrss.c      ****             if(rrInt == hrssRrIntPtr)
 689              		.loc 1 307 0
 690 013c 264B     		ldr	r3, .L45+4
 691 013e 1B78     		ldrb	r3, [r3]
 692 0140 1622     		mov	r2, #22
 693 0142 BA18     		add	r2, r7, r2
 694 0144 1278     		ldrb	r2, [r2]
 695 0146 9A42     		cmp	r2, r3
 696 0148 07D1     		bne	.L38
 308:.\hrss.c      ****             {
 309:.\hrss.c      ****                 hrsHeartRate.flags &= (uint8) ~CYBLE_HRS_HRM_RRINT;
 697              		.loc 1 309 0
 698 014a 224B     		ldr	r3, .L45
 699 014c 1B78     		ldrb	r3, [r3]
 700 014e 1022     		mov	r2, #16
 701 0150 9343     		bic	r3, r2
 702 0152 DAB2     		uxtb	r2, r3
 703 0154 1F4B     		ldr	r3, .L45
 704 0156 1A70     		strb	r2, [r3]
 310:.\hrss.c      ****                 break;
 705              		.loc 1 310 0
 706 0158 07E0     		b	.L41
 707              	.L38:
 288:.\hrss.c      ****         {
 708              		.loc 1 288 0
 709 015a 1723     		mov	r3, #23
 710 015c FA18     		add	r2, r7, r3
 711 015e 1523     		mov	r3, #21
 712 0160 FB18     		add	r3, r7, r3
 713 0162 1278     		ldrb	r2, [r2]
 714 0164 1B78     		ldrb	r3, [r3]
 715 0166 9A42     		cmp	r2, r3
 716 0168 B0D3     		bcc	.L42
 717              	.L41:
 311:.\hrss.c      ****             }
 312:.\hrss.c      ****         }
 313:.\hrss.c      **** 
 314:.\hrss.c      ****         hrssRrIntCnt = 0;
 718              		.loc 1 314 0
 719 016a 1C4B     		ldr	r3, .L45+8
 720 016c 0022     		mov	r2, #0
 721 016e 1A70     		strb	r2, [r3]
 722              	.L37:
 315:.\hrss.c      ****     }
 316:.\hrss.c      **** 	
 317:.\hrss.c      **** 	apiResult = CyBle_HrssSendNotification(cyBle_connHandle, CYBLE_HRS_HRM, nextPtr, pdu);
 723              		.loc 1 317 0
 724 0170 1B4B     		ldr	r3, .L45+12
 725 0172 1722     		mov	r2, #23
 726 0174 BA18     		add	r2, r7, r2
 727 0176 1578     		ldrb	r5, [r2]
 728 0178 3C1C     		mov	r4, r7
ARM GAS  C:\Users\igreg\AppData\Local\Temp\cc7shsH2.s 			page 20


 729 017a 1A78     		ldrb	r2, [r3]
 730 017c 5B78     		ldrb	r3, [r3, #1]
 731 017e 1B02     		lsl	r3, r3, #8
 732 0180 1A43     		orr	r2, r3
 733 0182 0023     		mov	r3, #0
 734 0184 1204     		lsl	r2, r2, #16
 735 0186 120C     		lsr	r2, r2, #16
 736 0188 1B0C     		lsr	r3, r3, #16
 737 018a 1B04     		lsl	r3, r3, #16
 738 018c 1343     		orr	r3, r2
 739 018e 181C     		mov	r0, r3
 740 0190 0021     		mov	r1, #0
 741 0192 2A1C     		mov	r2, r5
 742 0194 231C     		mov	r3, r4
 743 0196 FFF7FEFF 		bl	CyBle_HrssSendNotification
 744 019a 031C     		mov	r3, r0
 745 019c 1A1C     		mov	r2, r3
 746 019e 114B     		ldr	r3, .L45+16
 747 01a0 1A80     		strh	r2, [r3]
 318:.\hrss.c      ****     
 319:.\hrss.c      ****     if(apiResult != CYBLE_ERROR_OK)
 748              		.loc 1 319 0
 749 01a2 104B     		ldr	r3, .L45+16
 750 01a4 1B88     		ldrh	r3, [r3]
 751 01a6 002B     		cmp	r3, #0
 752 01a8 08D0     		beq	.L43
 320:.\hrss.c      ****     {
 321:.\hrss.c      ****         printf("HrssSendHeartRateNtf API Error: %x \r\n", apiResult);
 753              		.loc 1 321 0
 754 01aa 0E4B     		ldr	r3, .L45+16
 755 01ac 1B88     		ldrh	r3, [r3]
 756 01ae 1A1C     		mov	r2, r3
 757 01b0 0D4B     		ldr	r3, .L45+20
 758 01b2 181C     		mov	r0, r3
 759 01b4 111C     		mov	r1, r2
 760 01b6 FFF7FEFF 		bl	printf
 761 01ba 07E0     		b	.L33
 762              	.L43:
 322:.\hrss.c      ****     }
 323:.\hrss.c      ****     else
 324:.\hrss.c      ****     {
 325:.\hrss.c      ****         printf("Heart Rate Notification is sent successfully, Heart Rate = %d \r\n", hrsHeartRate.h
 763              		.loc 1 325 0
 764 01bc 054B     		ldr	r3, .L45
 765 01be 5B88     		ldrh	r3, [r3, #2]
 766 01c0 1A1C     		mov	r2, r3
 767 01c2 0A4B     		ldr	r3, .L45+24
 768 01c4 181C     		mov	r0, r3
 769 01c6 111C     		mov	r1, r2
 770 01c8 FFF7FEFF 		bl	printf
 771              	.L33:
 326:.\hrss.c      ****     }
 327:.\hrss.c      **** }
 772              		.loc 1 327 0
 773 01cc BD46     		mov	sp, r7
 774 01ce 06B0     		add	sp, sp, #24
 775              		@ sp needed
ARM GAS  C:\Users\igreg\AppData\Local\Temp\cc7shsH2.s 			page 21


 776 01d0 B0BD     		pop	{r4, r5, r7, pc}
 777              	.L46:
 778 01d2 C046     		.align	2
 779              	.L45:
 780 01d4 00000000 		.word	hrsHeartRate
 781 01d8 00000000 		.word	hrssRrIntPtr
 782 01dc 00000000 		.word	hrssRrIntCnt
 783 01e0 00000000 		.word	cyBle_connHandle
 784 01e4 00000000 		.word	apiResult
 785 01e8 F8000000 		.word	.LC26
 786 01ec 20010000 		.word	.LC28
 787              		.cfi_endproc
 788              	.LFE43:
 789              		.size	HrssSendHeartRateNtf, .-HrssSendHeartRateNtf
 790              		.global	__aeabi_uidiv
 791              		.global	__aeabi_idiv
 792              		.section	.text.SimulateHeartRate,"ax",%progbits
 793              		.align	2
 794              		.global	SimulateHeartRate
 795              		.code	16
 796              		.thumb_func
 797              		.type	SimulateHeartRate, %function
 798              	SimulateHeartRate:
 799              	.LFB44:
 328:.\hrss.c      **** 
 329:.\hrss.c      **** /*******************************************************************************
 330:.\hrss.c      **** * Function Name: SimulateHeartRate
 331:.\hrss.c      **** ********************************************************************************
 332:.\hrss.c      **** *
 333:.\hrss.c      **** * Summary:
 334:.\hrss.c      **** *   Simulates all constituents of the Heart Rate Measurement characteristic.
 335:.\hrss.c      **** *
 336:.\hrss.c      **** * Parameters:
 337:.\hrss.c      **** *   None
 338:.\hrss.c      **** *
 339:.\hrss.c      **** * Return:
 340:.\hrss.c      **** *   None
 341:.\hrss.c      **** *
 342:.\hrss.c      **** *******************************************************************************/
 343:.\hrss.c      **** void SimulateHeartRate(void)
 344:.\hrss.c      **** {
 800              		.loc 1 344 0
 801              		.cfi_startproc
 802 0000 90B5     		push	{r4, r7, lr}
 803              		.cfi_def_cfa_offset 12
 804              		.cfi_offset 4, -12
 805              		.cfi_offset 7, -8
 806              		.cfi_offset 14, -4
 807 0002 83B0     		sub	sp, sp, #12
 808              		.cfi_def_cfa_offset 24
 809 0004 00AF     		add	r7, sp, #0
 810              		.cfi_def_cfa_register 7
 345:.\hrss.c      ****     static uint32 energyExpendedTimer   = ENERGY_EXPECTED_TIMEOUT;
 346:.\hrss.c      ****     static uint16 heartRate             = SIM_HEART_RATE_MIN;
 347:.\hrss.c      ****     
 348:.\hrss.c      ****     uint16 rrInterval;
 349:.\hrss.c      ****     uint8  rrIntCnt;
ARM GAS  C:\Users\igreg\AppData\Local\Temp\cc7shsH2.s 			page 22


 350:.\hrss.c      **** 
 351:.\hrss.c      ****     /* Heart Rate simulation */
 352:.\hrss.c      ****     heartRate += SIM_HEART_RATE_INCREMENT;
 811              		.loc 1 352 0
 812 0006 304B     		ldr	r3, .L53
 813 0008 1B88     		ldrh	r3, [r3]
 814 000a 0C33     		add	r3, r3, #12
 815 000c 9AB2     		uxth	r2, r3
 816 000e 2E4B     		ldr	r3, .L53
 817 0010 1A80     		strh	r2, [r3]
 353:.\hrss.c      ****     if(heartRate > SIM_HEART_RATE_MAX)
 818              		.loc 1 353 0
 819 0012 2D4B     		ldr	r3, .L53
 820 0014 1A88     		ldrh	r2, [r3]
 821 0016 9623     		mov	r3, #150
 822 0018 5B00     		lsl	r3, r3, #1
 823 001a 9A42     		cmp	r2, r3
 824 001c 02D9     		bls	.L48
 354:.\hrss.c      ****     {
 355:.\hrss.c      ****         heartRate = SIM_HEART_RATE_MIN;
 825              		.loc 1 355 0
 826 001e 2A4B     		ldr	r3, .L53
 827 0020 3C22     		mov	r2, #60
 828 0022 1A80     		strh	r2, [r3]
 829              	.L48:
 356:.\hrss.c      ****     }
 357:.\hrss.c      **** 
 358:.\hrss.c      ****     HrssSetHeartRate(heartRate);
 830              		.loc 1 358 0
 831 0024 284B     		ldr	r3, .L53
 832 0026 1A88     		ldrh	r2, [r3]
 833 0028 284B     		ldr	r3, .L53+4
 834 002a 5A80     		strh	r2, [r3, #2]
 359:.\hrss.c      ****     
 360:.\hrss.c      ****     /* RR-Interval calculation */    
 361:.\hrss.c      ****     /* rrInterval = 60 000 mSec (1 min) / heartRate */
 362:.\hrss.c      ****     rrInterval = 60000u / heartRate;
 835              		.loc 1 362 0
 836 002c 264B     		ldr	r3, .L53
 837 002e 1B88     		ldrh	r3, [r3]
 838 0030 BC1D     		add	r4, r7, #6
 839 0032 2748     		ldr	r0, .L53+8
 840 0034 191C     		mov	r1, r3
 841 0036 FFF7FEFF 		bl	__aeabi_uidiv
 842 003a 031C     		mov	r3, r0
 843 003c 2380     		strh	r3, [r4]
 363:.\hrss.c      ****     
 364:.\hrss.c      ****     /* count of RR-intervals per one second (1000 mSec) */
 365:.\hrss.c      ****     rrIntCnt = (uint8)(1000 / rrInterval);
 844              		.loc 1 365 0
 845 003e BB1D     		add	r3, r7, #6
 846 0040 1A88     		ldrh	r2, [r3]
 847 0042 FA23     		mov	r3, #250
 848 0044 9800     		lsl	r0, r3, #2
 849 0046 111C     		mov	r1, r2
 850 0048 FFF7FEFF 		bl	__aeabi_idiv
 851 004c 031C     		mov	r3, r0
ARM GAS  C:\Users\igreg\AppData\Local\Temp\cc7shsH2.s 			page 23


 852 004e 1A1C     		mov	r2, r3
 853 0050 7B1D     		add	r3, r7, #5
 854 0052 1A70     		strb	r2, [r3]
 366:.\hrss.c      **** 
 367:.\hrss.c      ****     while(rrIntCnt > 0u)
 855              		.loc 1 367 0
 856 0054 12E0     		b	.L49
 857              	.L51:
 368:.\hrss.c      ****     {
 369:.\hrss.c      ****         if(!HrssIsRrIntervalBufferFull())
 858              		.loc 1 369 0
 859 0056 1F4B     		ldr	r3, .L53+12
 860 0058 1B78     		ldrb	r3, [r3]
 861 005a 082B     		cmp	r3, #8
 862 005c 04D8     		bhi	.L50
 370:.\hrss.c      ****         {
 371:.\hrss.c      ****             HrssAddRrInterval(rrInterval);
 863              		.loc 1 371 0
 864 005e BB1D     		add	r3, r7, #6
 865 0060 1B88     		ldrh	r3, [r3]
 866 0062 181C     		mov	r0, r3
 867 0064 FFF7FEFF 		bl	HrssAddRrInterval
 868              	.L50:
 372:.\hrss.c      ****         }
 373:.\hrss.c      ****         rrInterval++;
 869              		.loc 1 373 0
 870 0068 BB1D     		add	r3, r7, #6
 871 006a 1A88     		ldrh	r2, [r3]
 872 006c BB1D     		add	r3, r7, #6
 873 006e 0132     		add	r2, r2, #1
 874 0070 1A80     		strh	r2, [r3]
 374:.\hrss.c      ****         rrIntCnt--;
 875              		.loc 1 374 0
 876 0072 7B1D     		add	r3, r7, #5
 877 0074 1A78     		ldrb	r2, [r3]
 878 0076 7B1D     		add	r3, r7, #5
 879 0078 013A     		sub	r2, r2, #1
 880 007a 1A70     		strb	r2, [r3]
 881              	.L49:
 367:.\hrss.c      ****     {
 882              		.loc 1 367 0
 883 007c 7B1D     		add	r3, r7, #5
 884 007e 1B78     		ldrb	r3, [r3]
 885 0080 002B     		cmp	r3, #0
 886 0082 E8D1     		bne	.L51
 375:.\hrss.c      ****     }
 376:.\hrss.c      ****     
 377:.\hrss.c      ****     /* Energy Expended simulation */
 378:.\hrss.c      ****     if(--energyExpendedTimer == 0)
 887              		.loc 1 378 0
 888 0084 144B     		ldr	r3, .L53+16
 889 0086 1B68     		ldr	r3, [r3]
 890 0088 5A1E     		sub	r2, r3, #1
 891 008a 134B     		ldr	r3, .L53+16
 892 008c 1A60     		str	r2, [r3]
 893 008e 124B     		ldr	r3, .L53+16
 894 0090 1B68     		ldr	r3, [r3]
ARM GAS  C:\Users\igreg\AppData\Local\Temp\cc7shsH2.s 			page 24


 895 0092 002B     		cmp	r3, #0
 896 0094 12D1     		bne	.L52
 379:.\hrss.c      ****     {
 380:.\hrss.c      ****         energyExpendedTimer = ENERGY_EXPECTED_TIMEOUT;
 897              		.loc 1 380 0
 898 0096 104B     		ldr	r3, .L53+16
 899 0098 0A22     		mov	r2, #10
 900 009a 1A60     		str	r2, [r3]
 381:.\hrss.c      **** 
 382:.\hrss.c      ****         HrssSetEnergyExpended(energyExpended);
 901              		.loc 1 382 0
 902 009c 0F4B     		ldr	r3, .L53+20
 903 009e 1B88     		ldrh	r3, [r3]
 904 00a0 181C     		mov	r0, r3
 905 00a2 FFF7FEFF 		bl	HrssSetEnergyExpended
 383:.\hrss.c      **** 
 384:.\hrss.c      ****         if(energyExpended < (CYBLE_ENERGY_EXPENDED_MAX_VALUE - SIM_ENERGY_EXPENDED_INCREMENT))
 906              		.loc 1 384 0
 907 00a6 0D4B     		ldr	r3, .L53+20
 908 00a8 1B88     		ldrh	r3, [r3]
 909 00aa 0D4A     		ldr	r2, .L53+24
 910 00ac 9342     		cmp	r3, r2
 911 00ae 05D8     		bhi	.L52
 385:.\hrss.c      ****         {
 386:.\hrss.c      ****             energyExpended += SIM_ENERGY_EXPENDED_INCREMENT;
 912              		.loc 1 386 0
 913 00b0 0A4B     		ldr	r3, .L53+20
 914 00b2 1B88     		ldrh	r3, [r3]
 915 00b4 1433     		add	r3, r3, #20
 916 00b6 9AB2     		uxth	r2, r3
 917 00b8 084B     		ldr	r3, .L53+20
 918 00ba 1A80     		strh	r2, [r3]
 919              	.L52:
 387:.\hrss.c      ****         }
 388:.\hrss.c      ****     }
 389:.\hrss.c      ****     
 390:.\hrss.c      ****     HrssSendHeartRateNtf();
 920              		.loc 1 390 0
 921 00bc FFF7FEFF 		bl	HrssSendHeartRateNtf
 391:.\hrss.c      **** }
 922              		.loc 1 391 0
 923 00c0 BD46     		mov	sp, r7
 924 00c2 03B0     		add	sp, sp, #12
 925              		@ sp needed
 926 00c4 90BD     		pop	{r4, r7, pc}
 927              	.L54:
 928 00c6 C046     		.align	2
 929              	.L53:
 930 00c8 00000000 		.word	heartRate.7824
 931 00cc 00000000 		.word	hrsHeartRate
 932 00d0 60EA0000 		.word	60000
 933 00d4 00000000 		.word	hrssRrIntCnt
 934 00d8 04000000 		.word	energyExpendedTimer.7823
 935 00dc 00000000 		.word	energyExpended
 936 00e0 EAFF0000 		.word	65514
 937              		.cfi_endproc
 938              	.LFE44:
ARM GAS  C:\Users\igreg\AppData\Local\Temp\cc7shsH2.s 			page 25


 939              		.size	SimulateHeartRate, .-SimulateHeartRate
 940              		.data
 941              		.align	1
 942              		.type	heartRate.7824, %object
 943              		.size	heartRate.7824, 2
 944              	heartRate.7824:
 945 0000 3C00     		.short	60
 946 0002 0000     		.align	2
 947              		.type	energyExpendedTimer.7823, %object
 948              		.size	energyExpendedTimer.7823, 4
 949              	energyExpendedTimer.7823:
 950 0004 0A000000 		.word	10
 951              		.text
 952              	.Letext0:
 953              		.file 2 "Generated_Source\\PSoC4/cytypes.h"
 954              		.file 3 "Generated_Source\\PSoC4/CYBLE_Stack.h"
 955              		.file 4 "Generated_Source\\PSoC4/CYBLE_StackGatt.h"
 956              		.file 5 "Generated_Source\\PSoC4/CYBLE_hrs.h"
 957              		.file 6 "Generated_Source\\PSoC4/CYBLE_dis.h"
 958              		.file 7 "Generated_Source\\PSoC4/CYBLE_eventHandler.h"
 959              		.file 8 ".\\hrss.h"
 960              		.file 9 ".\\common.h"