ARM GAS  C:\Users\igreg\AppData\Local\Temp\cc4qS7U1.s 			page 1


   1              		.cpu cortex-m0
   2              		.fpu softvfp
   3              		.eabi_attribute 20, 1
   4              		.eabi_attribute 21, 1
   5              		.eabi_attribute 23, 3
   6              		.eabi_attribute 24, 1
   7              		.eabi_attribute 25, 1
   8              		.eabi_attribute 26, 1
   9              		.eabi_attribute 30, 6
  10              		.eabi_attribute 34, 0
  11              		.eabi_attribute 18, 4
  12              		.code	16
  13              		.file	"main.c"
  14              		.text
  15              	.Ltext0:
  16              		.cfi_sections	.debug_frame
  17              		.global	mainTimer
  18              		.bss
  19              		.align	2
  20              		.type	mainTimer, %object
  21              		.size	mainTimer, 4
  22              	mainTimer:
  23 0000 00000000 		.space	4
  24              		.comm	apiResult,2,2
  25              		.section	.text.AppCallBack,"ax",%progbits
  26              		.align	2
  27              		.global	AppCallBack
  28              		.code	16
  29              		.thumb_func
  30              		.type	AppCallBack, %function
  31              	AppCallBack:
  32              	.LFB37:
  33              		.file 1 ".\\main.c"
   1:.\main.c      **** /*******************************************************************************
   2:.\main.c      **** * File Name: main.c
   3:.\main.c      **** *
   4:.\main.c      **** * Version 1.0
   5:.\main.c      **** *
   6:.\main.c      **** * Description:
   7:.\main.c      **** *  This project demonstrates the operation of the Heart Rate Profile
   8:.\main.c      **** *  in Server (Peripheral) role.
   9:.\main.c      **** *
  10:.\main.c      **** * Note:
  11:.\main.c      **** *
  12:.\main.c      **** * Hardware Dependency:
  13:.\main.c      **** *  CY8CKIT-042 BLE
  14:.\main.c      **** *
  15:.\main.c      **** ********************************************************************************
  16:.\main.c      **** * Copyright 2014, Cypress Semiconductor Corporation.  All rights reserved.
  17:.\main.c      **** * You may use this file only in accordance with the license, terms, conditions,
  18:.\main.c      **** * disclaimers, and limitations in the end user license agreement accompanying
  19:.\main.c      **** * the software package with which this file was provided.
  20:.\main.c      **** *******************************************************************************/
  21:.\main.c      **** 
  22:.\main.c      **** #include "hrss.h"
  23:.\main.c      **** 
  24:.\main.c      **** volatile uint32 mainTimer = 0;
ARM GAS  C:\Users\igreg\AppData\Local\Temp\cc4qS7U1.s 			page 2


  25:.\main.c      **** CYBLE_API_RESULT_T apiResult;
  26:.\main.c      **** 
  27:.\main.c      **** 
  28:.\main.c      **** /*******************************************************************************
  29:.\main.c      **** * Function Name: AppCallBack()
  30:.\main.c      **** ********************************************************************************
  31:.\main.c      **** *
  32:.\main.c      **** * Summary:
  33:.\main.c      **** *   This is an event callback function to receive events from the BLE Component.
  34:.\main.c      **** *
  35:.\main.c      **** * Parameters:
  36:.\main.c      **** *  event - the event code
  37:.\main.c      **** *  *eventParam - the event parameters
  38:.\main.c      **** *
  39:.\main.c      **** *******************************************************************************/
  40:.\main.c      **** void AppCallBack(uint32 event, void* eventParam)
  41:.\main.c      **** {
  34              		.loc 1 41 0
  35              		.cfi_startproc
  36 0000 80B5     		push	{r7, lr}
  37              		.cfi_def_cfa_offset 8
  38              		.cfi_offset 7, -8
  39              		.cfi_offset 14, -4
  40 0002 82B0     		sub	sp, sp, #8
  41              		.cfi_def_cfa_offset 16
  42 0004 00AF     		add	r7, sp, #0
  43              		.cfi_def_cfa_register 7
  44 0006 7860     		str	r0, [r7, #4]
  45 0008 3960     		str	r1, [r7]
  42:.\main.c      **** #ifdef DEBUG_OUT    
  43:.\main.c      ****     DebugOut(event, eventParam);
  46              		.loc 1 43 0
  47 000a 7A68     		ldr	r2, [r7, #4]
  48 000c 3B68     		ldr	r3, [r7]
  49 000e 101C     		mov	r0, r2
  50 0010 191C     		mov	r1, r3
  51 0012 FFF7FEFF 		bl	DebugOut
  44:.\main.c      **** #endif
  45:.\main.c      **** 
  46:.\main.c      ****     switch(event)
  52              		.loc 1 46 0
  53 0016 7B68     		ldr	r3, [r7, #4]
  54 0018 272B     		cmp	r3, #39
  55 001a 0AD0     		beq	.L3
  56 001c 282B     		cmp	r3, #40
  57 001e 02D0     		beq	.L4
  58 0020 012B     		cmp	r3, #1
  59 0022 00D0     		beq	.L4
  47:.\main.c      ****     {
  48:.\main.c      ****         case CYBLE_EVT_STACK_ON:
  49:.\main.c      ****         case CYBLE_EVT_GAP_DEVICE_DISCONNECTED:
  50:.\main.c      ****             heartRateSimulation = DISABLED;
  51:.\main.c      ****             /* Put the device into discoverable mode so that remote can search it. */
  52:.\main.c      ****             StartAdvertisement();
  53:.\main.c      ****             break;
  54:.\main.c      ****             
  55:.\main.c      ****         case CYBLE_EVT_GAP_DEVICE_CONNECTED:
ARM GAS  C:\Users\igreg\AppData\Local\Temp\cc4qS7U1.s 			page 3


  56:.\main.c      ****             Advertising_LED_Write(LED_OFF);
  57:.\main.c      ****             break;
  58:.\main.c      **** 
  59:.\main.c      ****         default:
  60:.\main.c      ****             break;
  60              		.loc 1 60 0
  61 0024 09E0     		b	.L1
  62              	.L4:
  50:.\main.c      ****             /* Put the device into discoverable mode so that remote can search it. */
  63              		.loc 1 50 0
  64 0026 064B     		ldr	r3, .L6
  65 0028 0022     		mov	r2, #0
  66 002a 1A70     		strb	r2, [r3]
  52:.\main.c      ****             break;
  67              		.loc 1 52 0
  68 002c FFF7FEFF 		bl	StartAdvertisement
  53:.\main.c      ****             
  69              		.loc 1 53 0
  70 0030 03E0     		b	.L1
  71              	.L3:
  56:.\main.c      ****             break;
  72              		.loc 1 56 0
  73 0032 0120     		mov	r0, #1
  74 0034 FFF7FEFF 		bl	Advertising_LED_Write
  57:.\main.c      **** 
  75              		.loc 1 57 0
  76 0038 C046     		mov	r8, r8
  77              	.L1:
  61:.\main.c      ****     }
  62:.\main.c      **** }
  78              		.loc 1 62 0
  79 003a BD46     		mov	sp, r7
  80 003c 02B0     		add	sp, sp, #8
  81              		@ sp needed
  82 003e 80BD     		pop	{r7, pc}
  83              	.L7:
  84              		.align	2
  85              	.L6:
  86 0040 00000000 		.word	heartRateSimulation
  87              		.cfi_endproc
  88              	.LFE37:
  89              		.size	AppCallBack, .-AppCallBack
  90              		.section	.text.Timer_Interrupt,"ax",%progbits
  91              		.align	2
  92              		.global	Timer_Interrupt
  93              		.code	16
  94              		.thumb_func
  95              		.type	Timer_Interrupt, %function
  96              	Timer_Interrupt:
  97              	.LFB38:
  63:.\main.c      **** 
  64:.\main.c      **** 
  65:.\main.c      **** /*******************************************************************************
  66:.\main.c      **** * Function Name: Timer_Interrupt
  67:.\main.c      **** ********************************************************************************
  68:.\main.c      **** *
  69:.\main.c      **** * Summary:
ARM GAS  C:\Users\igreg\AppData\Local\Temp\cc4qS7U1.s 			page 4


  70:.\main.c      **** *  Handles the Interrupt Service Routine for the WDT timer.
  71:.\main.c      **** *  It is called from common WDT ISR located in BLE component. 
  72:.\main.c      **** *
  73:.\main.c      **** *******************************************************************************/
  74:.\main.c      **** void Timer_Interrupt(void)
  75:.\main.c      **** {
  98              		.loc 1 75 0
  99              		.cfi_startproc
 100 0000 80B5     		push	{r7, lr}
 101              		.cfi_def_cfa_offset 8
 102              		.cfi_offset 7, -8
 103              		.cfi_offset 14, -4
 104 0002 00AF     		add	r7, sp, #0
 105              		.cfi_def_cfa_register 7
  76:.\main.c      ****     if(CySysWdtGetInterruptSource() & WDT_INTERRUPT_SOURCE)
 106              		.loc 1 76 0
 107 0004 FFF7FEFF 		bl	CySysWdtGetInterruptSource
 108 0008 021C     		mov	r2, r0
 109 000a 8023     		mov	r3, #128
 110 000c DB00     		lsl	r3, r3, #3
 111 000e 1340     		and	r3, r2
 112 0010 19D0     		beq	.L8
 113              	.LBB2:
  77:.\main.c      ****     {
  78:.\main.c      ****         static uint8 led = LED_OFF;
  79:.\main.c      ****         
  80:.\main.c      ****         /* Blink LED to indicate that device advertises */
  81:.\main.c      ****         if(CYBLE_STATE_ADVERTISING == CyBle_GetState())
 114              		.loc 1 81 0
 115 0012 0E4B     		ldr	r3, .L11
 116 0014 1B78     		ldrb	r3, [r3]
 117 0016 032B     		cmp	r3, #3
 118 0018 0BD1     		bne	.L10
  82:.\main.c      ****         {
  83:.\main.c      ****             led ^= LED_OFF;
 119              		.loc 1 83 0
 120 001a 0D4B     		ldr	r3, .L11+4
 121 001c 1B78     		ldrb	r3, [r3]
 122 001e 0122     		mov	r2, #1
 123 0020 5340     		eor	r3, r2
 124 0022 DAB2     		uxtb	r2, r3
 125 0024 0A4B     		ldr	r3, .L11+4
 126 0026 1A70     		strb	r2, [r3]
  84:.\main.c      ****             Advertising_LED_Write(led);
 127              		.loc 1 84 0
 128 0028 094B     		ldr	r3, .L11+4
 129 002a 1B78     		ldrb	r3, [r3]
 130 002c 181C     		mov	r0, r3
 131 002e FFF7FEFF 		bl	Advertising_LED_Write
 132              	.L10:
  85:.\main.c      ****         }
  86:.\main.c      ****         
  87:.\main.c      ****         /* Indicate that timer is raised to the main loop */
  88:.\main.c      ****         mainTimer++;
 133              		.loc 1 88 0
 134 0032 084B     		ldr	r3, .L11+8
 135 0034 1B68     		ldr	r3, [r3]
ARM GAS  C:\Users\igreg\AppData\Local\Temp\cc4qS7U1.s 			page 5


 136 0036 5A1C     		add	r2, r3, #1
 137 0038 064B     		ldr	r3, .L11+8
 138 003a 1A60     		str	r2, [r3]
  89:.\main.c      ****         
  90:.\main.c      ****         /* Clears interrupt request  */
  91:.\main.c      ****         CySysWdtClearInterrupt(WDT_INTERRUPT_SOURCE);
 139              		.loc 1 91 0
 140 003c 8023     		mov	r3, #128
 141 003e DB00     		lsl	r3, r3, #3
 142 0040 181C     		mov	r0, r3
 143 0042 FFF7FEFF 		bl	CySysWdtClearInterrupt
 144              	.L8:
 145              	.LBE2:
  92:.\main.c      ****     }
  93:.\main.c      **** }
 146              		.loc 1 93 0
 147 0046 BD46     		mov	sp, r7
 148              		@ sp needed
 149 0048 80BD     		pop	{r7, pc}
 150              	.L12:
 151 004a C046     		.align	2
 152              	.L11:
 153 004c 00000000 		.word	cyBle_state
 154 0050 00000000 		.word	led.7790
 155 0054 00000000 		.word	mainTimer
 156              		.cfi_endproc
 157              	.LFE38:
 158              		.size	Timer_Interrupt, .-Timer_Interrupt
 159              		.section	.text.WDT_Start,"ax",%progbits
 160              		.align	2
 161              		.global	WDT_Start
 162              		.code	16
 163              		.thumb_func
 164              		.type	WDT_Start, %function
 165              	WDT_Start:
 166              	.LFB39:
  94:.\main.c      **** 
  95:.\main.c      **** /*******************************************************************************
  96:.\main.c      **** * Function Name: WDT_Start
  97:.\main.c      **** ********************************************************************************
  98:.\main.c      **** *
  99:.\main.c      **** * Summary:
 100:.\main.c      **** *  Configures WDT(counter 2) to trigger an interrupt every second.
 101:.\main.c      **** *
 102:.\main.c      **** *******************************************************************************/
 103:.\main.c      **** 
 104:.\main.c      **** void WDT_Start(void)
 105:.\main.c      **** {
 167              		.loc 1 105 0
 168              		.cfi_startproc
 169 0000 80B5     		push	{r7, lr}
 170              		.cfi_def_cfa_offset 8
 171              		.cfi_offset 7, -8
 172              		.cfi_offset 14, -4
 173 0002 00AF     		add	r7, sp, #0
 174              		.cfi_def_cfa_register 7
 106:.\main.c      ****     /* Unlock the WDT registers for modification */
ARM GAS  C:\Users\igreg\AppData\Local\Temp\cc4qS7U1.s 			page 6


 107:.\main.c      ****     CySysWdtUnlock(); 
 175              		.loc 1 107 0
 176 0004 FFF7FEFF 		bl	CySysWdtUnlock
 108:.\main.c      ****     /* Setup ISR callback */
 109:.\main.c      ****     WdtIsr_StartEx(Timer_Interrupt);
 177              		.loc 1 109 0
 178 0008 0E4B     		ldr	r3, .L14
 179 000a 181C     		mov	r0, r3
 180 000c FFF7FEFF 		bl	WdtIsr_StartEx
 110:.\main.c      ****     /* Write the mode to generate interrupt on match */
 111:.\main.c      ****     CySysWdtWriteMode(WDT_COUNTER, CY_SYS_WDT_MODE_INT);
 181              		.loc 1 111 0
 182 0010 0120     		mov	r0, #1
 183 0012 0121     		mov	r1, #1
 184 0014 FFF7FEFF 		bl	CySysWdtSetMode
 112:.\main.c      ****     /* Configure the WDT counter clear on a match setting */
 113:.\main.c      ****     CySysWdtWriteClearOnMatch(WDT_COUNTER, WDT_COUNTER_ENABLE);
 185              		.loc 1 113 0
 186 0018 0120     		mov	r0, #1
 187 001a 0121     		mov	r1, #1
 188 001c FFF7FEFF 		bl	CySysWdtSetClearOnMatch
 114:.\main.c      ****     /* Configure the WDT counter match comparison value */
 115:.\main.c      ****     CySysWdtWriteMatch(WDT_COUNTER, WDT_1SEC);
 189              		.loc 1 115 0
 190 0020 094B     		ldr	r3, .L14+4
 191 0022 0120     		mov	r0, #1
 192 0024 191C     		mov	r1, r3
 193 0026 FFF7FEFF 		bl	CySysWdtSetMatch
 116:.\main.c      ****     /* Reset WDT counter */
 117:.\main.c      ****     CySysWdtResetCounters(WDT_COUNTER);
 194              		.loc 1 117 0
 195 002a 0120     		mov	r0, #1
 196 002c FFF7FEFF 		bl	CySysWdtResetCounters
 118:.\main.c      ****     /* Enable the specified WDT counter */
 119:.\main.c      ****     CySysWdtEnable(WDT_COUNTER_MASK);
 197              		.loc 1 119 0
 198 0030 8023     		mov	r3, #128
 199 0032 5B00     		lsl	r3, r3, #1
 200 0034 181C     		mov	r0, r3
 201 0036 FFF7FEFF 		bl	CySysWdtEnable
 120:.\main.c      ****     /* Lock out configuration changes to the Watchdog timer registers */
 121:.\main.c      ****     CySysWdtLock();    
 202              		.loc 1 121 0
 203 003a FFF7FEFF 		bl	CySysWdtLock
 122:.\main.c      **** }
 204              		.loc 1 122 0
 205 003e BD46     		mov	sp, r7
 206              		@ sp needed
 207 0040 80BD     		pop	{r7, pc}
 208              	.L15:
 209 0042 C046     		.align	2
 210              	.L14:
 211 0044 00000000 		.word	Timer_Interrupt
 212 0048 FF7F0000 		.word	32767
 213              		.cfi_endproc
 214              	.LFE39:
 215              		.size	WDT_Start, .-WDT_Start
ARM GAS  C:\Users\igreg\AppData\Local\Temp\cc4qS7U1.s 			page 7


 216              		.section	.rodata
 217              		.align	2
 218              	.LC5:
 219 0000 424C4520 		.ascii	"BLE Heart Rate Sensor Example Project \015\000"
 219      48656172 
 219      74205261 
 219      74652053 
 219      656E736F 
 220              		.align	2
 221              	.LC9:
 222 0028 4379426C 		.ascii	"CyBle_Start API Error: %x \015\012\000"
 222      655F5374 
 222      61727420 
 222      41504920 
 222      4572726F 
 223 0045 000000   		.align	2
 224              	.LC11:
 225 0048 4379426C 		.ascii	"CyBle_GetStackLibraryVersion API Error: 0x%x \015\012"
 225      655F4765 
 225      74537461 
 225      636B4C69 
 225      62726172 
 226 0077 00       		.ascii	"\000"
 227              		.align	2
 228              	.LC13:
 229 0078 53746163 		.ascii	"Stack Version: %d.%d.%d.%d \015\012\000"
 229      6B205665 
 229      7273696F 
 229      6E3A2025 
 229      642E2564 
 230 0096 0000     		.section	.text.main,"ax",%progbits
 231              		.align	2
 232              		.global	main
 233              		.code	16
 234              		.thumb_func
 235              		.type	main, %function
 236              	main:
 237              	.LFB40:
 123:.\main.c      **** 
 124:.\main.c      **** 
 125:.\main.c      **** int main()
 126:.\main.c      **** {
 238              		.loc 1 126 0
 239              		.cfi_startproc
 240 0000 B0B5     		push	{r4, r5, r7, lr}
 241              		.cfi_def_cfa_offset 16
 242              		.cfi_offset 4, -16
 243              		.cfi_offset 5, -12
 244              		.cfi_offset 7, -8
 245              		.cfi_offset 14, -4
 246 0002 84B0     		sub	sp, sp, #16
 247              		.cfi_def_cfa_offset 32
 248 0004 02AF     		add	r7, sp, #8
 249              		.cfi_def_cfa 7, 24
 127:.\main.c      ****     CYBLE_STACK_LIB_VERSION_T stackVersion;
 128:.\main.c      **** 
 129:.\main.c      ****     CyGlobalIntEnable;
ARM GAS  C:\Users\igreg\AppData\Local\Temp\cc4qS7U1.s 			page 8


 250              		.loc 1 129 0
 251              	@ 129 ".\main.c" 1
 252 0006 62B6     		CPSIE   i
 253              	@ 0 "" 2
 130:.\main.c      ****     
 131:.\main.c      ****     UART_DEB_Start();               /* Start communication component */
 254              		.loc 1 131 0
 255              		.code	16
 256 0008 FFF7FEFF 		bl	UART_DEB_Start
 132:.\main.c      ****     printf("BLE Heart Rate Sensor Example Project \r\n");
 257              		.loc 1 132 0
 258 000c 2E4B     		ldr	r3, .L22
 259 000e 181C     		mov	r0, r3
 260 0010 FFF7FEFF 		bl	puts
 133:.\main.c      ****     
 134:.\main.c      ****     Disconnect_LED_Write(LED_OFF);
 261              		.loc 1 134 0
 262 0014 0120     		mov	r0, #1
 263 0016 FFF7FEFF 		bl	Disconnect_LED_Write
 135:.\main.c      ****     Advertising_LED_Write(LED_OFF);
 264              		.loc 1 135 0
 265 001a 0120     		mov	r0, #1
 266 001c FFF7FEFF 		bl	Advertising_LED_Write
 136:.\main.c      **** 
 137:.\main.c      ****     /* Start CYBLE component and register generic event handler */
 138:.\main.c      ****     apiResult = CyBle_Start(AppCallBack);
 267              		.loc 1 138 0
 268 0020 2A4B     		ldr	r3, .L22+4
 269 0022 181C     		mov	r0, r3
 270 0024 FFF7FEFF 		bl	CyBle_Start
 271 0028 031C     		mov	r3, r0
 272 002a 1A1C     		mov	r2, r3
 273 002c 284B     		ldr	r3, .L22+8
 274 002e 1A80     		strh	r2, [r3]
 139:.\main.c      ****     if(apiResult != CYBLE_ERROR_OK)
 275              		.loc 1 139 0
 276 0030 274B     		ldr	r3, .L22+8
 277 0032 1B88     		ldrh	r3, [r3]
 278 0034 002B     		cmp	r3, #0
 279 0036 07D0     		beq	.L17
 140:.\main.c      ****     {
 141:.\main.c      ****         printf("CyBle_Start API Error: %x \r\n", apiResult);
 280              		.loc 1 141 0
 281 0038 254B     		ldr	r3, .L22+8
 282 003a 1B88     		ldrh	r3, [r3]
 283 003c 1A1C     		mov	r2, r3
 284 003e 254B     		ldr	r3, .L22+12
 285 0040 181C     		mov	r0, r3
 286 0042 111C     		mov	r1, r2
 287 0044 FFF7FEFF 		bl	printf
 288              	.L17:
 142:.\main.c      ****     }
 143:.\main.c      ****     
 144:.\main.c      ****     apiResult = CyBle_GetStackLibraryVersion(&stackVersion);
 289              		.loc 1 144 0
 290 0048 3B1D     		add	r3, r7, #4
 291 004a 181C     		mov	r0, r3
ARM GAS  C:\Users\igreg\AppData\Local\Temp\cc4qS7U1.s 			page 9


 292 004c FFF7FEFF 		bl	CyBle_GetStackLibraryVersion
 293 0050 031C     		mov	r3, r0
 294 0052 1A1C     		mov	r2, r3
 295 0054 1E4B     		ldr	r3, .L22+8
 296 0056 1A80     		strh	r2, [r3]
 145:.\main.c      ****     if(apiResult != CYBLE_ERROR_OK)
 297              		.loc 1 145 0
 298 0058 1D4B     		ldr	r3, .L22+8
 299 005a 1B88     		ldrh	r3, [r3]
 300 005c 002B     		cmp	r3, #0
 301 005e 08D0     		beq	.L18
 146:.\main.c      ****     {
 147:.\main.c      ****         printf("CyBle_GetStackLibraryVersion API Error: 0x%x \r\n", apiResult);
 302              		.loc 1 147 0
 303 0060 1B4B     		ldr	r3, .L22+8
 304 0062 1B88     		ldrh	r3, [r3]
 305 0064 1A1C     		mov	r2, r3
 306 0066 1C4B     		ldr	r3, .L22+16
 307 0068 181C     		mov	r0, r3
 308 006a 111C     		mov	r1, r2
 309 006c FFF7FEFF 		bl	printf
 310 0070 12E0     		b	.L19
 311              	.L18:
 148:.\main.c      ****     }
 149:.\main.c      ****     else
 150:.\main.c      ****     {
 151:.\main.c      ****         printf("Stack Version: %d.%d.%d.%d \r\n", stackVersion.majorVersion, 
 312              		.loc 1 151 0
 313 0072 3B1D     		add	r3, r7, #4
 314 0074 1B78     		ldrb	r3, [r3]
 315 0076 191C     		mov	r1, r3
 152:.\main.c      ****             stackVersion.minorVersion, stackVersion.patch, stackVersion.buildNumber);
 316              		.loc 1 152 0
 317 0078 3B1D     		add	r3, r7, #4
 318 007a 5B78     		ldrb	r3, [r3, #1]
 151:.\main.c      ****             stackVersion.minorVersion, stackVersion.patch, stackVersion.buildNumber);
 319              		.loc 1 151 0
 320 007c 1D1C     		mov	r5, r3
 321              		.loc 1 152 0
 322 007e 3B1D     		add	r3, r7, #4
 323 0080 9B78     		ldrb	r3, [r3, #2]
 151:.\main.c      ****             stackVersion.minorVersion, stackVersion.patch, stackVersion.buildNumber);
 324              		.loc 1 151 0
 325 0082 1C1C     		mov	r4, r3
 326              		.loc 1 152 0
 327 0084 3B1D     		add	r3, r7, #4
 328 0086 DB78     		ldrb	r3, [r3, #3]
 151:.\main.c      ****             stackVersion.minorVersion, stackVersion.patch, stackVersion.buildNumber);
 329              		.loc 1 151 0
 330 0088 1A1C     		mov	r2, r3
 331 008a 144B     		ldr	r3, .L22+20
 332 008c 0092     		str	r2, [sp]
 333 008e 181C     		mov	r0, r3
 334 0090 2A1C     		mov	r2, r5
 335 0092 231C     		mov	r3, r4
 336 0094 FFF7FEFF 		bl	printf
 337              	.L19:
ARM GAS  C:\Users\igreg\AppData\Local\Temp\cc4qS7U1.s 			page 10


 153:.\main.c      ****     }
 154:.\main.c      ****     
 155:.\main.c      ****     /* Services initialization */
 156:.\main.c      ****     HrsInit();
 338              		.loc 1 156 0
 339 0098 FFF7FEFF 		bl	HrsInit
 157:.\main.c      ****     
 158:.\main.c      ****     WDT_Start();
 340              		.loc 1 158 0
 341 009c FFF7FEFF 		bl	WDT_Start
 342              	.L21:
 159:.\main.c      ****     
 160:.\main.c      ****     /***************************************************************************
 161:.\main.c      ****     * Main polling loop
 162:.\main.c      ****     ***************************************************************************/
 163:.\main.c      ****     while(1)
 164:.\main.c      ****     {        
 165:.\main.c      ****         /***********************************************************************
 166:.\main.c      ****         * Wait for connection established with Central device
 167:.\main.c      ****         ***********************************************************************/
 168:.\main.c      ****         if(CyBle_GetState() == CYBLE_STATE_CONNECTED)
 343              		.loc 1 168 0
 344 00a0 0F4B     		ldr	r3, .L22+24
 345 00a2 1B78     		ldrb	r3, [r3]
 346 00a4 022B     		cmp	r3, #2
 347 00a6 0CD1     		bne	.L20
 169:.\main.c      ****         {
 170:.\main.c      ****             /*******************************************************************
 171:.\main.c      ****             *  Periodically simulate heart rate and measure a battery level 
 172:.\main.c      ****             *  and send results to the Client
 173:.\main.c      ****             *******************************************************************/        
 174:.\main.c      ****             if(mainTimer != 0u)
 348              		.loc 1 174 0
 349 00a8 0E4B     		ldr	r3, .L22+28
 350 00aa 1B68     		ldr	r3, [r3]
 351 00ac 002B     		cmp	r3, #0
 352 00ae 08D0     		beq	.L20
 175:.\main.c      ****             {
 176:.\main.c      ****                 mainTimer = 0u;
 353              		.loc 1 176 0
 354 00b0 0C4B     		ldr	r3, .L22+28
 355 00b2 0022     		mov	r2, #0
 356 00b4 1A60     		str	r2, [r3]
 177:.\main.c      ****                 if(heartRateSimulation == ENABLED)
 357              		.loc 1 177 0
 358 00b6 0C4B     		ldr	r3, .L22+32
 359 00b8 1B78     		ldrb	r3, [r3]
 360 00ba 012B     		cmp	r3, #1
 361 00bc 01D1     		bne	.L20
 178:.\main.c      ****                 {
 179:.\main.c      ****                     SimulateHeartRate();
 362              		.loc 1 179 0
 363 00be FFF7FEFF 		bl	SimulateHeartRate
 364              	.L20:
 180:.\main.c      ****                 }
 181:.\main.c      ****             }
 182:.\main.c      ****         }
ARM GAS  C:\Users\igreg\AppData\Local\Temp\cc4qS7U1.s 			page 11


 183:.\main.c      ****         
 184:.\main.c      ****         /*******************************************************************
 185:.\main.c      ****         *  Process all pending BLE events in the stack
 186:.\main.c      ****         *******************************************************************/
 187:.\main.c      ****         CyBle_ProcessEvents();
 365              		.loc 1 187 0
 366 00c2 FFF7FEFF 		bl	CyBle_ProcessEvents
 188:.\main.c      ****     }
 367              		.loc 1 188 0
 368 00c6 EBE7     		b	.L21
 369              	.L23:
 370              		.align	2
 371              	.L22:
 372 00c8 00000000 		.word	.LC5
 373 00cc 00000000 		.word	AppCallBack
 374 00d0 00000000 		.word	apiResult
 375 00d4 28000000 		.word	.LC9
 376 00d8 48000000 		.word	.LC11
 377 00dc 78000000 		.word	.LC13
 378 00e0 00000000 		.word	cyBle_state
 379 00e4 00000000 		.word	mainTimer
 380 00e8 00000000 		.word	heartRateSimulation
 381              		.cfi_endproc
 382              	.LFE40:
 383              		.size	main, .-main
 384              		.data
 385              		.type	led.7790, %object
 386              		.size	led.7790, 1
 387              	led.7790:
 388 0000 01       		.byte	1
 389              		.text
 390              	.Letext0:
 391              		.file 2 "Generated_Source\\PSoC4/cytypes.h"
 392              		.file 3 "Generated_Source\\PSoC4/CYBLE_Stack.h"
 393              		.file 4 "Generated_Source\\PSoC4/CYBLE_hrs.h"
 394              		.file 5 "Generated_Source\\PSoC4/CYBLE_dis.h"
 395              		.file 6 "Generated_Source\\PSoC4/CYBLE_eventHandler.h"
 396              		.file 7 ".\\hrss.h"