ARM GAS  C:\Users\igreg\AppData\Local\Temp\cc6zyZbe.s 			page 1


   1              		.cpu cortex-m0
   2              		.fpu softvfp
   3              		.eabi_attribute 20, 1
   4              		.eabi_attribute 21, 1
   5              		.eabi_attribute 23, 3
   6              		.eabi_attribute 24, 1
   7              		.eabi_attribute 25, 1
   8              		.eabi_attribute 26, 1
   9              		.eabi_attribute 30, 6
  10              		.eabi_attribute 34, 0
  11              		.eabi_attribute 18, 4
  12              		.code	16
  13              		.file	"BLE_ias.c"
  14              		.text
  15              	.Ltext0:
  16              		.cfi_sections	.debug_frame
  17              		.bss
  18              		.align	2
  19              	CyBle_IasApplCallback:
  20 0000 00000000 		.space	4
  21              		.global	cyBle_iass
  22              		.section	.rodata
  23              		.align	2
  24              		.type	cyBle_iass, %object
  25              		.size	cyBle_iass, 4
  26              	cyBle_iass:
  27 0000 0C00     		.short	12
  28 0002 0E00     		.short	14
  29              		.section	.text.CyBle_IasInit,"ax",%progbits
  30              		.align	2
  31              		.global	CyBle_IasInit
  32              		.code	16
  33              		.thumb_func
  34              		.type	CyBle_IasInit, %function
  35              	CyBle_IasInit:
  36              	.LFB2:
  37              		.file 1 ".\\Generated_Source\\PSoC4\\BLE_ias.c"
   1:.\Generated_Source\PSoC4/BLE_ias.c **** /***************************************************************************//**
   2:.\Generated_Source\PSoC4/BLE_ias.c **** * \file CYBLE_ias.c
   3:.\Generated_Source\PSoC4/BLE_ias.c **** * \version 3.0
   4:.\Generated_Source\PSoC4/BLE_ias.c **** * 
   5:.\Generated_Source\PSoC4/BLE_ias.c **** * \brief
   6:.\Generated_Source\PSoC4/BLE_ias.c **** *  This file contains the source code for the Immediate Alert Service of the BLE
   7:.\Generated_Source\PSoC4/BLE_ias.c **** *  Component.
   8:.\Generated_Source\PSoC4/BLE_ias.c **** * 
   9:.\Generated_Source\PSoC4/BLE_ias.c **** ********************************************************************************
  10:.\Generated_Source\PSoC4/BLE_ias.c **** * \copyright
  11:.\Generated_Source\PSoC4/BLE_ias.c **** * Copyright 2014-2015, Cypress Semiconductor Corporation.  All rights reserved.
  12:.\Generated_Source\PSoC4/BLE_ias.c **** * You may use this file only in accordance with the license, terms, conditions,
  13:.\Generated_Source\PSoC4/BLE_ias.c **** * disclaimers, and limitations in the end user license agreement accompanying
  14:.\Generated_Source\PSoC4/BLE_ias.c **** * the software package with which this file was provided.
  15:.\Generated_Source\PSoC4/BLE_ias.c **** *******************************************************************************/
  16:.\Generated_Source\PSoC4/BLE_ias.c **** 
  17:.\Generated_Source\PSoC4/BLE_ias.c **** 
  18:.\Generated_Source\PSoC4/BLE_ias.c **** #include "BLE_eventHandler.h"
  19:.\Generated_Source\PSoC4/BLE_ias.c **** 
  20:.\Generated_Source\PSoC4/BLE_ias.c **** 
ARM GAS  C:\Users\igreg\AppData\Local\Temp\cc6zyZbe.s 			page 2


  21:.\Generated_Source\PSoC4/BLE_ias.c **** #ifdef CYBLE_IAS_SERVER
  22:.\Generated_Source\PSoC4/BLE_ias.c **** 
  23:.\Generated_Source\PSoC4/BLE_ias.c **** static CYBLE_CALLBACK_T CyBle_IasApplCallback = NULL;
  24:.\Generated_Source\PSoC4/BLE_ias.c **** 
  25:.\Generated_Source\PSoC4/BLE_ias.c **** #endif /* CYBLE_IAS_SERVER */
  26:.\Generated_Source\PSoC4/BLE_ias.c **** 
  27:.\Generated_Source\PSoC4/BLE_ias.c **** #ifdef CYBLE_IAS_SERVER
  28:.\Generated_Source\PSoC4/BLE_ias.c **** 
  29:.\Generated_Source\PSoC4/BLE_ias.c **** const CYBLE_IASS_T cyBle_iass =
  30:.\Generated_Source\PSoC4/BLE_ias.c **** {
  31:.\Generated_Source\PSoC4/BLE_ias.c ****     0x000Cu,    /* Handle of the IAS service */
  32:.\Generated_Source\PSoC4/BLE_ias.c ****     0x000Eu,    /* Handle of the Alert Level characteristic */
  33:.\Generated_Source\PSoC4/BLE_ias.c **** };
  34:.\Generated_Source\PSoC4/BLE_ias.c **** 
  35:.\Generated_Source\PSoC4/BLE_ias.c **** #endif /* (CYBLE_IAS_SERVER) */
  36:.\Generated_Source\PSoC4/BLE_ias.c **** 
  37:.\Generated_Source\PSoC4/BLE_ias.c **** #ifdef CYBLE_IAS_CLIENT
  38:.\Generated_Source\PSoC4/BLE_ias.c **** 
  39:.\Generated_Source\PSoC4/BLE_ias.c **** CYBLE_IASC_T cyBle_iasc;
  40:.\Generated_Source\PSoC4/BLE_ias.c **** 
  41:.\Generated_Source\PSoC4/BLE_ias.c **** #endif /* (CYBLE_IAS_CLIENT) */
  42:.\Generated_Source\PSoC4/BLE_ias.c **** 
  43:.\Generated_Source\PSoC4/BLE_ias.c **** 
  44:.\Generated_Source\PSoC4/BLE_ias.c **** /****************************************************************************** 
  45:.\Generated_Source\PSoC4/BLE_ias.c **** * Function Name: CyBle_IasInit
  46:.\Generated_Source\PSoC4/BLE_ias.c **** ***************************************************************************//**
  47:.\Generated_Source\PSoC4/BLE_ias.c **** * 
  48:.\Generated_Source\PSoC4/BLE_ias.c **** *  This function initializes the Immediate Alert Service.
  49:.\Generated_Source\PSoC4/BLE_ias.c **** * 
  50:.\Generated_Source\PSoC4/BLE_ias.c **** * \return
  51:.\Generated_Source\PSoC4/BLE_ias.c **** *  None
  52:.\Generated_Source\PSoC4/BLE_ias.c **** * 
  53:.\Generated_Source\PSoC4/BLE_ias.c **** ******************************************************************************/
  54:.\Generated_Source\PSoC4/BLE_ias.c **** void CyBle_IasInit(void)
  55:.\Generated_Source\PSoC4/BLE_ias.c **** {
  38              		.loc 1 55 0
  39              		.cfi_startproc
  40 0000 80B5     		push	{r7, lr}
  41              		.cfi_def_cfa_offset 8
  42              		.cfi_offset 7, -8
  43              		.cfi_offset 14, -4
  44 0002 00AF     		add	r7, sp, #0
  45              		.cfi_def_cfa_register 7
  56:.\Generated_Source\PSoC4/BLE_ias.c **** #ifdef CYBLE_IAS_CLIENT
  57:.\Generated_Source\PSoC4/BLE_ias.c **** 
  58:.\Generated_Source\PSoC4/BLE_ias.c ****     if(cyBle_serverInfo[CYBLE_SRVI_IAS].range.startHandle == CYBLE_GATT_INVALID_ATTR_HANDLE_VALUE)
  59:.\Generated_Source\PSoC4/BLE_ias.c ****     {
  60:.\Generated_Source\PSoC4/BLE_ias.c ****         cyBle_iasc.alertLevelChar.valueHandle = CYBLE_GATT_INVALID_ATTR_HANDLE_VALUE;
  61:.\Generated_Source\PSoC4/BLE_ias.c ****     }
  62:.\Generated_Source\PSoC4/BLE_ias.c **** 
  63:.\Generated_Source\PSoC4/BLE_ias.c **** #endif /* (CYBLE_IAS_CLIENT) */
  64:.\Generated_Source\PSoC4/BLE_ias.c **** }
  46              		.loc 1 64 0
  47 0004 BD46     		mov	sp, r7
  48              		@ sp needed
  49 0006 80BD     		pop	{r7, pc}
  50              		.cfi_endproc
ARM GAS  C:\Users\igreg\AppData\Local\Temp\cc6zyZbe.s 			page 3


  51              	.LFE2:
  52              		.size	CyBle_IasInit, .-CyBle_IasInit
  53              		.section	.text.CyBle_IasRegisterAttrCallback,"ax",%progbits
  54              		.align	2
  55              		.global	CyBle_IasRegisterAttrCallback
  56              		.code	16
  57              		.thumb_func
  58              		.type	CyBle_IasRegisterAttrCallback, %function
  59              	CyBle_IasRegisterAttrCallback:
  60              	.LFB3:
  65:.\Generated_Source\PSoC4/BLE_ias.c **** 
  66:.\Generated_Source\PSoC4/BLE_ias.c **** 
  67:.\Generated_Source\PSoC4/BLE_ias.c **** #ifdef CYBLE_IAS_SERVER
  68:.\Generated_Source\PSoC4/BLE_ias.c **** 
  69:.\Generated_Source\PSoC4/BLE_ias.c **** /****************************************************************************** 
  70:.\Generated_Source\PSoC4/BLE_ias.c **** * Function Name: CyBle_IasRegisterAttrCallback
  71:.\Generated_Source\PSoC4/BLE_ias.c **** ***************************************************************************//**
  72:.\Generated_Source\PSoC4/BLE_ias.c **** * 
  73:.\Generated_Source\PSoC4/BLE_ias.c **** *  Registers callback function for service specific attribute operations.
  74:.\Generated_Source\PSoC4/BLE_ias.c **** *  Service specific write requests from peer device will not be handled with
  75:.\Generated_Source\PSoC4/BLE_ias.c **** *  unregistered callback function.
  76:.\Generated_Source\PSoC4/BLE_ias.c **** * 
  77:.\Generated_Source\PSoC4/BLE_ias.c **** *  \param callbackFunc: An application layer event callback function to receive 
  78:.\Generated_Source\PSoC4/BLE_ias.c **** *                     events from the BLE Component. The definition of 
  79:.\Generated_Source\PSoC4/BLE_ias.c **** *                     CYBLE_CALLBACK_T for IAS Service is: \n
  80:.\Generated_Source\PSoC4/BLE_ias.c **** *                     typedef void (* CYBLE_CALLBACK_T) (uint32 eventCode, 
  81:.\Generated_Source\PSoC4/BLE_ias.c **** *                                                        void *eventParam)
  82:.\Generated_Source\PSoC4/BLE_ias.c **** *                     * eventCode indicates the event that triggered this 
  83:.\Generated_Source\PSoC4/BLE_ias.c **** *                       callback (e.g. CYBLE_EVT_IASS_NOTIFICATION_ENABLED).
  84:.\Generated_Source\PSoC4/BLE_ias.c **** *                     * eventParam contains the parameters corresponding to the 
  85:.\Generated_Source\PSoC4/BLE_ias.c **** *                       current event. (e.g. pointer to CYBLE_IAS_CHAR_VALUE_T
  86:.\Generated_Source\PSoC4/BLE_ias.c **** *                       structure that contains details of the characteristic 
  87:.\Generated_Source\PSoC4/BLE_ias.c **** *                       for which notification enabled event was triggered).
  88:.\Generated_Source\PSoC4/BLE_ias.c **** *
  89:.\Generated_Source\PSoC4/BLE_ias.c **** * \return
  90:.\Generated_Source\PSoC4/BLE_ias.c **** *  None
  91:.\Generated_Source\PSoC4/BLE_ias.c **** *
  92:.\Generated_Source\PSoC4/BLE_ias.c **** * \events
  93:.\Generated_Source\PSoC4/BLE_ias.c **** *  None
  94:.\Generated_Source\PSoC4/BLE_ias.c **** *
  95:.\Generated_Source\PSoC4/BLE_ias.c **** * \sideeffect
  96:.\Generated_Source\PSoC4/BLE_ias.c **** *  The *eventParams in the callback function should not be used by the
  97:.\Generated_Source\PSoC4/BLE_ias.c **** *  application once the callback function execution is finished. Otherwise 
  98:.\Generated_Source\PSoC4/BLE_ias.c **** *  this data may become corrupted.\n
  99:.\Generated_Source\PSoC4/BLE_ias.c **** *  <b>Note</b>:
 100:.\Generated_Source\PSoC4/BLE_ias.c **** *  IAS only has events for the GATT server. There are no events for the GATT 
 101:.\Generated_Source\PSoC4/BLE_ias.c **** *  client since the client sends data without waiting for response. Therefore 
 102:.\Generated_Source\PSoC4/BLE_ias.c **** *  there is no need to register a callback through CyBle_IasRegisterAttrCallback
 103:.\Generated_Source\PSoC4/BLE_ias.c **** *  for an IAS GATT client.
 104:.\Generated_Source\PSoC4/BLE_ias.c **** * 
 105:.\Generated_Source\PSoC4/BLE_ias.c **** ******************************************************************************/
 106:.\Generated_Source\PSoC4/BLE_ias.c **** void CyBle_IasRegisterAttrCallback(CYBLE_CALLBACK_T callbackFunc)
 107:.\Generated_Source\PSoC4/BLE_ias.c **** {
  61              		.loc 1 107 0
  62              		.cfi_startproc
  63 0000 80B5     		push	{r7, lr}
  64              		.cfi_def_cfa_offset 8
ARM GAS  C:\Users\igreg\AppData\Local\Temp\cc6zyZbe.s 			page 4


  65              		.cfi_offset 7, -8
  66              		.cfi_offset 14, -4
  67 0002 82B0     		sub	sp, sp, #8
  68              		.cfi_def_cfa_offset 16
  69 0004 00AF     		add	r7, sp, #0
  70              		.cfi_def_cfa_register 7
  71 0006 7860     		str	r0, [r7, #4]
 108:.\Generated_Source\PSoC4/BLE_ias.c ****     CyBle_IasApplCallback = callbackFunc;
  72              		.loc 1 108 0
  73 0008 024B     		ldr	r3, .L3
  74 000a 7A68     		ldr	r2, [r7, #4]
  75 000c 1A60     		str	r2, [r3]
 109:.\Generated_Source\PSoC4/BLE_ias.c **** }
  76              		.loc 1 109 0
  77 000e BD46     		mov	sp, r7
  78 0010 02B0     		add	sp, sp, #8
  79              		@ sp needed
  80 0012 80BD     		pop	{r7, pc}
  81              	.L4:
  82              		.align	2
  83              	.L3:
  84 0014 00000000 		.word	CyBle_IasApplCallback
  85              		.cfi_endproc
  86              	.LFE3:
  87              		.size	CyBle_IasRegisterAttrCallback, .-CyBle_IasRegisterAttrCallback
  88              		.section	.text.CyBle_IassDisconnectEventHandler,"ax",%progbits
  89              		.align	2
  90              		.global	CyBle_IassDisconnectEventHandler
  91              		.code	16
  92              		.thumb_func
  93              		.type	CyBle_IassDisconnectEventHandler, %function
  94              	CyBle_IassDisconnectEventHandler:
  95              	.LFB4:
 110:.\Generated_Source\PSoC4/BLE_ias.c **** 
 111:.\Generated_Source\PSoC4/BLE_ias.c **** 
 112:.\Generated_Source\PSoC4/BLE_ias.c **** /****************************************************************************** 
 113:.\Generated_Source\PSoC4/BLE_ias.c **** * Function Name: CyBle_IassDisconnectEventHandler
 114:.\Generated_Source\PSoC4/BLE_ias.c **** ***************************************************************************//**
 115:.\Generated_Source\PSoC4/BLE_ias.c **** * 
 116:.\Generated_Source\PSoC4/BLE_ias.c **** *  Handles the Disconnection Indication Event for the Immediate Alert service.
 117:.\Generated_Source\PSoC4/BLE_ias.c **** * 
 118:.\Generated_Source\PSoC4/BLE_ias.c **** * \return
 119:.\Generated_Source\PSoC4/BLE_ias.c **** *  None
 120:.\Generated_Source\PSoC4/BLE_ias.c **** * 
 121:.\Generated_Source\PSoC4/BLE_ias.c **** ******************************************************************************/
 122:.\Generated_Source\PSoC4/BLE_ias.c **** void CyBle_IassDisconnectEventHandler(void)
 123:.\Generated_Source\PSoC4/BLE_ias.c **** {
  96              		.loc 1 123 0
  97              		.cfi_startproc
  98 0000 80B5     		push	{r7, lr}
  99              		.cfi_def_cfa_offset 8
 100              		.cfi_offset 7, -8
 101              		.cfi_offset 14, -4
 102 0002 84B0     		sub	sp, sp, #16
 103              		.cfi_def_cfa_offset 24
 104 0004 00AF     		add	r7, sp, #0
 105              		.cfi_def_cfa_register 7
ARM GAS  C:\Users\igreg\AppData\Local\Temp\cc6zyZbe.s 			page 5


 124:.\Generated_Source\PSoC4/BLE_ias.c ****     uint8 tmpAlertLevel = CYBLE_NO_ALERT;
 106              		.loc 1 124 0
 107 0006 0F23     		mov	r3, #15
 108 0008 FB18     		add	r3, r7, r3
 109 000a 0022     		mov	r2, #0
 110 000c 1A70     		strb	r2, [r3]
 125:.\Generated_Source\PSoC4/BLE_ias.c ****     CYBLE_GATT_HANDLE_VALUE_PAIR_T handleVal;
 126:.\Generated_Source\PSoC4/BLE_ias.c ****     
 127:.\Generated_Source\PSoC4/BLE_ias.c ****     handleVal.attrHandle = cyBle_iass.alertLevelCharHandle;
 111              		.loc 1 127 0
 112 000e 0E22     		mov	r2, #14
 113 0010 3B1C     		mov	r3, r7
 114 0012 1A81     		strh	r2, [r3, #8]
 128:.\Generated_Source\PSoC4/BLE_ias.c ****     handleVal.value.val = &tmpAlertLevel;
 115              		.loc 1 128 0
 116 0014 3B1C     		mov	r3, r7
 117 0016 0F22     		mov	r2, #15
 118 0018 BA18     		add	r2, r7, r2
 119 001a 1A60     		str	r2, [r3]
 129:.\Generated_Source\PSoC4/BLE_ias.c ****     handleVal.value.len = CYBLE_IAS_ALERT_LEVEL_SIZE;
 120              		.loc 1 129 0
 121 001c 3B1C     		mov	r3, r7
 122 001e 0122     		mov	r2, #1
 123 0020 9A80     		strh	r2, [r3, #4]
 130:.\Generated_Source\PSoC4/BLE_ias.c ****     
 131:.\Generated_Source\PSoC4/BLE_ias.c ****     /* Set alert level to "No Alert" per IAS spec */
 132:.\Generated_Source\PSoC4/BLE_ias.c ****     (void) CyBle_GattsWriteAttributeValue(&handleVal, 0u, NULL, CYBLE_GATT_DB_LOCALLY_INITIATED);
 124              		.loc 1 132 0
 125 0022 3B1C     		mov	r3, r7
 126 0024 181C     		mov	r0, r3
 127 0026 0021     		mov	r1, #0
 128 0028 0022     		mov	r2, #0
 129 002a 0023     		mov	r3, #0
 130 002c FFF7FEFF 		bl	CyBle_GattsWriteAttributeValue
 133:.\Generated_Source\PSoC4/BLE_ias.c **** }
 131              		.loc 1 133 0
 132 0030 BD46     		mov	sp, r7
 133 0032 04B0     		add	sp, sp, #16
 134              		@ sp needed
 135 0034 80BD     		pop	{r7, pc}
 136              		.cfi_endproc
 137              	.LFE4:
 138              		.size	CyBle_IassDisconnectEventHandler, .-CyBle_IassDisconnectEventHandler
 139 0036 C046     		.section	.text.CyBle_IassWriteCmdEventHandler,"ax",%progbits
 140              		.align	2
 141              		.global	CyBle_IassWriteCmdEventHandler
 142              		.code	16
 143              		.thumb_func
 144              		.type	CyBle_IassWriteCmdEventHandler, %function
 145              	CyBle_IassWriteCmdEventHandler:
 146              	.LFB5:
 134:.\Generated_Source\PSoC4/BLE_ias.c **** 
 135:.\Generated_Source\PSoC4/BLE_ias.c **** 
 136:.\Generated_Source\PSoC4/BLE_ias.c **** /****************************************************************************** 
 137:.\Generated_Source\PSoC4/BLE_ias.c **** * Function Name: CyBle_IassWriteCmdEventHandler
 138:.\Generated_Source\PSoC4/BLE_ias.c **** ***************************************************************************//**
 139:.\Generated_Source\PSoC4/BLE_ias.c **** * 
ARM GAS  C:\Users\igreg\AppData\Local\Temp\cc6zyZbe.s 			page 6


 140:.\Generated_Source\PSoC4/BLE_ias.c **** *  Handles the Write Without Response Request Event for the Immediate Alert 
 141:.\Generated_Source\PSoC4/BLE_ias.c **** *  Service.
 142:.\Generated_Source\PSoC4/BLE_ias.c **** * 
 143:.\Generated_Source\PSoC4/BLE_ias.c **** *  \param CYBLE_GATTS_WRITE_CMD_REQ_PARAM_T * eventParam: The pointer to a data structure
 144:.\Generated_Source\PSoC4/BLE_ias.c **** *                                                    specified by the event.
 145:.\Generated_Source\PSoC4/BLE_ias.c **** * 
 146:.\Generated_Source\PSoC4/BLE_ias.c **** * \return
 147:.\Generated_Source\PSoC4/BLE_ias.c **** *  None
 148:.\Generated_Source\PSoC4/BLE_ias.c **** * 
 149:.\Generated_Source\PSoC4/BLE_ias.c **** ******************************************************************************/
 150:.\Generated_Source\PSoC4/BLE_ias.c **** void CyBle_IassWriteCmdEventHandler(CYBLE_GATTS_WRITE_CMD_REQ_PARAM_T *eventParam)
 151:.\Generated_Source\PSoC4/BLE_ias.c **** {
 147              		.loc 1 151 0
 148              		.cfi_startproc
 149 0000 80B5     		push	{r7, lr}
 150              		.cfi_def_cfa_offset 8
 151              		.cfi_offset 7, -8
 152              		.cfi_offset 14, -4
 153 0002 84B0     		sub	sp, sp, #16
 154              		.cfi_def_cfa_offset 24
 155 0004 00AF     		add	r7, sp, #0
 156              		.cfi_def_cfa_register 7
 157 0006 7860     		str	r0, [r7, #4]
 152:.\Generated_Source\PSoC4/BLE_ias.c ****     CYBLE_IAS_CHAR_VALUE_T wrCmdParam;
 153:.\Generated_Source\PSoC4/BLE_ias.c ****     
 154:.\Generated_Source\PSoC4/BLE_ias.c ****     if(NULL != CyBle_IasApplCallback)
 158              		.loc 1 154 0
 159 0008 1F4B     		ldr	r3, .L8
 160 000a 1B68     		ldr	r3, [r3]
 161 000c 002B     		cmp	r3, #0
 162 000e 37D0     		beq	.L6
 155:.\Generated_Source\PSoC4/BLE_ias.c ****     {
 156:.\Generated_Source\PSoC4/BLE_ias.c ****         /* Check if attribute handle is handle of Alert Level characteristic of
 157:.\Generated_Source\PSoC4/BLE_ias.c ****            Immediate Alert service. */
 158:.\Generated_Source\PSoC4/BLE_ias.c ****         if((cyBle_iass.alertLevelCharHandle == eventParam->handleValPair.attrHandle) &&
 163              		.loc 1 158 0
 164 0010 0E22     		mov	r2, #14
 165 0012 7B68     		ldr	r3, [r7, #4]
 166 0014 9B89     		ldrh	r3, [r3, #12]
 167 0016 9A42     		cmp	r2, r3
 168 0018 32D1     		bne	.L6
 159:.\Generated_Source\PSoC4/BLE_ias.c ****             (CYBLE_IAS_ALERT_LEVEL_SIZE == eventParam->handleValPair.value.len) &&
 169              		.loc 1 159 0 discriminator 1
 170 001a 7B68     		ldr	r3, [r7, #4]
 171 001c 1B89     		ldrh	r3, [r3, #8]
 158:.\Generated_Source\PSoC4/BLE_ias.c ****             (CYBLE_IAS_ALERT_LEVEL_SIZE == eventParam->handleValPair.value.len) &&
 172              		.loc 1 158 0 discriminator 1
 173 001e 012B     		cmp	r3, #1
 174 0020 2ED1     		bne	.L6
 160:.\Generated_Source\PSoC4/BLE_ias.c ****                 (CYBLE_HIGH_ALERT >= eventParam->handleValPair.value.val[0u]))
 175              		.loc 1 160 0
 176 0022 7B68     		ldr	r3, [r7, #4]
 177 0024 5B68     		ldr	r3, [r3, #4]
 178 0026 1B78     		ldrb	r3, [r3]
 159:.\Generated_Source\PSoC4/BLE_ias.c ****             (CYBLE_IAS_ALERT_LEVEL_SIZE == eventParam->handleValPair.value.len) &&
 179              		.loc 1 159 0
 180 0028 022B     		cmp	r3, #2
ARM GAS  C:\Users\igreg\AppData\Local\Temp\cc6zyZbe.s 			page 7


 181 002a 29D8     		bhi	.L6
 161:.\Generated_Source\PSoC4/BLE_ias.c ****         {   
 162:.\Generated_Source\PSoC4/BLE_ias.c ****             /* Input parameters validation passed, so save Alert Level */
 163:.\Generated_Source\PSoC4/BLE_ias.c ****             if(CYBLE_GATT_ERR_NONE ==
 164:.\Generated_Source\PSoC4/BLE_ias.c ****                 CyBle_GattsWriteAttributeValue(&eventParam->handleValPair, 
 182              		.loc 1 164 0
 183 002c 7B68     		ldr	r3, [r7, #4]
 184 002e 1A1D     		add	r2, r3, #4
 185 0030 7B68     		ldr	r3, [r7, #4]
 186 0032 101C     		mov	r0, r2
 187 0034 0021     		mov	r1, #0
 188 0036 1A1C     		mov	r2, r3
 189 0038 4023     		mov	r3, #64
 190 003a FFF7FEFF 		bl	CyBle_GattsWriteAttributeValue
 191 003e 031E     		sub	r3, r0, #0
 163:.\Generated_Source\PSoC4/BLE_ias.c ****                 CyBle_GattsWriteAttributeValue(&eventParam->handleValPair, 
 192              		.loc 1 163 0
 193 0040 1ED1     		bne	.L6
 165:.\Generated_Source\PSoC4/BLE_ias.c ****                                                0u, 
 166:.\Generated_Source\PSoC4/BLE_ias.c ****                                                &eventParam->connHandle,
 167:.\Generated_Source\PSoC4/BLE_ias.c ****                                                CYBLE_GATT_DB_PEER_INITIATED))
 168:.\Generated_Source\PSoC4/BLE_ias.c ****             {
 169:.\Generated_Source\PSoC4/BLE_ias.c ****                 wrCmdParam.connHandle = eventParam->connHandle;
 194              		.loc 1 169 0
 195 0042 0823     		mov	r3, #8
 196 0044 FB18     		add	r3, r7, r3
 197 0046 7A68     		ldr	r2, [r7, #4]
 198 0048 1288     		ldrh	r2, [r2]
 199 004a 1A80     		strh	r2, [r3]
 170:.\Generated_Source\PSoC4/BLE_ias.c ****                 wrCmdParam.charIndex = CYBLE_IAS_ALERT_LEVEL;
 200              		.loc 1 170 0
 201 004c 0823     		mov	r3, #8
 202 004e FB18     		add	r3, r7, r3
 203 0050 0022     		mov	r2, #0
 204 0052 9A70     		strb	r2, [r3, #2]
 171:.\Generated_Source\PSoC4/BLE_ias.c ****                 wrCmdParam.value = &eventParam->handleValPair.value;
 205              		.loc 1 171 0
 206 0054 7B68     		ldr	r3, [r7, #4]
 207 0056 1A1D     		add	r2, r3, #4
 208 0058 0823     		mov	r3, #8
 209 005a FB18     		add	r3, r7, r3
 210 005c 5A60     		str	r2, [r3, #4]
 172:.\Generated_Source\PSoC4/BLE_ias.c ****                 
 173:.\Generated_Source\PSoC4/BLE_ias.c ****                 /* Send callback to user if no error occurred while writing Alert Level */
 174:.\Generated_Source\PSoC4/BLE_ias.c ****                 CyBle_IasApplCallback((uint32) CYBLE_EVT_IASS_WRITE_CHAR_CMD, (void *) &wrCmdParam)
 211              		.loc 1 174 0
 212 005e 0A4B     		ldr	r3, .L8
 213 0060 1B68     		ldr	r3, [r3]
 214 0062 D822     		mov	r2, #216
 215 0064 5100     		lsl	r1, r2, #1
 216 0066 0822     		mov	r2, #8
 217 0068 BA18     		add	r2, r7, r2
 218 006a 081C     		mov	r0, r1
 219 006c 111C     		mov	r1, r2
 220 006e 9847     		blx	r3
 175:.\Generated_Source\PSoC4/BLE_ias.c ****                 cyBle_eventHandlerFlag &= (uint8) (~CYBLE_CALLBACK);
 221              		.loc 1 175 0
ARM GAS  C:\Users\igreg\AppData\Local\Temp\cc6zyZbe.s 			page 8


 222 0070 064B     		ldr	r3, .L8+4
 223 0072 1B78     		ldrb	r3, [r3]
 224 0074 DBB2     		uxtb	r3, r3
 225 0076 0122     		mov	r2, #1
 226 0078 9343     		bic	r3, r2
 227 007a DAB2     		uxtb	r2, r3
 228 007c 034B     		ldr	r3, .L8+4
 229 007e 1A70     		strb	r2, [r3]
 230              	.L6:
 176:.\Generated_Source\PSoC4/BLE_ias.c ****             }
 177:.\Generated_Source\PSoC4/BLE_ias.c ****         }
 178:.\Generated_Source\PSoC4/BLE_ias.c ****         /* As this handler handles Write Without Response request the error response
 179:.\Generated_Source\PSoC4/BLE_ias.c ****           can't be sent for the Client. The erroneous value will be with
 180:.\Generated_Source\PSoC4/BLE_ias.c ****           CYBLE_EVT_GATTS_WRITE_CMD_REQ event. User will decide how to handle it. */
 181:.\Generated_Source\PSoC4/BLE_ias.c ****     }
 182:.\Generated_Source\PSoC4/BLE_ias.c **** }
 231              		.loc 1 182 0
 232 0080 BD46     		mov	sp, r7
 233 0082 04B0     		add	sp, sp, #16
 234              		@ sp needed
 235 0084 80BD     		pop	{r7, pc}
 236              	.L9:
 237 0086 C046     		.align	2
 238              	.L8:
 239 0088 00000000 		.word	CyBle_IasApplCallback
 240 008c 00000000 		.word	cyBle_eventHandlerFlag
 241              		.cfi_endproc
 242              	.LFE5:
 243              		.size	CyBle_IassWriteCmdEventHandler, .-CyBle_IassWriteCmdEventHandler
 244              		.section	.text.CyBle_IassGetCharacteristicValue,"ax",%progbits
 245              		.align	2
 246              		.global	CyBle_IassGetCharacteristicValue
 247              		.code	16
 248              		.thumb_func
 249              		.type	CyBle_IassGetCharacteristicValue, %function
 250              	CyBle_IassGetCharacteristicValue:
 251              	.LFB6:
 183:.\Generated_Source\PSoC4/BLE_ias.c **** 
 184:.\Generated_Source\PSoC4/BLE_ias.c **** 
 185:.\Generated_Source\PSoC4/BLE_ias.c **** /****************************************************************************** 
 186:.\Generated_Source\PSoC4/BLE_ias.c **** * Function Name: CyBle_IassGetCharacteristicValue
 187:.\Generated_Source\PSoC4/BLE_ias.c **** ***************************************************************************//**
 188:.\Generated_Source\PSoC4/BLE_ias.c **** * 
 189:.\Generated_Source\PSoC4/BLE_ias.c **** *  Gets the Alert Level characteristic value of the service, which is identified
 190:.\Generated_Source\PSoC4/BLE_ias.c **** *  by charIndex.
 191:.\Generated_Source\PSoC4/BLE_ias.c **** * 
 192:.\Generated_Source\PSoC4/BLE_ias.c **** *  \param charIndex: The index of the Alert Level characteristic.
 193:.\Generated_Source\PSoC4/BLE_ias.c **** *  \param attrSize: The size of the Alert Level characteristic value attribute.
 194:.\Generated_Source\PSoC4/BLE_ias.c **** *  \param attrValue: The pointer to the location where the Alert Level characteristic
 195:.\Generated_Source\PSoC4/BLE_ias.c **** *               value data should be stored.
 196:.\Generated_Source\PSoC4/BLE_ias.c **** * 
 197:.\Generated_Source\PSoC4/BLE_ias.c **** * \return
 198:.\Generated_Source\PSoC4/BLE_ias.c **** *  Return value is of type CYBLE_API_RESULT_T.
 199:.\Generated_Source\PSoC4/BLE_ias.c **** *   * CYBLE_ERROR_OK - The characteristic value was read successfully
 200:.\Generated_Source\PSoC4/BLE_ias.c **** *   * CYBLE_ERROR_INVALID_PARAMETER - Validation of the input parameters failed
 201:.\Generated_Source\PSoC4/BLE_ias.c **** *
 202:.\Generated_Source\PSoC4/BLE_ias.c **** * \events
ARM GAS  C:\Users\igreg\AppData\Local\Temp\cc6zyZbe.s 			page 9


 203:.\Generated_Source\PSoC4/BLE_ias.c **** *  None
 204:.\Generated_Source\PSoC4/BLE_ias.c **** *
 205:.\Generated_Source\PSoC4/BLE_ias.c **** ******************************************************************************/
 206:.\Generated_Source\PSoC4/BLE_ias.c **** CYBLE_API_RESULT_T CyBle_IassGetCharacteristicValue(CYBLE_IAS_CHAR_INDEX_T charIndex, uint8 attrSiz
 207:.\Generated_Source\PSoC4/BLE_ias.c **** {
 252              		.loc 1 207 0
 253              		.cfi_startproc
 254 0000 80B5     		push	{r7, lr}
 255              		.cfi_def_cfa_offset 8
 256              		.cfi_offset 7, -8
 257              		.cfi_offset 14, -4
 258 0002 86B0     		sub	sp, sp, #24
 259              		.cfi_def_cfa_offset 32
 260 0004 00AF     		add	r7, sp, #0
 261              		.cfi_def_cfa_register 7
 262 0006 3A60     		str	r2, [r7]
 263 0008 FB1D     		add	r3, r7, #7
 264 000a 021C     		add	r2, r0, #0
 265 000c 1A70     		strb	r2, [r3]
 266 000e BB1D     		add	r3, r7, #6
 267 0010 0A1C     		add	r2, r1, #0
 268 0012 1A70     		strb	r2, [r3]
 208:.\Generated_Source\PSoC4/BLE_ias.c ****     CYBLE_GATT_HANDLE_VALUE_PAIR_T iasHandleValuePair;
 209:.\Generated_Source\PSoC4/BLE_ias.c ****     CYBLE_API_RESULT_T apiResult = CYBLE_ERROR_INVALID_PARAMETER;
 269              		.loc 1 209 0
 270 0014 1623     		mov	r3, #22
 271 0016 FB18     		add	r3, r7, r3
 272 0018 0122     		mov	r2, #1
 273 001a 1A80     		strh	r2, [r3]
 210:.\Generated_Source\PSoC4/BLE_ias.c **** 
 211:.\Generated_Source\PSoC4/BLE_ias.c ****     if((NULL != attrValue) && (CYBLE_IAS_ALERT_LEVEL == charIndex) && (CYBLE_IAS_ALERT_LEVEL_SIZE =
 274              		.loc 1 211 0
 275 001c 3B68     		ldr	r3, [r7]
 276 001e 002B     		cmp	r3, #0
 277 0020 22D0     		beq	.L11
 278              		.loc 1 211 0 is_stmt 0 discriminator 1
 279 0022 FB1D     		add	r3, r7, #7
 280 0024 1B78     		ldrb	r3, [r3]
 281 0026 002B     		cmp	r3, #0
 282 0028 1ED1     		bne	.L11
 283              		.loc 1 211 0 discriminator 2
 284 002a BB1D     		add	r3, r7, #6
 285 002c 1B78     		ldrb	r3, [r3]
 286 002e 012B     		cmp	r3, #1
 287 0030 1AD1     		bne	.L11
 212:.\Generated_Source\PSoC4/BLE_ias.c ****     {
 213:.\Generated_Source\PSoC4/BLE_ias.c ****         iasHandleValuePair.attrHandle = cyBle_iass.alertLevelCharHandle;
 288              		.loc 1 213 0 is_stmt 1
 289 0032 0E22     		mov	r2, #14
 290 0034 0823     		mov	r3, #8
 291 0036 FB18     		add	r3, r7, r3
 292 0038 1A81     		strh	r2, [r3, #8]
 214:.\Generated_Source\PSoC4/BLE_ias.c ****         iasHandleValuePair.value.len = attrSize;
 293              		.loc 1 214 0
 294 003a BB1D     		add	r3, r7, #6
 295 003c 1B78     		ldrb	r3, [r3]
 296 003e 9AB2     		uxth	r2, r3
ARM GAS  C:\Users\igreg\AppData\Local\Temp\cc6zyZbe.s 			page 10


 297 0040 0823     		mov	r3, #8
 298 0042 FB18     		add	r3, r7, r3
 299 0044 9A80     		strh	r2, [r3, #4]
 215:.\Generated_Source\PSoC4/BLE_ias.c ****         iasHandleValuePair.value.val = attrValue;
 300              		.loc 1 215 0
 301 0046 0823     		mov	r3, #8
 302 0048 FB18     		add	r3, r7, r3
 303 004a 3A68     		ldr	r2, [r7]
 304 004c 1A60     		str	r2, [r3]
 216:.\Generated_Source\PSoC4/BLE_ias.c ****         
 217:.\Generated_Source\PSoC4/BLE_ias.c ****         /* Get Alert Level characteristic value from GATT database */
 218:.\Generated_Source\PSoC4/BLE_ias.c ****         if(CYBLE_GATT_ERR_NONE == 
 219:.\Generated_Source\PSoC4/BLE_ias.c ****             CyBle_GattsReadAttributeValue(&iasHandleValuePair, NULL, CYBLE_GATT_DB_LOCALLY_INITIATE
 305              		.loc 1 219 0
 306 004e 0823     		mov	r3, #8
 307 0050 FB18     		add	r3, r7, r3
 308 0052 181C     		mov	r0, r3
 309 0054 0021     		mov	r1, #0
 310 0056 0022     		mov	r2, #0
 311 0058 FFF7FEFF 		bl	CyBle_GattsReadAttributeValue
 312 005c 031E     		sub	r3, r0, #0
 218:.\Generated_Source\PSoC4/BLE_ias.c ****             CyBle_GattsReadAttributeValue(&iasHandleValuePair, NULL, CYBLE_GATT_DB_LOCALLY_INITIATE
 313              		.loc 1 218 0
 314 005e 03D1     		bne	.L11
 220:.\Generated_Source\PSoC4/BLE_ias.c ****         {
 221:.\Generated_Source\PSoC4/BLE_ias.c ****             /* Indicate success */
 222:.\Generated_Source\PSoC4/BLE_ias.c ****             apiResult = CYBLE_ERROR_OK;
 315              		.loc 1 222 0
 316 0060 1623     		mov	r3, #22
 317 0062 FB18     		add	r3, r7, r3
 318 0064 0022     		mov	r2, #0
 319 0066 1A80     		strh	r2, [r3]
 320              	.L11:
 223:.\Generated_Source\PSoC4/BLE_ias.c ****         }
 224:.\Generated_Source\PSoC4/BLE_ias.c ****     }
 225:.\Generated_Source\PSoC4/BLE_ias.c **** 
 226:.\Generated_Source\PSoC4/BLE_ias.c ****     /* Return status */
 227:.\Generated_Source\PSoC4/BLE_ias.c ****     return(apiResult);
 321              		.loc 1 227 0
 322 0068 1623     		mov	r3, #22
 323 006a FB18     		add	r3, r7, r3
 324 006c 1B88     		ldrh	r3, [r3]
 228:.\Generated_Source\PSoC4/BLE_ias.c **** }
 325              		.loc 1 228 0
 326 006e 181C     		mov	r0, r3
 327 0070 BD46     		mov	sp, r7
 328 0072 06B0     		add	sp, sp, #24
 329              		@ sp needed
 330 0074 80BD     		pop	{r7, pc}
 331              		.cfi_endproc
 332              	.LFE6:
 333              		.size	CyBle_IassGetCharacteristicValue, .-CyBle_IassGetCharacteristicValue
 334 0076 C046     		.text
 335              	.Letext0:
 336              		.file 2 ".\\Generated_Source\\PSoC4\\cytypes.h"
 337              		.file 3 ".\\Generated_Source\\PSoC4\\BLE_Stack.h"
 338              		.file 4 ".\\Generated_Source\\PSoC4\\BLE_StackGatt.h"
ARM GAS  C:\Users\igreg\AppData\Local\Temp\cc6zyZbe.s 			page 11


 339              		.file 5 ".\\Generated_Source\\PSoC4\\BLE_StackGattServer.h"
 340              		.file 6 ".\\Generated_Source\\PSoC4\\BLE.h"
 341              		.file 7 ".\\Generated_Source\\PSoC4\\BLE_ias.h"
 342              		.file 8 ".\\Generated_Source\\PSoC4\\BLE_eventHandler.h"